 api

 Timestamp is 5c7f0fa6 (Tue Mar  5 19:09:10 2019)

 Preferred load address is 0000000180000000

 Start         Length     Name                   Class
 0001:00000000 000002a0H .text$di                CODE
 0001:000002a0 00035b80H .text$mn                CODE
 0001:00035e20 00000020H .text$mn$00             CODE
 0001:00035e40 000004f0H .text$x                 CODE
 0001:00036330 0000034cH .text$yd                CODE
 0002:00000000 00000378H .idata$5                DATA
 0002:00000378 00000010H .00cfg                  DATA
 0002:00000388 00000008H .CRT$XCA                DATA
 0002:00000390 00000058H .CRT$XCC                DATA
 0002:000003e8 00000010H .CRT$XCL                DATA
 0002:000003f8 00000018H .CRT$XCU                DATA
 0002:00000410 00000008H .CRT$XCZ                DATA
 0002:00000418 00000008H .CRT$XIA                DATA
 0002:00000420 00000030H .CRT$XIC                DATA
 0002:00000450 00000008H .CRT$XIZ                DATA
 0002:00000458 00000008H .CRT$XLA                DATA
 0002:00000460 00000008H .CRT$XLZ                DATA
 0002:00000468 00000008H .CRT$XPA                DATA
 0002:00000470 00000010H .CRT$XPX                DATA
 0002:00000480 00000008H .CRT$XPXA               DATA
 0002:00000488 00000008H .CRT$XPZ                DATA
 0002:00000490 00000008H .CRT$XTA                DATA
 0002:00000498 00000008H .CRT$XTZ                DATA
 0002:000004a0 00011668H .rdata                  DATA
 0002:00011b08 00000028H .rdata$T                DATA
 0002:00011b30 00000fe4H .rdata$r                DATA
 0002:00012b14 000004a4H .rdata$zzzdbg           DATA
 0002:00012fb8 00000008H .rtc$IAA                DATA
 0002:00012fc0 00000008H .rtc$IZZ                DATA
 0002:00012fc8 00000008H .rtc$TAA                DATA
 0002:00012fd0 00000010H .rtc$TZZ                DATA
 0002:00012fe0 00002a88H .xdata                  DATA
 0002:00015a68 00000244H .xdata$x                DATA
 0002:00015cac 00000020H .didat$2                DATA
 0002:00015ccc 00000024H .didat$3                DATA
 0002:00015cf0 00000278H .didat$4                DATA
 0002:00015f68 00000fb0H .didat$6                DATA
 0002:00016f18 00000278H .didat$7                DATA
 0002:00017190 00000054H .edata                  DATA
 0002:000171e4 00000064H .idata$2                DATA
 0002:00017248 00000018H .idata$3                DATA
 0002:00017260 00000378H .idata$4                DATA
 0002:000175d8 000007eaH .idata$6                DATA
 0003:00000000 00000bf0H .data                   DATA
 0003:00000bf0 000005f0H .data$r                 DATA
 0003:000011e0 00000280H .didat$5                DATA
 0003:00001460 00001f5cH .bss                    DATA
 0004:00000000 00002da8H .pdata                  DATA
 0005:00000000 000000b8H .gfids$x                DATA
 0005:000000b8 00000250H .gfids$y                DATA
 0006:00000000 00000004H .tls                    DATA
 0006:00000004 00000004H .tls$                   DATA
 0006:00000008 00000001H .tls$ZZZ                DATA
 0007:00000000 00000060H .rsrc$01                DATA
 0007:00000060 00000180H .rsrc$02                DATA

  Address         Publics by Value              Rva+Base               Lib:Object

 0000:00000000       __dynamic_value_reloc_table 0000000000000000     <absolute>
 0000:00000000       __guard_iat_count          0000000000000000     <absolute>
 0000:00000000       __guard_iat_table          0000000000000000     <absolute>
 0000:00000000       __guard_longjmp_table      0000000000000000     <absolute>
 0000:00000000       __guard_longjmp_count      0000000000000000     <absolute>
 0000:00000000       __guard_fids_count         0000000000000000     <absolute>
 0000:00000000       ___safe_se_handler_table   0000000000000000     <absolute>
 0000:00000000       ___safe_se_handler_count   0000000000000000     <absolute>
 0000:00000000       __guard_fids_table         0000000000000000     <absolute>
 0000:00000100       __guard_flags              0000000000000100     <absolute>
 0000:00000000       __ImageBase                0000000180000000     <linker-defined>
 0001:000002a0       __local_stdio_printf_options 00000001800012a0 f i node_report.obj
 0001:000002b0       sprintf_s                  00000001800012b0 f i node_report.obj
 0001:00000310       snprintf                   0000000180001310 f i node_report.obj
 0001:00000370       ?what@exception@stdext@@UEBAPEBDXZ 0000000180001370 f i node_report.obj
 0001:00000390       __except_validate_context_record 0000000180001390 f i libvcruntime:jbcxrval.obj
 0001:00000390       ?_Lock@?$basic_streambuf@DU?$char_traits@D@std@@@std@@UEAAXXZ 0000000180001390 f i node_report.obj
 0001:00000390       ?imbue@?$basic_streambuf@DU?$char_traits@D@std@@@std@@MEAAXAEBVlocale@2@@Z 0000000180001390 f i node_report.obj
 0001:00000390       ?SetSignal@nodereport@@YAXAEBV?$FunctionCallbackInfo@VValue@v8@@@Nan@@@Z 0000000180001390 f i module.obj
 0001:00000390       ?_Unlock@?$basic_streambuf@DU?$char_traits@D@std@@@std@@UEAAXXZ 0000000180001390 f i node_report.obj
 0001:00000390       ??$destroy@PEAD@?$_Wrap_alloc@V?$allocator@D@std@@@std@@QEAAXPEAPEAD@Z 0000000180001390 f i node_report.obj
 0001:00000390       _guard_check_icall_nop     0000000180001390 f i LIBCMT:guard_support.obj
 0001:00000390       ?_Doraise@exception@stdext@@MEBAXXZ 0000000180001390 f i node_report.obj
 0001:00000390       ??1?$_String_alloc@U?$_String_base_types@DV?$allocator@D@std@@@std@@@std@@QEAA@XZ 0000000180001390 f i node_report.obj
 0001:000003a0       ??_Gruntime_error@std@@UEAAPEAXI@Z 00000001800013a0 f i node_report.obj
 0001:000003a0       ??_Gexception@stdext@@UEAAPEAXI@Z 00000001800013a0 f i node_report.obj
 0001:000003a0       ??_Eruntime_error@std@@UEAAPEAXI@Z 00000001800013a0 f i * CIL library *:* CIL module *
 0001:000003a0       ??_Eexception@stdext@@UEAAPEAXI@Z 00000001800013a0 f i * CIL library *:* CIL module *
 0001:000003d0       ??0_Locinfo@std@@QEAA@PEBD@Z 00000001800013d0 f i node_report.obj
 0001:00000490       ??1_Locinfo@std@@QEAA@XZ   0000000180001490 f i node_report.obj
 0001:00000530       ??_E_Facet_base@std@@UEAAPEAXI@Z 0000000180001530 f i * CIL library *:* CIL module *
 0001:00000530       ??_G_Facet_base@std@@UEAAPEAXI@Z 0000000180001530 f i node_report.obj
 0001:00000560       ?_Incref@facet@locale@std@@UEAAXXZ 0000000180001560 f i node_report.obj
 0001:00000570       ?_Decref@facet@locale@std@@UEAAPEAV_Facet_base@3@XZ 0000000180001570 f i node_report.obj
 0001:00000580       ?do_max_length@codecvt_base@std@@MEBAHXZ 0000000180001580 f i node_report.obj
 0001:00000580       DllMain                    0000000180001580 f i LIBCMT:dll_dllmain_stub.obj
 0001:00000580       _get_startup_argv_mode     0000000180001580 f i LIBCMT:argv_mode.obj
 0001:00000580       ?do_encoding@codecvt_base@std@@MEBAHXZ 0000000180001580 f i node_report.obj
 0001:00000590       ?_Getcat@?$ctype@D@std@@SA_KPEAPEBVfacet@locale@2@PEBV42@@Z 0000000180001590 f i node_report.obj
 0001:00000650       ?do_tolower@?$ctype@D@std@@MEBADD@Z 0000000180001650 f i node_report.obj
 0001:00000660       ?do_tolower@?$ctype@D@std@@MEBAPEBDPEADPEBD@Z 0000000180001660 f i node_report.obj
 0001:000006c0       ?do_toupper@?$ctype@D@std@@MEBADD@Z 00000001800016c0 f i node_report.obj
 0001:000006d0       ?do_toupper@?$ctype@D@std@@MEBAPEBDPEADPEBD@Z 00000001800016d0 f i node_report.obj
 0001:00000730       ?do_narrow@?$ctype@D@std@@MEBADDD@Z 0000000180001730 f i node_report.obj
 0001:00000730       ?do_widen@?$ctype@D@std@@MEBADD@Z 0000000180001730 f i node_report.obj
 0001:00000740       ?do_widen@?$ctype@D@std@@MEBAPEBDPEBD0PEAD@Z 0000000180001740 f i node_report.obj
 0001:00000760       ?do_narrow@?$ctype@D@std@@MEBAPEBDPEBD0DPEAD@Z 0000000180001760 f i node_report.obj
 0001:00000780       ??_G?$ctype@D@std@@MEAAPEAXI@Z 0000000180001780 f i node_report.obj
 0001:00000780       ??_E?$ctype@D@std@@MEAAPEAXI@Z 0000000180001780 f i * CIL library *:* CIL module *
 0001:000007f0       ??_Eerror_category@std@@UEAAPEAXI@Z 00000001800017f0 f i * CIL library *:* CIL module *
 0001:000007f0       ??_G_Iostream_error_category@std@@UEAAPEAXI@Z 00000001800017f0 f i node_report.obj
 0001:000007f0       ??_Gerror_category@std@@UEAAPEAXI@Z 00000001800017f0 f i node_report.obj
 0001:000007f0       ??_E_Iostream_error_category@std@@UEAAPEAXI@Z 00000001800017f0 f i * CIL library *:* CIL module *
 0001:00000820       ?default_error_condition@error_category@std@@UEBA?AVerror_condition@2@H@Z 0000000180001820 f i node_report.obj
 0001:00000830       ?equivalent@error_category@std@@UEBA_NHAEBVerror_condition@2@@Z 0000000180001830 f i node_report.obj
 0001:00000890       ?equivalent@error_category@std@@UEBA_NAEBVerror_code@2@H@Z 0000000180001890 f i node_report.obj
 0001:000008b0       ??0_System_error@std@@IEAA@Verror_code@1@AEBV?$basic_string@DU?$char_traits@D@std@@V?$allocator@D@2@@1@@Z 00000001800018b0 f i node_report.obj
 0001:00000ad0       ??_E_System_error@std@@UEAAPEAXI@Z 0000000180001ad0 f i * CIL library *:* CIL module *
 0001:00000ad0       ??_Efailure@ios_base@std@@UEAAPEAXI@Z 0000000180001ad0 f i * CIL library *:* CIL module *
 0001:00000ad0       ??_G_System_error@std@@UEAAPEAXI@Z 0000000180001ad0 f i node_report.obj
 0001:00000ad0       ??_Gfailure@ios_base@std@@UEAAPEAXI@Z 0000000180001ad0 f i node_report.obj
 0001:00000b00       ?name@_Iostream_error_category@std@@UEBAPEBDXZ 0000000180001b00 f i node_report.obj
 0001:00000b10       ?message@_Iostream_error_category@std@@UEBA?AV?$basic_string@DU?$char_traits@D@std@@V?$allocator@D@2@@2@H@Z 0000000180001b10 f i node_report.obj
 0001:00000b90       ?clear@ios_base@std@@QEAAXH_N@Z 0000000180001b90 f i node_report.obj
 0001:00000f10       ?copyfmt@ios_base@std@@QEAAAEAV12@AEBV12@@Z 0000000180001f10 f i node_report.obj
 0001:00001120       ?_Tidy@ios_base@std@@AEAAXXZ 0000000180002120 f i node_report.obj
 0001:000011c0       ??_Gios_base@std@@UEAAPEAXI@Z 00000001800021c0 f i node_report.obj
 0001:000011c0       ??_Eios_base@std@@UEAAPEAXI@Z 00000001800021c0 f i * CIL library *:* CIL module *
 0001:00001200       ??0Utf8String@Nan@@QEAA@V?$Local@VValue@v8@@@v8@@@Z 0000000180002200 f i node_report.obj
 0001:00001310       ?TriggerNodeReport@nodereport@@YAXPEAVIsolate@v8@@W4DumpEvent@1@PEBD2PEADV?$MaybeLocal@VValue@v8@@@3@@Z 0000000180002310 f   node_report.obj
 0001:00002ec0       ??1?$basic_string@DU?$char_traits@D@std@@V?$allocator@D@2@@std@@QEAA@XZ 0000000180003ec0 f i node_report.obj
 0001:00002f50       ??1?$basic_ofstream@DU?$char_traits@D@std@@@std@@UEAA@XZ 0000000180003f50 f i node_report.obj
 0001:00002fd0       ??0?$basic_ofstream@DU?$char_traits@D@std@@@std@@QEAA@XZ 0000000180003fd0 f i node_report.obj
 0001:00003170       ?imbue@?$basic_filebuf@DU?$char_traits@D@std@@@std@@MEAAXAEBVlocale@2@@Z 0000000180004170 f i node_report.obj
 0001:000031a0       ?sync@?$basic_filebuf@DU?$char_traits@D@std@@@std@@MEAAHXZ 00000001800041a0 f i node_report.obj
 0001:000031f0       ?setbuf@?$basic_filebuf@DU?$char_traits@D@std@@@std@@MEAAPEAV?$basic_streambuf@DU?$char_traits@D@std@@@2@PEAD_J@Z 00000001800041f0 f i node_report.obj
 0001:00003250       ?seekpos@?$basic_filebuf@DU?$char_traits@D@std@@@std@@MEAA?AV?$fpos@U_Mbstatet@@@2@V32@H@Z 0000000180004250 f i node_report.obj
 0001:00003330       ?seekoff@?$basic_filebuf@DU?$char_traits@D@std@@@std@@MEAA?AV?$fpos@U_Mbstatet@@@2@_JHH@Z 0000000180004330 f i node_report.obj
 0001:00003420       ?uflow@?$basic_filebuf@DU?$char_traits@D@std@@@std@@MEAAHXZ 0000000180004420 f i node_report.obj
 0001:00003810       ?underflow@?$basic_filebuf@DU?$char_traits@D@std@@@std@@MEAAHXZ 0000000180004810 f i node_report.obj
 0001:00003880       ?pbackfail@?$basic_filebuf@DU?$char_traits@D@std@@@std@@MEAAHH@Z 0000000180004880 f i node_report.obj
 0001:00003930       ?overflow@?$basic_filebuf@DU?$char_traits@D@std@@@std@@MEAAHH@Z 0000000180004930 f i node_report.obj
 0001:00003ce0       ?_Unlock@?$basic_filebuf@DU?$char_traits@D@std@@@std@@UEAAXXZ 0000000180004ce0 f i node_report.obj
 0001:00003d00       ?_Lock@?$basic_filebuf@DU?$char_traits@D@std@@@std@@UEAAXXZ 0000000180004d00 f i node_report.obj
 0001:00003d20       ??1?$basic_filebuf@DU?$char_traits@D@std@@@std@@UEAA@XZ 0000000180004d20 f i node_report.obj
 0001:00003dd0       ??6?$basic_ostream@DU?$char_traits@D@std@@@std@@QEAAAEAV01@_K@Z 0000000180004dd0 f i node_report.obj
 0001:00003f80       ??6?$basic_ostream@DU?$char_traits@D@std@@@std@@QEAAAEAV01@K@Z 0000000180004f80 f i node_report.obj
 0001:00004120       ??6?$basic_ostream@DU?$char_traits@D@std@@@std@@QEAAAEAV01@H@Z 0000000180005120 f i node_report.obj
 0001:000042c0       ?sync@?$basic_streambuf@DU?$char_traits@D@std@@@std@@MEAAHXZ 00000001800052c0 f i node_report.obj
 0001:000042c0       ?showmanyc@?$basic_streambuf@DU?$char_traits@D@std@@@std@@MEAA_JXZ 00000001800052c0 f i node_report.obj
 0001:000042d0       ??0?$_Wrap_alloc@V?$allocator@D@std@@@std@@QEAA@XZ 00000001800052d0 f i node_report.obj
 0001:000042d0       ?setbuf@?$basic_streambuf@DU?$char_traits@D@std@@@std@@MEAAPEAV12@PEAD_J@Z 00000001800052d0 f i node_report.obj
 0001:000042e0       ?seekoff@?$basic_streambuf@DU?$char_traits@D@std@@@std@@MEAA?AV?$fpos@U_Mbstatet@@@2@_JHH@Z 00000001800052e0 f i node_report.obj
 0001:000042e0       ?seekpos@?$basic_streambuf@DU?$char_traits@D@std@@@std@@MEAA?AV?$fpos@U_Mbstatet@@@2@V32@H@Z 00000001800052e0 f i node_report.obj
 0001:00004300       ?xsputn@?$basic_streambuf@DU?$char_traits@D@std@@@std@@MEAA_JPEBD_J@Z 0000000180005300 f i node_report.obj
 0001:000043c0       ?xsgetn@?$basic_streambuf@DU?$char_traits@D@std@@@std@@MEAA_JPEAD_J@Z 00000001800053c0 f i node_report.obj
 0001:00004480       ?uflow@?$basic_streambuf@DU?$char_traits@D@std@@@std@@MEAAHXZ 0000000180005480 f i node_report.obj
 0001:000044c0       ?underflow@?$basic_streambuf@DU?$char_traits@D@std@@@std@@MEAAHXZ 00000001800054c0 f i node_report.obj
 0001:000044c0       ?overflow@?$basic_streambuf@DU?$char_traits@D@std@@@std@@MEAAHH@Z 00000001800054c0 f i node_report.obj
 0001:000044c0       ?pbackfail@?$basic_streambuf@DU?$char_traits@D@std@@@std@@MEAAHH@Z 00000001800054c0 f i node_report.obj
 0001:000044d0       ??_E?$basic_ofstream@DU?$char_traits@D@std@@@std@@UEAAPEAXI@Z 00000001800054d0 f i * CIL library *:* CIL module *
 0001:000044d0       ??_G?$basic_ofstream@DU?$char_traits@D@std@@@std@@UEAAPEAXI@Z 00000001800054d0 f i node_report.obj
 0001:00004520       ??_E?$basic_filebuf@DU?$char_traits@D@std@@@std@@UEAAPEAXI@Z 0000000180005520 f i * CIL library *:* CIL module *
 0001:00004520       ??_G?$basic_filebuf@DU?$char_traits@D@std@@@std@@UEAAPEAXI@Z 0000000180005520 f i node_report.obj
 0001:00004560       ??_G?$basic_ostream@DU?$char_traits@D@std@@@std@@UEAAPEAXI@Z 0000000180005560 f i node_report.obj
 0001:00004560       ??_E?$basic_ostream@DU?$char_traits@D@std@@@std@@UEAAPEAXI@Z 0000000180005560 f i * CIL library *:* CIL module *
 0001:000045d0       ??_E?$basic_streambuf@DU?$char_traits@D@std@@@std@@UEAAPEAXI@Z 00000001800055d0 f i * CIL library *:* CIL module *
 0001:000045d0       ??_G?$basic_streambuf@DU?$char_traits@D@std@@@std@@UEAAPEAXI@Z 00000001800055d0 f i node_report.obj
 0001:00004650       ??_Glocale@std@@QEAAPEAXI@Z 0000000180005650 f i node_report.obj
 0001:000046b0       ??_E?$basic_ios@DU?$char_traits@D@std@@@std@@UEAAPEAXI@Z 00000001800056b0 f i * CIL library *:* CIL module *
 0001:000046b0       ??_G?$basic_ios@DU?$char_traits@D@std@@@std@@UEAAPEAXI@Z 00000001800056b0 f i node_report.obj
 0001:000046f0       ?do_length@?$codecvt@DDU_Mbstatet@@@std@@MEBAHAEAU_Mbstatet@@PEBD1_K@Z 00000001800056f0 f i node_report.obj
 0001:00004710       ?do_unshift@?$codecvt@DDU_Mbstatet@@@std@@MEBAHAEAU_Mbstatet@@PEAD1AEAPEAD@Z 0000000180005710 f i node_report.obj
 0001:00004720       ?do_out@?$codecvt@DDU_Mbstatet@@@std@@MEBAHAEAU_Mbstatet@@PEBD1AEAPEBDPEAD3AEAPEAD@Z 0000000180005720 f i node_report.obj
 0001:00004720       ?do_in@?$codecvt@DDU_Mbstatet@@@std@@MEBAHAEAU_Mbstatet@@PEBD1AEAPEBDPEAD3AEAPEAD@Z 0000000180005720 f i node_report.obj
 0001:00004740       ?do_always_noconv@?$codecvt@DDU_Mbstatet@@@std@@MEBA_NXZ 0000000180005740 f i node_report.obj
 0001:00004740       __acrt_uninitialize_command_line 0000000180005740 f i libucrt:argv_data.obj
 0001:00004750       ??0sentry@?$basic_ostream@DU?$char_traits@D@std@@@std@@QEAA@AEAV12@@Z 0000000180005750 f i node_report.obj
 0001:000047c0       ?do_put@?$num_put@DV?$ostreambuf_iterator@DU?$char_traits@D@std@@@std@@@std@@MEBA?AV?$ostreambuf_iterator@DU?$char_traits@D@std@@@2@V32@AEAVios_base@2@DPEBX@Z 00000001800057c0 f i node_report.obj
 0001:00004860       ?do_put@?$num_put@DV?$ostreambuf_iterator@DU?$char_traits@D@std@@@std@@@std@@MEBA?AV?$ostreambuf_iterator@DU?$char_traits@D@std@@@2@V32@AEAVios_base@2@DO@Z 0000000180005860 f i node_report.obj
 0001:00004ad0       ?do_put@?$num_put@DV?$ostreambuf_iterator@DU?$char_traits@D@std@@@std@@@std@@MEBA?AV?$ostreambuf_iterator@DU?$char_traits@D@std@@@2@V32@AEAVios_base@2@DN@Z 0000000180005ad0 f i node_report.obj
 0001:00004d40       ?do_put@?$num_put@DV?$ostreambuf_iterator@DU?$char_traits@D@std@@@std@@@std@@MEBA?AV?$ostreambuf_iterator@DU?$char_traits@D@std@@@2@V32@AEAVios_base@2@D_K@Z 0000000180005d40 f i node_report.obj
 0001:00004e40       ?do_put@?$num_put@DV?$ostreambuf_iterator@DU?$char_traits@D@std@@@std@@@std@@MEBA?AV?$ostreambuf_iterator@DU?$char_traits@D@std@@@2@V32@AEAVios_base@2@D_J@Z 0000000180005e40 f i node_report.obj
 0001:00004f40       ?do_put@?$num_put@DV?$ostreambuf_iterator@DU?$char_traits@D@std@@@std@@@std@@MEBA?AV?$ostreambuf_iterator@DU?$char_traits@D@std@@@2@V32@AEAVios_base@2@DK@Z 0000000180005f40 f i node_report.obj
 0001:00005040       ?do_put@?$num_put@DV?$ostreambuf_iterator@DU?$char_traits@D@std@@@std@@@std@@MEBA?AV?$ostreambuf_iterator@DU?$char_traits@D@std@@@2@V32@AEAVios_base@2@DJ@Z 0000000180006040 f i node_report.obj
 0001:00005140       ?do_put@?$num_put@DV?$ostreambuf_iterator@DU?$char_traits@D@std@@@std@@@std@@MEBA?AV?$ostreambuf_iterator@DU?$char_traits@D@std@@@2@V32@AEAVios_base@2@D_N@Z 0000000180006140 f i node_report.obj
 0001:000056f0       ?erase@?$basic_string@DU?$char_traits@D@std@@V?$allocator@D@2@@std@@QEAAAEAV12@_K0@Z 00000001800066f0 f i node_report.obj
 0001:000057c0       ?assign@?$basic_string@DU?$char_traits@D@std@@V?$allocator@D@2@@std@@QEAAAEAV12@_KD@Z 00000001800067c0 f i node_report.obj
 0001:000058c0       ?assign@?$basic_string@DU?$char_traits@D@std@@V?$allocator@D@2@@std@@QEAAAEAV12@PEBD_K@Z 00000001800068c0 f i node_report.obj
 0001:000059f0       ?assign@?$basic_string@DU?$char_traits@D@std@@V?$allocator@D@2@@std@@QEAAAEAV12@AEBV12@_K1@Z 00000001800069f0 f i node_report.obj
 0001:00005b20       ?append@?$basic_string@DU?$char_traits@D@std@@V?$allocator@D@2@@std@@QEAAAEAV12@_KD@Z 0000000180006b20 f i node_report.obj
 0001:00005c30       ?append@?$basic_string@DU?$char_traits@D@std@@V?$allocator@D@2@@std@@QEAAAEAV12@PEBD_K@Z 0000000180006c30 f i node_report.obj
 0001:00005d80       ?append@?$basic_string@DU?$char_traits@D@std@@V?$allocator@D@2@@std@@QEAAAEAV12@AEBV12@_K1@Z 0000000180006d80 f i node_report.obj
 0001:00005eb0       ?_Assign_rv@?$basic_string@DU?$char_traits@D@std@@V?$allocator@D@2@@std@@QEAAX$$QEAV12@@Z 0000000180006eb0 f i node_report.obj
 0001:00005f30       ?_Set_back@?$basic_filebuf@DU?$char_traits@D@std@@@std@@AEAAXXZ 0000000180006f30 f i node_report.obj
 0001:00005f80       ?_Reset_back@?$basic_filebuf@DU?$char_traits@D@std@@@std@@AEAAXXZ 0000000180006f80 f i node_report.obj
 0001:00005fb0       ?_Initcvt@?$basic_filebuf@DU?$char_traits@D@std@@@std@@IEAAXPEBV?$codecvt@DDU_Mbstatet@@@2@@Z 0000000180006fb0 f i node_report.obj
 0001:00006050       ?_Endwrite@?$basic_filebuf@DU?$char_traits@D@std@@@std@@IEAA_NXZ 0000000180007050 f i node_report.obj
 0001:00006300       ?_Init@?$basic_filebuf@DU?$char_traits@D@std@@@std@@IEAAXPEAU_iobuf@@W4_Initfl@12@@Z 0000000180007300 f i node_report.obj
 0001:000063f0       ?close@?$basic_filebuf@DU?$char_traits@D@std@@@std@@QEAAPEAV12@XZ 00000001800073f0 f i node_report.obj
 0001:000064c0       ??0?$basic_ostream@DU?$char_traits@D@std@@@std@@QEAA@PEAV?$basic_streambuf@DU?$char_traits@D@std@@@1@_N@Z 00000001800074c0 f i node_report.obj
 0001:00006530       ?_Pnavail@?$basic_streambuf@DU?$char_traits@D@std@@@std@@IEBA_JXZ 0000000180007530 f i node_report.obj
 0001:00006550       ?_Gnavail@?$basic_streambuf@DU?$char_traits@D@std@@@std@@IEBA_JXZ 0000000180007550 f i node_report.obj
 0001:00006570       ?init@?$basic_ios@DU?$char_traits@D@std@@@std@@IEAAXPEAV?$basic_streambuf@DU?$char_traits@D@std@@@2@_N@Z 0000000180007570 f i node_report.obj
 0001:00006640       ??_E?$codecvt@DDU_Mbstatet@@@std@@MEAAPEAXI@Z 0000000180007640 f i * CIL library *:* CIL module *
 0001:00006640       ??_E?$num_put@DV?$ostreambuf_iterator@DU?$char_traits@D@std@@@std@@@std@@MEAAPEAXI@Z 0000000180007640 f i * CIL library *:* CIL module *
 0001:00006640       ??_G?$num_put@DV?$ostreambuf_iterator@DU?$char_traits@D@std@@@std@@@std@@MEAAPEAXI@Z 0000000180007640 f i node_report.obj
 0001:00006640       ??_G?$codecvt@DDU_Mbstatet@@@std@@MEAAPEAXI@Z 0000000180007640 f i node_report.obj
 0001:00006670       ?do_truename@?$numpunct@D@std@@MEBA?AV?$basic_string@DU?$char_traits@D@std@@V?$allocator@D@2@@2@XZ 0000000180007670 f i node_report.obj
 0001:000066c0       ?do_falsename@?$numpunct@D@std@@MEBA?AV?$basic_string@DU?$char_traits@D@std@@V?$allocator@D@2@@2@XZ 00000001800076c0 f i node_report.obj
 0001:00006710       ?do_grouping@?$numpunct@D@std@@MEBA?AV?$basic_string@DU?$char_traits@D@std@@V?$allocator@D@2@@2@XZ 0000000180007710 f i node_report.obj
 0001:00006760       ?do_thousands_sep@?$numpunct@D@std@@MEBADXZ 0000000180007760 f i node_report.obj
 0001:00006770       ?do_decimal_point@?$numpunct@D@std@@MEBADXZ 0000000180007770 f i node_report.obj
 0001:00006780       ?_Iput@?$num_put@DV?$ostreambuf_iterator@DU?$char_traits@D@std@@@std@@@std@@AEBA?AV?$ostreambuf_iterator@DU?$char_traits@D@std@@@2@V32@AEAVios_base@2@DPEAD_K@Z 0000000180007780 f i node_report.obj
 0001:00006f60       ?_Fput@?$num_put@DV?$ostreambuf_iterator@DU?$char_traits@D@std@@@std@@@std@@AEBA?AV?$ostreambuf_iterator@DU?$char_traits@D@std@@@2@V32@AEAVios_base@2@DPEBD_K@Z 0000000180007f60 f i node_report.obj
 0001:000077c0       ?flush@?$basic_ostream@DU?$char_traits@D@std@@@std@@QEAAAEAV12@XZ 00000001800087c0 f i node_report.obj
 0001:000078b0       ??0?$basic_streambuf@DU?$char_traits@D@std@@@std@@IEAA@XZ 00000001800088b0 f i node_report.obj
 0001:00007950       ?widen@?$basic_ios@DU?$char_traits@D@std@@@std@@QEBADD@Z 0000000180008950 f i node_report.obj
 0001:000079f0       ??_E?$numpunct@D@std@@MEAAPEAXI@Z 00000001800089f0 f i * CIL library *:* CIL module *
 0001:000079f0       ??_G?$numpunct@D@std@@MEAAPEAXI@Z 00000001800089f0 f i node_report.obj
 0001:00007a50       ?_Copy@?$basic_string@DU?$char_traits@D@std@@V?$allocator@D@2@@std@@QEAAX_K0@Z 0000000180008a50 f i node_report.obj
 0001:00007bd0       ?deallocate@?$allocator@D@std@@QEAAXPEAD_K@Z 0000000180008bd0 f i node_report.obj
 0001:00007c30       ?allocate@?$allocator@D@std@@QEAAPEAD_K@Z 0000000180008c30 f i node_report.obj
 0001:00007c90       ??$use_facet@V?$ctype@D@std@@@std@@YAAEBV?$ctype@D@0@AEBVlocale@0@@Z 0000000180008c90 f i node_report.obj
 0001:00007dc0       ??$_Immortalize@V_Iostream_error_category@std@@@std@@YAAEAV_Iostream_error_category@0@XZ 0000000180008dc0 f i node_report.obj
 0001:00007e40       ??$?6U?$char_traits@D@std@@@std@@YAAEAV?$basic_ostream@DU?$char_traits@D@std@@@0@AEAV10@PEBD@Z 0000000180008e40 f i node_report.obj
 0001:00008090       ??$?6DU?$char_traits@D@std@@V?$allocator@D@1@@std@@YAAEAV?$basic_ostream@DU?$char_traits@D@std@@@0@AEAV10@AEBV?$basic_string@DU?$char_traits@D@std@@V?$allocator@D@2@@0@@Z 0000000180009090 f i node_report.obj
 0001:000082e0       ??$use_facet@V?$codecvt@DDU_Mbstatet@@@std@@@std@@YAAEBV?$codecvt@DDU_Mbstatet@@@0@AEBVlocale@0@@Z 00000001800092e0 f i node_report.obj
 0001:00008460       ??$use_facet@V?$num_put@DV?$ostreambuf_iterator@DU?$char_traits@D@std@@@std@@@std@@@std@@YAAEBV?$num_put@DV?$ostreambuf_iterator@DU?$char_traits@D@std@@@std@@@0@AEBVlocale@0@@Z 0000000180009460 f i node_report.obj
 0001:000085e0       ??$use_facet@V?$numpunct@D@std@@@std@@YAAEBV?$numpunct@D@0@AEBVlocale@0@@Z 00000001800095e0 f i node_report.obj
 0001:00008710       ?_Getcat@?$numpunct@D@std@@SA_KPEAPEBVfacet@locale@2@PEBV42@@Z 0000000180009710 f i node_report.obj
 0001:000087d0       ?put@?$basic_ostream@DU?$char_traits@D@std@@@std@@QEAAAEAV12@D@Z 00000001800097d0 f i node_report.obj
 0001:00008920       ?_Init@?$numpunct@D@std@@IEAAXAEBV_Locinfo@2@_N@Z 0000000180009920 f i node_report.obj
 0001:00008a94       ??_E?$basic_ostream@DU?$char_traits@D@std@@@std@@$4PPPPPPPM@A@EAAPEAXI@Z 0000000180009a94 f i node_report.obj
 0001:00008aa0       ??_E?$basic_ofstream@DU?$char_traits@D@std@@@std@@$4PPPPPPPM@A@EAAPEAXI@Z 0000000180009aa0 f i node_report.obj
 0001:00008ab0       __local_stdio_scanf_options 0000000180009ab0 f i module.obj
 0001:00008ac0       fprintf                    0000000180009ac0 f i module.obj
 0001:00008b10       sscanf                     0000000180009b10 f i module.obj
 0001:00008c30       ?New@?$Factory@VFunctionTemplate@v8@@@imp@Nan@@SA?AV?$Local@VFunctionTemplate@v8@@@v8@@P6AXAEBV?$FunctionCallbackInfo@VValue@v8@@@3@@ZV?$Local@VValue@v8@@@5@V?$Local@VSignature@v8@@@5@@Z 0000000180009c30 f i module.obj
 0001:00008e10       ?ThrowError@Nan@@YAXPEBD@Z 0000000180009e10 f i module.obj
 0001:00008ea0       ?TriggerReport@nodereport@@YAXAEBV?$FunctionCallbackInfo@VValue@v8@@@Nan@@@Z 0000000180009ea0 f   module.obj
 0001:00009100       ?GetReport@nodereport@@YAXAEBV?$FunctionCallbackInfo@VValue@v8@@@Nan@@@Z 000000018000a100 f   module.obj
 0001:00009360       ?SetEvents@nodereport@@YAXAEBV?$FunctionCallbackInfo@VValue@v8@@@Nan@@@Z 000000018000a360 f   module.obj
 0001:00009460       ?SetFileName@nodereport@@YAXAEBV?$FunctionCallbackInfo@VValue@v8@@@Nan@@@Z 000000018000a460 f   module.obj
 0001:000094e0       ?SetDirectory@nodereport@@YAXAEBV?$FunctionCallbackInfo@VValue@v8@@@Nan@@@Z 000000018000a4e0 f   module.obj
 0001:00009560       ?SetVerbose@nodereport@@YAXAEBV?$FunctionCallbackInfo@VValue@v8@@@Nan@@@Z 000000018000a560 f   module.obj
 0001:00009690       ?OnUncaughtException@nodereport@@YA_NPEAVIsolate@v8@@@Z 000000018000a690 f   module.obj
 0001:00009950       ?Initialize@nodereport@@YAXV?$Local@VObject@v8@@@v8@@@Z 000000018000a950 f   module.obj
 0001:00009de0       ??1?$basic_ostringstream@DU?$char_traits@D@std@@V?$allocator@D@2@@std@@UEAA@XZ 000000018000ade0 f i module.obj
 0001:00009ec0       ??0?$basic_ostringstream@DU?$char_traits@D@std@@V?$allocator@D@2@@std@@QEAA@H@Z 000000018000aec0 f i module.obj
 0001:0000a000       ?seekpos@?$basic_stringbuf@DU?$char_traits@D@std@@V?$allocator@D@2@@std@@MEAA?AV?$fpos@U_Mbstatet@@@2@V32@H@Z 000000018000b000 f i module.obj
 0001:0000a110       ?seekoff@?$basic_stringbuf@DU?$char_traits@D@std@@V?$allocator@D@2@@std@@MEAA?AV?$fpos@U_Mbstatet@@@2@_JHH@Z 000000018000b110 f i module.obj
 0001:0000a2a0       ?underflow@?$basic_stringbuf@DU?$char_traits@D@std@@V?$allocator@D@2@@std@@MEAAHXZ 000000018000b2a0 f i module.obj
 0001:0000a300       ?pbackfail@?$basic_stringbuf@DU?$char_traits@D@std@@V?$allocator@D@2@@std@@MEAAHH@Z 000000018000b300 f i module.obj
 0001:0000a350       ?overflow@?$basic_stringbuf@DU?$char_traits@D@std@@V?$allocator@D@2@@std@@MEAAHH@Z 000000018000b350 f i module.obj
 0001:0000a5c0       ??_E?$basic_ostringstream@DU?$char_traits@D@std@@V?$allocator@D@2@@std@@UEAAPEAXI@Z 000000018000b5c0 f i * CIL library *:* CIL module *
 0001:0000a5c0       ??_G?$basic_ostringstream@DU?$char_traits@D@std@@V?$allocator@D@2@@std@@UEAAPEAXI@Z 000000018000b5c0 f i module.obj
 0001:0000a610       ??_G?$basic_stringbuf@DU?$char_traits@D@std@@V?$allocator@D@2@@std@@UEAAPEAXI@Z 000000018000b610 f i module.obj
 0001:0000a610       ??_E?$basic_stringbuf@DU?$char_traits@D@std@@V?$allocator@D@2@@std@@UEAAPEAXI@Z 000000018000b610 f i * CIL library *:* CIL module *
 0001:0000a6a0       ?find@?$basic_string@DU?$char_traits@D@std@@V?$allocator@D@2@@std@@QEBA_KPEBD_K1@Z 000000018000b6a0 f i module.obj
 0001:0000a780       ?_Tidy@?$basic_stringbuf@DU?$char_traits@D@std@@V?$allocator@D@2@@std@@IEAAXXZ 000000018000b780 f i module.obj
 0001:0000a840       ?str@?$basic_stringbuf@DU?$char_traits@D@std@@V?$allocator@D@2@@std@@QEBA?AV?$basic_string@DU?$char_traits@D@std@@V?$allocator@D@2@@2@XZ 000000018000b840 f i module.obj
 0001:0000a9c8       ??_E?$basic_ostringstream@DU?$char_traits@D@std@@V?$allocator@D@2@@std@@$4PPPPPPPM@A@EAAPEAXI@Z 000000018000b9c8 f i module.obj
 0001:0000a9e0       ?Get@Nan@@YA?AV?$MaybeLocal@VValue@v8@@@v8@@V?$Local@VObject@v8@@@3@V?$Local@VValue@v8@@@3@@Z 000000018000b9e0 f i utilities.obj
 0001:0000aa60       ?ProcessNodeReportEvents@nodereport@@YAIPEBD@Z 000000018000ba60 f   utilities.obj
 0001:0000ab70       ?ProcessNodeReportFileName@nodereport@@YAXPEBD@Z 000000018000bb70 f   utilities.obj
 0001:0000ac10       ?ProcessNodeReportDirectory@nodereport@@YAXPEBD@Z 000000018000bc10 f   utilities.obj
 0001:0000acb0       ?ProcessNodeReportVerboseSwitch@nodereport@@YAIPEBD@Z 000000018000bcb0 f   utilities.obj
 0001:0000ad90       ?SetVersionString@nodereport@@YAXPEAVIsolate@v8@@@Z 000000018000bd90 f   utilities.obj
 0001:0000b490       ?reportEndpoint@nodereport@@YAXPEAUuv_handle_s@@PEAUsockaddr@@PEBDAEAV?$basic_ostringstream@DU?$char_traits@D@std@@V?$allocator@D@2@@std@@@Z 000000018000c490 f   utilities.obj
 0001:0000b5a0       ?reportEndpoints@nodereport@@YAXPEAUuv_handle_s@@AEAV?$basic_ostringstream@DU?$char_traits@D@std@@V?$allocator@D@2@@std@@@Z 000000018000c5a0 f   utilities.obj
 0001:0000b690       ?reportPath@nodereport@@YAXPEAUuv_handle_s@@AEAV?$basic_ostringstream@DU?$char_traits@D@std@@V?$allocator@D@2@@std@@@Z 000000018000c690 f   utilities.obj
 0001:0000b810       ?walkHandle@nodereport@@YAXPEAUuv_handle_s@@PEAX@Z 000000018000c810 f   utilities.obj
 0001:0000bff0       ?WriteInteger@nodereport@@YAXAEAV?$basic_ostream@DU?$char_traits@D@std@@@std@@_K@Z 000000018000cff0 f   utilities.obj
 0001:0000c100       ?SignoString@nodereport@@YAPEBDH@Z 000000018000d100 f   utilities.obj
 0001:0000c1d0       ??6?$basic_ostream@DU?$char_traits@D@std@@@std@@QEAAAEAV01@PEBX@Z 000000018000d1d0 f i utilities.obj
 0001:0000c380       ??$?6U?$char_traits@D@std@@@std@@YAAEAV?$basic_ostream@DU?$char_traits@D@std@@@0@AEAV10@D@Z 000000018000d380 f i utilities.obj
 0001:0000c62c       __imp_load_?GetStackSample@Isolate@v8@@QEAAXAEBURegisterState@2@PEAPEAX_KPEAUSampleInfo@2@@Z 000000018000d62c f   node:node.exe
 0001:0000c638       __tailMerge_node_exe       000000018000d638 f i node:node.exe
 0001:0000c6b1       __imp_load_?GetHeapSpaceStatistics@Isolate@v8@@QEAA_NPEAVHeapSpaceStatistics@2@_K@Z 000000018000d6b1 f   node:node.exe
 0001:0000c6bd       __imp_load_?NumberOfHeapSpaces@Isolate@v8@@QEAA_KXZ 000000018000d6bd f   node:node.exe
 0001:0000c6c9       __imp_load_?GetHeapStatistics@Isolate@v8@@QEAAXPEAVHeapStatistics@2@@Z 000000018000d6c9 f   node:node.exe
 0001:0000c6d5       __imp_load_?GetCurrent@Isolate@v8@@SAPEAV12@XZ 000000018000d6d5 f   node:node.exe
 0001:0000c6e1       __imp_load_??1HandleScope@v8@@QEAA@XZ 000000018000d6e1 f   node:node.exe
 0001:0000c6ed       __imp_load_??0HandleScope@v8@@QEAA@PEAVIsolate@1@@Z 000000018000d6ed f   node:node.exe
 0001:0000c6f9       __imp_load_?IsConstructor@StackFrame@v8@@QEBA_NXZ 000000018000d6f9 f   node:node.exe
 0001:0000c705       __imp_load_?IsEval@StackFrame@v8@@QEBA_NXZ 000000018000d705 f   node:node.exe
 0001:0000c711       __imp_load_?GetFunctionName@StackFrame@v8@@QEBA?AV?$Local@VString@v8@@@2@XZ 000000018000d711 f   node:node.exe
 0001:0000c71d       __imp_load_?GetScriptName@StackFrame@v8@@QEBA?AV?$Local@VString@v8@@@2@XZ 000000018000d71d f   node:node.exe
 0001:0000c729       __imp_load_?GetScriptId@StackFrame@v8@@QEBAHXZ 000000018000d729 f   node:node.exe
 0001:0000c735       __imp_load_?GetColumn@StackFrame@v8@@QEBAHXZ 000000018000d735 f   node:node.exe
 0001:0000c741       __imp_load_?GetLineNumber@StackFrame@v8@@QEBAHXZ 000000018000d741 f   node:node.exe
 0001:0000c74d       __imp_load_?GetStackTrace@Exception@v8@@SA?AV?$Local@VStackTrace@v8@@@2@V?$Local@VValue@v8@@@2@@Z 000000018000d74d f   node:node.exe
 0001:0000c759       __imp_load_?CreateMessage@Exception@v8@@SA?AV?$Local@VMessage@v8@@@2@PEAVIsolate@2@V?$Local@VValue@v8@@@2@@Z 000000018000d759 f   node:node.exe
 0001:0000c765       __imp_load_?ToLocalEmpty@V8@v8@@CAXXZ 000000018000d765 f   node:node.exe
 0001:0000c771       __imp_load_?IsNativeError@Value@v8@@QEBA_NXZ 000000018000d771 f   node:node.exe
 0001:0000c77d       __imp_load_??0HeapStatistics@v8@@QEAA@XZ 000000018000d77d f   node:node.exe
 0001:0000c789       __imp_load_?Get@Message@v8@@QEBA?AV?$Local@VString@v8@@@2@XZ 000000018000d789 f   node:node.exe
 0001:0000c795       __imp_load_?WriteUtf8@String@v8@@QEBAHPEADHPEAHH@Z 000000018000d795 f   node:node.exe
 0001:0000c7a1       __imp_load_?Length@String@v8@@QEBAHXZ 000000018000d7a1 f   node:node.exe
 0001:0000c7ad       __imp_load_?CurrentStackTrace@StackTrace@v8@@SA?AV?$Local@VStackTrace@v8@@@2@PEAVIsolate@2@HW4StackTraceOptions@12@@Z 000000018000d7ad f   node:node.exe
 0001:0000c7b9       __imp_load_?GetFrameCount@StackTrace@v8@@QEBAHXZ 000000018000d7b9 f   node:node.exe
 0001:0000c7c5       __imp_load_?GetFrame@StackTrace@v8@@QEBA?AV?$Local@VStackFrame@v8@@@2@I@Z 000000018000d7c5 f   node:node.exe
 0001:0000c7d1       __imp_load_??0HeapSpaceStatistics@v8@@QEAA@XZ 000000018000d7d1 f   node:node.exe
 0001:0000c7dd       __imp_load_uv_walk         000000018000d7dd f   node:node.exe
 0001:0000c7e9       __imp_load_uv_default_loop 000000018000d7e9 f   node:node.exe
 0001:0000c7f5       __imp_load_?ToString@Value@v8@@QEBA?AV?$Local@VString@v8@@@2@XZ 000000018000d7f5 f   node:node.exe
 0001:0000c801       __imp_load_?Value@External@v8@@QEBAPEAXXZ 000000018000d801 f   node:node.exe
 0001:0000c80d       __imp_load_?New@External@v8@@SA?AV?$Local@VExternal@v8@@@2@PEAVIsolate@2@PEAX@Z 000000018000d80d f   node:node.exe
 0001:0000c819       __imp_load_?SetCaptureStackTraceForUncaughtExceptions@Isolate@v8@@QEAAX_NHW4StackTraceOptions@StackTrace@2@@Z 000000018000d819 f   node:node.exe
 0001:0000c825       __imp_load_?SetFatalErrorHandler@Isolate@v8@@QEAAXP6AXPEBD0@Z@Z 000000018000d825 f   node:node.exe
 0001:0000c831       __imp_load_?ThrowException@Isolate@v8@@QEAA?AV?$Local@VValue@v8@@@2@V32@@Z 000000018000d831 f   node:node.exe
 0001:0000c83d       __imp_load_?GetCurrentContext@Isolate@v8@@QEAA?AV?$Local@VContext@v8@@@2@XZ 000000018000d83d f   node:node.exe
 0001:0000c849       __imp_load_?SetAbortOnUncaughtExceptionCallback@Isolate@v8@@QEAAXP6A_NPEAV12@@Z@Z 000000018000d849 f   node:node.exe
 0001:0000c855       __imp_load_?CreateHandle@HandleScope@v8@@KAPEAPEAVObject@internal@2@PEAVIsolate@42@PEAV342@@Z 000000018000d855 f   node:node.exe
 0001:0000c861       __imp_load_?CreateHandle@HandleScope@v8@@CAPEAPEAVObject@internal@2@PEAVHeapObject@42@PEAV342@@Z 000000018000d861 f   node:node.exe
 0001:0000c86d       __imp_load_?Error@Exception@v8@@SA?AV?$Local@VValue@v8@@@2@V?$Local@VString@v8@@@2@@Z 000000018000d86d f   node:node.exe
 0001:0000c879       __imp_load_?GetFunction@FunctionTemplate@v8@@QEAA?AV?$Local@VFunction@v8@@@2@XZ 000000018000d879 f   node:node.exe
 0001:0000c885       __imp_load_?New@FunctionTemplate@v8@@SA?AV?$Local@VFunctionTemplate@v8@@@2@PEAVIsolate@2@P6AXAEBV?$FunctionCallbackInfo@VValue@v8@@@2@@ZV?$Local@VValue@v8@@@2@V?$Local@VSignature@v8@@@2@HW4ConstructorBehavior@2@@Z 000000018000d885 f   node:node.exe
 0001:0000c891       __imp_load_?GetVersion@V8@v8@@SAPEBDXZ 000000018000d891 f   node:node.exe
 0001:0000c89d       __imp_load_?SetFlagsFromString@V8@v8@@SAXPEBDH@Z 000000018000d89d f   node:node.exe
 0001:0000c8a9       __imp_load_?Escape@EscapableHandleScope@v8@@AEAAPEAPEAVObject@internal@2@PEAPEAV342@@Z 000000018000d8a9 f   node:node.exe
 0001:0000c8b5       __imp_load_??0EscapableHandleScope@v8@@QEAA@PEAVIsolate@1@@Z 000000018000d8b5 f   node:node.exe
 0001:0000c8c1       __imp_load_?NewFromUtf8@String@v8@@SA?AV?$MaybeLocal@VString@v8@@@2@PEAVIsolate@2@PEBDW4NewStringType@2@H@Z 000000018000d8c1 f   node:node.exe
 0001:0000c8cd       __imp_load_?SlowGetInternalField@Object@v8@@AEAA?AV?$Local@VValue@v8@@@2@H@Z 000000018000d8cd f   node:node.exe
 0001:0000c8d9       __imp_load_?SetInternalField@Object@v8@@QEAAXHV?$Local@VValue@v8@@@2@@Z 000000018000d8d9 f   node:node.exe
 0001:0000c8e5       __imp_load_?Set@Object@v8@@QEAA_NV?$Local@VValue@v8@@@2@0@Z 000000018000d8e5 f   node:node.exe
 0001:0000c8f1       __imp_load_?SetInternalFieldCount@ObjectTemplate@v8@@QEAAXH@Z 000000018000d8f1 f   node:node.exe
 0001:0000c8fd       __imp_load_?NewInstance@ObjectTemplate@v8@@QEAA?AV?$MaybeLocal@VObject@v8@@@2@V?$Local@VContext@v8@@@2@@Z 000000018000d8fd f   node:node.exe
 0001:0000c909       __imp_load_?New@ObjectTemplate@v8@@SA?AV?$Local@VObjectTemplate@v8@@@2@PEAVIsolate@2@V?$Local@VFunctionTemplate@v8@@@2@@Z 000000018000d909 f   node:node.exe
 0001:0000c915       __imp_load_node_module_register 000000018000d915 f   node:node.exe
 0001:0000c921       __imp_load_uv_is_active    000000018000d921 f   node:node.exe
 0001:0000c92d       __imp_load_uv_now          000000018000d92d f   node:node.exe
 0001:0000c939       __imp_load_?Global@Context@v8@@QEAA?AV?$Local@VObject@v8@@@2@XZ 000000018000d939 f   node:node.exe
 0001:0000c945       __imp_load_?Length@Array@v8@@QEBAIXZ 000000018000d945 f   node:node.exe
 0001:0000c951       __imp_load_?IsObject@Value@v8@@QEBA_NXZ 000000018000d951 f   node:node.exe
 0001:0000c95d       __imp_load_??1TryCatch@v8@@QEAA@XZ 000000018000d95d f   node:node.exe
 0001:0000c969       __imp_load_??0TryCatch@v8@@QEAA@PEAVIsolate@1@@Z 000000018000d969 f   node:node.exe
 0001:0000c975       __imp_load_?GetOwnPropertyNames@Object@v8@@QEAA?AV?$MaybeLocal@VArray@v8@@@2@V?$Local@VContext@v8@@@2@@Z 000000018000d975 f   node:node.exe
 0001:0000c981       __imp_load_?Get@Object@v8@@QEAA?AV?$MaybeLocal@VValue@v8@@@2@V?$Local@VContext@v8@@@2@V?$Local@VValue@v8@@@2@@Z 000000018000d981 f   node:node.exe
 0001:0000c98d       __imp_load_?Get@Object@v8@@QEAA?AV?$MaybeLocal@VValue@v8@@@2@V?$Local@VContext@v8@@@2@I@Z 000000018000d98d f   node:node.exe
 0001:0000c999       __imp_load_uv_is_writable  000000018000d999 f   node:node.exe
 0001:0000c9a5       __imp_load_uv_getnameinfo  000000018000d9a5 f   node:node.exe
 0001:0000c9b1       __imp_load_uv_timer_get_repeat 000000018000d9b1 f   node:node.exe
 0001:0000c9bd       __imp_load_uv_fs_poll_getpath 000000018000d9bd f   node:node.exe
 0001:0000c9c9       __imp_load_uv_tcp_getpeername 000000018000d9c9 f   node:node.exe
 0001:0000c9d5       __imp_load_uv_udp_getsockname 000000018000d9d5 f   node:node.exe
 0001:0000c9e1       __imp_load_uv_has_ref      000000018000d9e1 f   node:node.exe
 0001:0000c9ed       __imp_load_uv_send_buffer_size 000000018000d9ed f   node:node.exe
 0001:0000c9f9       __imp_load_uv_fileno       000000018000d9f9 f   node:node.exe
 0001:0000ca05       __imp_load_uv_is_readable  000000018000da05 f   node:node.exe
 0001:0000ca11       __imp_load_uv_tcp_getsockname 000000018000da11 f   node:node.exe
 0001:0000ca1d       __imp_load_uv_fs_event_getpath 000000018000da1d f   node:node.exe
 0001:0000ca29       __imp_load_uv_inet_ntop    000000018000da29 f   node:node.exe
 0001:0000ca35       __imp_load_uv_tty_get_winsize 000000018000da35 f   node:node.exe
 0001:0000ca41       __imp_load_uv_recv_buffer_size 000000018000da41 f   node:node.exe
 0001:0000ca50       ??0_Init_locks@std@@QEAA@XZ 000000018000da50 f   libcpmt:xlock.obj
 0001:0000ca9c       ??0_Lockit@std@@QEAA@H@Z   000000018000da9c f   libcpmt:xlock.obj
 0001:0000cad8       ??1_Init_locks@std@@QEAA@XZ 000000018000dad8 f   libcpmt:xlock.obj
 0001:0000cb1c       ??1_Lockit@std@@QEAA@XZ    000000018000db1c f   libcpmt:xlock.obj
 0001:0000cb50       ??0_Init_cout@std@@QEAA@XZ 000000018000db50 f i libcpmt:cout.obj
 0001:0000cbbc       ??0exception@std@@QEAA@AEBV01@@Z 000000018000dbbc f i libcpmt:cout.obj
 0001:0000cbf4       ?what@exception@std@@UEBAPEBDXZ 000000018000dbf4 f i libcpmt:cout.obj
 0001:0000cc08       ??4?$_Yarn@D@std@@QEAAAEAV01@PEBD@Z 000000018000dc08 f i libcpmt:locale0.obj
 0001:0000cc80       ??_G_Fac_node@std@@QEAAPEAXI@Z 000000018000dc80 f i libcpmt:locale0.obj
 0001:0000cd0c       ??_E_Locimp@locale@std@@MEAAPEAXI@Z 000000018000dd0c f i libcpmt:locale0.obj
 0001:0000cd0c       ??_G_Locimp@locale@std@@MEAAPEAXI@Z 000000018000dd0c f i libcpmt:locale0.obj
 0001:0000cd78       ?_Facet_Register@std@@YAXPEAV_Facet_base@1@@Z 000000018000dd78 f   libcpmt:locale0.obj
 0001:0000cdb0       ?_Getgloballocale@locale@std@@CAPEAV_Locimp@12@XZ 000000018000ddb0 f   libcpmt:locale0.obj
 0001:0000cdb8       ?_Init@locale@std@@CAPEAV_Locimp@12@_N@Z 000000018000ddb8 f   libcpmt:locale0.obj
 0001:0000ce74       ?_Locimp_dtor@_Locimp@locale@std@@CAXPEAV123@@Z 000000018000de74 f   libcpmt:locale0.obj
 0001:0000cf1c       ?_Locinfo_ctor@_Locinfo@std@@SAXPEAV12@PEBD@Z 000000018000df1c f   libcpmt:locale0.obj
 0001:0000cf88       ?_Locinfo_dtor@_Locinfo@std@@SAXPEAV12@@Z 000000018000df88 f   libcpmt:locale0.obj
 0001:0000cfac       ?_New_Locimp@_Locimp@locale@std@@CAPEAV123@_N@Z 000000018000dfac f   libcpmt:locale0.obj
 0001:0000d01c       ?_Setgloballocale@locale@std@@CAXPEAX@Z 000000018000e01c f   libcpmt:locale0.obj
 0001:0000d050       _Deletegloballocale        000000018000e050 f   libcpmt:locale0.obj
 0001:0000d0d8       ??0bad_alloc@std@@QEAA@AEBV01@@Z 000000018000e0d8 f i libcpmt:xthrow.obj
 0001:0000d118       ??0bad_alloc@std@@QEAA@XZ  000000018000e118 f i libcpmt:xthrow.obj
 0001:0000d138       ??0length_error@std@@QEAA@AEBV01@@Z 000000018000e138 f i libcpmt:xthrow.obj
 0001:0000d178       ??0length_error@std@@QEAA@PEBD@Z 000000018000e178 f i libcpmt:xthrow.obj
 0001:0000d1c4       ??0logic_error@std@@QEAA@AEBV01@@Z 000000018000e1c4 f i libcpmt:xthrow.obj
 0001:0000d204       ??0out_of_range@std@@QEAA@AEBV01@@Z 000000018000e204 f i libcpmt:xthrow.obj
 0001:0000d244       ??0out_of_range@std@@QEAA@PEBD@Z 000000018000e244 f i libcpmt:xthrow.obj
 0001:0000d290       ?_Xlength_error@std@@YAXPEBD@Z 000000018000e290 f   libcpmt:xthrow.obj
 0001:0000d2b4       ?_Xout_of_range@std@@YAXPEBD@Z 000000018000e2b4 f   libcpmt:xthrow.obj
 0001:0000d2d8       ?_Addstd@ios_base@std@@SAXPEAV12@@Z 000000018000e2d8 f   libcpmt:ios.obj
 0001:0000d348       ?_Ios_base_dtor@ios_base@std@@CAXPEAV12@@Z 000000018000e348 f   libcpmt:ios.obj
 0001:0000d38c       ??$_Xfiopen@D@std@@YAPEAU_iobuf@@PEBDHH@Z 000000018000e38c f i libcpmt:fiopen.obj
 0001:0000d494       ?_Fiopen@std@@YAPEAU_iobuf@@PEBDHH@Z 000000018000e494 f   libcpmt:fiopen.obj
 0001:0000d49c       ?setw@std@@YA?AU?$_Smanip@_J@1@_J@Z 000000018000e49c f   libcpmt:iomanip.obj
 0001:0000d4b8       ?_Syserror_map@std@@YAPEBDH@Z 000000018000e4b8 f   libcpmt:syserror.obj
 0001:0000d4e0       _Getctype                  000000018000e4e0 f   libcpmt:_tolower.obj
 0001:0000d5a0       _Tolower                   000000018000e5a0 f   libcpmt:_tolower.obj
 0001:0000d6c8       _Getcvt                    000000018000e6c8 f   libcpmt:xwctomb.obj
 0001:0000d758       _Toupper                   000000018000e758 f   libcpmt:_toupper.obj
 0001:0000d890       _Mtxdst                    000000018000e890 f   libcpmt:xmtx.obj
 0001:0000d898       _Mtxinit                   000000018000e898 f   libcpmt:xmtx.obj
 0001:0000d8a8       _Mtxlock                   000000018000e8a8 f   libcpmt:xmtx.obj
 0001:0000d8b0       _Mtxunlock                 000000018000e8b0 f   libcpmt:xmtx.obj
 0001:0000d8b8       ?_Atexit@@YAXP6AXXZ@Z      000000018000e8b8 f   libcpmt:iosptrs.obj
 0001:0000d8f8       __crtLCMapStringA          000000018000e8f8 f   libcpmt:StlLCMapStringA.obj
 0001:0000e0b4       __crtInitializeCriticalSectionEx 000000018000f0b4 f   libcpmt:winapisupp.obj
 0001:0000e114       GetTableIndexFromLocaleName 000000018000f114 f   libcpmt:winapinls.obj
 0001:0000e1a0       __crtDownlevelLocaleNameToLCID 000000018000f1a0 f   libcpmt:winapinls.obj
 0001:0000e1d4       __crtLCMapStringEx         000000018000f1d4 f   libcpmt:winapinls.obj
 0001:0000e290       __wcsnicmp_ascii           000000018000f290 f   libcpmt:winapinls.obj
 0001:0000e300       __security_check_cookie    000000018000f300 f   LIBCMT:_amdsecgs_.obj
 0001:0000e46c       _Init_thread_footer        000000018000f46c f   LIBCMT:thread_safe_statics.obj
 0001:0000e4cc       _Init_thread_header        000000018000f4cc f   LIBCMT:thread_safe_statics.obj
 0001:0000e534       _Init_thread_notify        000000018000f534 f   LIBCMT:thread_safe_statics.obj
 0001:0000e590       _Init_thread_wait          000000018000f590 f   LIBCMT:thread_safe_statics.obj
 0001:0000e628       ??2@YAPEAX_K@Z             000000018000f628 f   LIBCMT:new_scalar.obj
 0001:0000e664       __scrt_acquire_startup_lock 000000018000f664 f   LIBCMT:utility.obj
 0001:0000e6a0       __scrt_dllmain_after_initialize_c 000000018000f6a0 f   LIBCMT:utility.obj
 0001:0000e6d4       __scrt_dllmain_before_initialize_c 000000018000f6d4 f   LIBCMT:utility.obj
 0001:0000e6ec       __scrt_dllmain_crt_thread_attach 000000018000f6ec f   LIBCMT:utility.obj
 0001:0000e714       __scrt_dllmain_crt_thread_detach 000000018000f714 f   LIBCMT:utility.obj
 0001:0000e72c       __scrt_dllmain_exception_filter 000000018000f72c f   LIBCMT:utility.obj
 0001:0000e790       __scrt_dllmain_uninitialize_c 000000018000f790 f   LIBCMT:utility.obj
 0001:0000e7c0       __scrt_dllmain_uninitialize_critical 000000018000f7c0 f   LIBCMT:utility.obj
 0001:0000e7d4       __scrt_initialize_crt      000000018000f7d4 f   LIBCMT:utility.obj
 0001:0000e820       __scrt_initialize_onexit_tables 000000018000f820 f   LIBCMT:utility.obj
 0001:0000e8ec       __scrt_is_nonwritable_in_current_image 000000018000f8ec f   LIBCMT:utility.obj
 0001:0000e988       __scrt_release_startup_lock 000000018000f988 f   LIBCMT:utility.obj
 0001:0000e9ac       __scrt_uninitialize_crt    000000018000f9ac f   LIBCMT:utility.obj
 0001:0000e9d8       _onexit                    000000018000f9d8 f   LIBCMT:utility.obj
 0001:0000ea28       atexit                     000000018000fa28 f   LIBCMT:utility.obj
 0001:0000ea40       ??3@YAXPEAX@Z              000000018000fa40 f   LIBCMT:delete_scalar.obj
 0001:0000ea48       ??3@YAXPEAX_K@Z            000000018000fa48 f   LIBCMT:delete_scalar_size.obj
 0001:0000ea48       ??_V@YAXPEAX@Z             000000018000fa48 f   LIBCMT:delete_array.obj
 0001:0000ed9c       _DllMainCRTStartup         000000018000fd9c f   LIBCMT:dll_dllmain.obj
 0001:0000eddc       __GSHandlerCheck           000000018000fddc f   LIBCMT:_gshandler_.obj
 0001:0000edfc       __GSHandlerCheckCommon     000000018000fdfc f   LIBCMT:_gshandler_.obj
 0001:0000ee58       _guard_check_icall         000000018000fe58 f i LIBCMT:checkcfg.obj
 0001:0000ee60       ??_Gtype_info@@UEAAPEAXI@Z 000000018000fe60 f i LIBCMT:std_type_info_static.obj
 0001:0000ee60       ??_Etype_info@@UEAAPEAXI@Z 000000018000fe60 f i LIBCMT:std_type_info_static.obj
 0001:0000eea0       _alloca_probe              000000018000fea0 f   LIBCMT:_chkstk_.obj
 0001:0000eea0       __chkstk                   000000018000fea0 f   LIBCMT:_chkstk_.obj
 0001:0000eef4       __raise_securityfailure    000000018000fef4 f   LIBCMT:gs_report.obj
 0001:0000ef28       __report_gsfailure         000000018000ff28 f   LIBCMT:gs_report.obj
 0001:0000effc       __report_rangecheckfailure 000000018000fffc f   LIBCMT:gs_report.obj
 0001:0000f010       __report_securityfailure   0000000180010010 f   LIBCMT:gs_report.obj
 0001:0000f190       __crt_debugger_hook        0000000180010190 f   LIBCMT:utility_desktop.obj
 0001:0000f198       __scrt_fastfail            0000000180010198 f   LIBCMT:utility_desktop.obj
 0001:0000f2e0       ??0bad_array_new_length@std@@QEAA@AEBV01@@Z 00000001800102e0 f i LIBCMT:throw_bad_alloc.obj
 0001:0000f320       ??0bad_array_new_length@std@@QEAA@XZ 0000000180010320 f i LIBCMT:throw_bad_alloc.obj
 0001:0000f340       ?_Xbad_alloc@std@@YAXXZ    0000000180010340 f   libcpmt:xthrow.obj
 0001:0000f340       ?__scrt_throw_std_bad_alloc@@YAXXZ 0000000180010340 f   LIBCMT:throw_bad_alloc.obj
 0001:0000f360       ?__scrt_throw_std_bad_array_new_length@@YAXXZ 0000000180010360 f   LIBCMT:throw_bad_alloc.obj
 0001:0000f380       __isa_available_init       0000000180010380 f   LIBCMT:_cpu_disp_.obj
 0001:0000f548       __scrt_is_ucrt_dll_in_use  0000000180010548 f   LIBCMT:ucrt_detection.obj
 0001:0000f554       __security_init_cookie     0000000180010554 f   LIBCMT:gs_support.obj
 0001:0000f600       ?__scrt_initialize_type_info@@YAXXZ 0000000180010600 f   LIBCMT:tncleanup.obj
 0001:0000f610       ?__scrt_uninitialize_type_info@@YAXXZ 0000000180010610 f   LIBCMT:tncleanup.obj
 0001:0000f61c       __scrt_initialize_default_local_stdio_options 000000018001061c f   LIBCMT:default_local_stdio_options.obj
 0001:0000f638       __scrt_get_dyn_tls_init_callback 0000000180010638 f   LIBCMT:dyn_tls_init.obj
 0001:0000f640       _RTC_Initialize            0000000180010640 f   LIBCMT:_initsect_.obj
 0001:0000f68c       _RTC_Terminate             000000018001068c f   LIBCMT:_initsect_.obj
 0001:0000f6f0       memmove                    00000001800106f0 f   libvcruntime:memcpy.obj
 0001:0000f6f0       memcpy                     00000001800106f0 f   libvcruntime:memcpy.obj
 0001:0000fb28       _purecall                  0000000180010b28 f   libvcruntime:purevirt.obj
 0001:0000fb64       memchr                     0000000180010b64 f   libvcruntime:memchr.obj
 0001:0000fb80       __DestructExceptionObject  0000000180010b80 f   libvcruntime:frame.obj
 0001:0000fc08       ??0bad_exception@std@@QEAA@AEBV01@@Z 0000000180010c08 f i libvcruntime:frame.obj
 0001:0000fc48       ??0bad_exception@std@@QEAA@XZ 0000000180010c48 f i libvcruntime:frame.obj
 0001:0000fc68       ??1bad_exception@std@@UEAA@XZ 0000000180010c68 f i libvcruntime:frame.obj
 0001:0000fc68       ??1length_error@std@@UEAA@XZ 0000000180010c68 f i libcpmt:xthrow.obj
 0001:0000fc68       ??1bad_array_new_length@std@@UEAA@XZ 0000000180010c68 f i LIBCMT:throw_bad_alloc.obj
 0001:0000fc68       ??1out_of_range@std@@UEAA@XZ 0000000180010c68 f i libcpmt:xthrow.obj
 0001:0000fc68       ??1bad_alloc@std@@UEAA@XZ  0000000180010c68 f i libcpmt:xthrow.obj
 0001:0000fc7c       ??_Eout_of_range@std@@UEAAPEAXI@Z 0000000180010c7c f i libcpmt:xthrow.obj
 0001:0000fc7c       ??_Glogic_error@std@@UEAAPEAXI@Z 0000000180010c7c f i libcpmt:xthrow.obj
 0001:0000fc7c       ??_Elogic_error@std@@UEAAPEAXI@Z 0000000180010c7c f i libcpmt:xthrow.obj
 0001:0000fc7c       ??_Eexception@std@@UEAAPEAXI@Z 0000000180010c7c f i libcpmt:cout.obj
 0001:0000fc7c       ??_Gbad_exception@std@@UEAAPEAXI@Z 0000000180010c7c f i libvcruntime:frame.obj
 0001:0000fc7c       ??_Ebad_array_new_length@std@@UEAAPEAXI@Z 0000000180010c7c f i LIBCMT:throw_bad_alloc.obj
 0001:0000fc7c       ??_Gbad_array_new_length@std@@UEAAPEAXI@Z 0000000180010c7c f i LIBCMT:throw_bad_alloc.obj
 0001:0000fc7c       ??_Ebad_exception@std@@UEAAPEAXI@Z 0000000180010c7c f i libvcruntime:frame.obj
 0001:0000fc7c       ??_Ebad_alloc@std@@UEAAPEAXI@Z 0000000180010c7c f i libcpmt:xthrow.obj
 0001:0000fc7c       ??_Gbad_alloc@std@@UEAAPEAXI@Z 0000000180010c7c f i libcpmt:xthrow.obj
 0001:0000fc7c       ??_Gexception@std@@UEAAPEAXI@Z 0000000180010c7c f i libcpmt:cout.obj
 0001:0000fc7c       ??_Gout_of_range@std@@UEAAPEAXI@Z 0000000180010c7c f i libcpmt:xthrow.obj
 0001:0000fc7c       ??_Elength_error@std@@UEAAPEAXI@Z 0000000180010c7c f i libcpmt:xthrow.obj
 0001:0000fc7c       ??_Glength_error@std@@UEAAPEAXI@Z 0000000180010c7c f i libcpmt:xthrow.obj
 0001:0001061c       ?_CallMemberFunction0@@YAXPEAXP6AX0@Z@Z 000000018001161c f i libvcruntime:frame.obj
 0001:00010620       ?_CallMemberFunction1@@YAXPEAXP6AX0@Z0@Z 0000000180011620 f i libvcruntime:frame.obj
 0001:0001062c       ?_CallMemberFunction2@@YAXPEAXP6AX0@Z0H@Z 000000018001162c f i libvcruntime:frame.obj
 0001:0001063c       __AdjustPointer            000000018001163c f   libvcruntime:frame.obj
 0001:00010660       __BuildCatchObject         0000000180011660 f   libvcruntime:frame.obj
 0001:00010724       __BuildCatchObjectHelper   0000000180011724 f   libvcruntime:frame.obj
 0001:00010904       __CxxCallCatchBlock        0000000180011904 f   libvcruntime:frame.obj
 0001:00010af0       __FrameUnwindFilter        0000000180011af0 f   libvcruntime:frame.obj
 0001:00010b3c       __FrameUnwindToState       0000000180011b3c f   libvcruntime:frame.obj
 0001:00010cd0       __InternalCxxFrameHandler  0000000180011cd0 f   libvcruntime:frame.obj
 0001:00010f28       __TypeMatch                0000000180011f28 f   libvcruntime:frame.obj
 0001:00011068       __std_terminate            0000000180012068 f   libvcruntime:frame.obj
 0001:00011074       __std_exception_copy       0000000180012074 f   libvcruntime:std_exception.obj
 0001:00011104       __std_exception_destroy    0000000180012104 f   libvcruntime:std_exception.obj
 0001:0001112c       _CxxThrowException         000000018001212c f   libvcruntime:throw.obj
 0001:00011204       ?_ExecutionInCatch@@YAHPEAU_xDISPATCHER_CONTEXT@@PEBU_s_FuncInfo@@@Z 0000000180012204 f   libvcruntime:trnsctrl.obj
 0001:00011278       ?_GetEstablisherFrame@@YAPEA_KPEA_KPEAU_xDISPATCHER_CONTEXT@@PEBU_s_FuncInfo@@0@Z 0000000180012278 f   libvcruntime:trnsctrl.obj
 0001:00011344       ?_GetRangeOfTrysToCheck@@YAPEBU_s_TryBlockMapEntry@@PEA_KPEBU_s_FuncInfo@@HHPEAI2PEAU_xDISPATCHER_CONTEXT@@@Z 0000000180012344 f   libvcruntime:trnsctrl.obj
 0001:00011470       ?__FrameUnwindToEmptyState@@YAXPEA_KPEAU_xDISPATCHER_CONTEXT@@PEBU_s_FuncInfo@@@Z 0000000180012470 f   libvcruntime:trnsctrl.obj
 0001:00011504       ?__SehTransFilter@@YAHPEAU_EXCEPTION_POINTERS@@PEAUEHExceptionRecord@@PEA_KPEAU_CONTEXT@@PEAU_xDISPATCHER_CONTEXT@@PEBU_s_FuncInfo@@PEAH@Z 0000000180012504 f   libvcruntime:trnsctrl.obj
 0001:0001159c       _CallSETranslator          000000018001259c f   libvcruntime:trnsctrl.obj
 0001:000115f4       _CreateFrameInfo           00000001800125f4 f   libvcruntime:trnsctrl.obj
 0001:00011630       _FindAndUnlinkFrame        0000000180012630 f   libvcruntime:trnsctrl.obj
 0001:00011688       _GetImageBase              0000000180012688 f   libvcruntime:trnsctrl.obj
 0001:0001169c       _GetThrowImageBase         000000018001269c f   libvcruntime:trnsctrl.obj
 0001:000116b0       _IsExceptionObjectToBeDestroyed 00000001800126b0 f   libvcruntime:trnsctrl.obj
 0001:000116e0       _SetImageBase              00000001800126e0 f   libvcruntime:trnsctrl.obj
 0001:000116f8       _SetThrowImageBase         00000001800126f8 f   libvcruntime:trnsctrl.obj
 0001:00011710       _UnwindNestedFrames        0000000180012710 f   libvcruntime:trnsctrl.obj
 0001:00011834       __CxxFrameHandler3         0000000180012834 f   libvcruntime:trnsctrl.obj
 0001:000118d0       memset                     00000001800128d0 f   libvcruntime:memset.obj
 0001:00011a80       memcmp                     0000000180012a80 f   libvcruntime:memcmp.obj
 0001:00011d10       __vcrt_FlsAlloc            0000000180012d10 f   libvcruntime:winapi_downlevel.obj
 0001:00011d64       __vcrt_FlsFree             0000000180012d64 f   libvcruntime:winapi_downlevel.obj
 0001:00011db8       __vcrt_FlsGetValue         0000000180012db8 f   libvcruntime:winapi_downlevel.obj
 0001:00011e0c       __vcrt_FlsSetValue         0000000180012e0c f   libvcruntime:winapi_downlevel.obj
 0001:00011e74       __vcrt_InitializeCriticalSectionEx 0000000180012e74 f   libvcruntime:winapi_downlevel.obj
 0001:00011eec       __vcrt_initialize_winapi_thunks 0000000180012eec f   libvcruntime:winapi_downlevel.obj
 0001:00011f38       __vcrt_uninitialize_winapi_thunks 0000000180012f38 f   libvcruntime:winapi_downlevel.obj
 0001:00011f78       __vcrt_initialize          0000000180012f78 f   libvcruntime:initialization.obj
 0001:00011fac       __vcrt_thread_attach       0000000180012fac f   libvcruntime:initialization.obj
 0001:00011fc0       __vcrt_thread_detach       0000000180012fc0 f   libvcruntime:initialization.obj
 0001:00011fd4       __vcrt_uninitialize        0000000180012fd4 f   libvcruntime:initialization.obj
 0001:00011ff4       __vcrt_uninitialize_critical 0000000180012ff4 f   libvcruntime:initialization.obj
 0001:00012004       __C_specific_handler       0000000180013004 f   libvcruntime:_chandler_.obj
 0001:00012200       __std_type_info_compare    0000000180013200 f   libvcruntime:std_type_info.obj
 0001:00012228       __std_type_info_destroy_list 0000000180013228 f   libvcruntime:std_type_info.obj
 0001:00012254       __vcrt_initialize_pure_virtual_call_handler 0000000180013254 f   libvcruntime:purevirt_data.obj
 0001:00012278       __vcrt_freefls             0000000180013278 f   libvcruntime:per_thread_data.obj
 0001:00012298       __vcrt_freeptd             0000000180013298 f   libvcruntime:per_thread_data.obj
 0001:000122e8       __vcrt_getptd              00000001800132e8 f   libvcruntime:per_thread_data.obj
 0001:00012304       __vcrt_getptd_noexit       0000000180013304 f   libvcruntime:per_thread_data.obj
 0001:000123bc       __vcrt_initialize_ptd      00000001800133bc f   libvcruntime:per_thread_data.obj
 0001:000123fc       __vcrt_uninitialize_ptd    00000001800133fc f   libvcruntime:per_thread_data.obj
 0001:00012420       ?__GetCurrentState@@YAHPEA_KPEAU_xDISPATCHER_CONTEXT@@PEBU_s_FuncInfo@@@Z 0000000180013420 f   libvcruntime:ehstate.obj
 0001:00012448       ?__GetUnwindTryBlock@@YAHPEA_KPEAU_xDISPATCHER_CONTEXT@@PEBU_s_FuncInfo@@@Z 0000000180013448 f   libvcruntime:ehstate.obj
 0001:00012474       ?__SetState@@YAXPEA_KPEAU_xDISPATCHER_CONTEXT@@PEBU_s_FuncInfo@@H@Z 0000000180013474 f   libvcruntime:ehstate.obj
 0001:00012480       ?__SetUnwindTryBlock@@YAXPEA_KPEAU_xDISPATCHER_CONTEXT@@PEBU_s_FuncInfo@@H@Z 0000000180013480 f   libvcruntime:ehstate.obj
 0001:000124bc       ?__StateFromControlPc@@YAHPEBU_s_FuncInfo@@PEAU_xDISPATCHER_CONTEXT@@@Z 00000001800134bc f   libvcruntime:ehstate.obj
 0001:000124c4       ?__StateFromIp@@YAHPEBU_s_FuncInfo@@PEAU_xDISPATCHER_CONTEXT@@_J@Z 00000001800134c4 f   libvcruntime:ehstate.obj
 0001:00012540       _CallSettingFrame          0000000180013540 f   libvcruntime:handlers.obj
 0001:00012590       _local_unwind              0000000180013590 f   libvcruntime:_jmpuwind_.obj
 0001:000125c0       _NLG_Notify                00000001800135c0 f   libvcruntime:_jmpuwind_.obj
 0001:000125e0       __NLG_Dispatch2            00000001800135e0 f   libvcruntime:_jmpuwind_.obj
 0001:000125f0       __NLG_Return2              00000001800135f0 f   libvcruntime:_jmpuwind_.obj
 0001:000125f4       __vcrt_initialize_locks    00000001800135f4 f   libvcruntime:locks.obj
 0001:0001263c       __vcrt_uninitialize_locks  000000018001363c f   libvcruntime:locks.obj
 0001:00012674       abort                      0000000180013674 f   libucrt:abort.obj
 0001:000126cc       _fputc_nolock              00000001800136cc f   libucrt:fputc.obj
 0001:000126e4       fputc                      00000001800136e4 f   libucrt:fputc.obj
 0001:00012804       calloc                     0000000180013804 f   libucrt:calloc.obj
 0001:0001280c       __acrt_call_reportfault    000000018001380c f   libucrt:invalid_parameter.obj
 0001:00012968       __acrt_initialize_invalid_parameter_handler 0000000180013968 f   libucrt:invalid_parameter.obj
 0001:00012970       _invalid_parameter         0000000180013970 f   libucrt:invalid_parameter.obj
 0001:00012a18       _invalid_parameter_noinfo  0000000180013a18 f   libucrt:invalid_parameter.obj
 0001:00012a38       _invalid_parameter_noinfo_noreturn 0000000180013a38 f   libucrt:invalid_parameter.obj
 0001:00012a68       _invoke_watson             0000000180013a68 f   libucrt:invalid_parameter.obj
 0001:00012ab0       __acrt_stdio_flush_nolock  0000000180013ab0 f   libucrt:fflush.obj
 0001:00012b28       _fflush_nolock             0000000180013b28 f   libucrt:fflush.obj
 0001:00012b74       _flushall                  0000000180013b74 f   libucrt:fflush.obj
 0001:00012c64       fflush                     0000000180013c64 f   libucrt:fflush.obj
 0001:00012ca8       _fclose_nolock             0000000180013ca8 f   libucrt:fclose.obj
 0001:00012d2c       fclose                     0000000180013d2c f   libucrt:fclose.obj
 0001:00012d98       strcspn                    0000000180013d98 f   libucrt:strcspn.obj
 0001:00012e38       ??$?RV<lambda_7b91131dde12e1c3dfc74ff76b3f2eac>@@AEAV<lambda_dd75445284c072d0bd3768540cc698fa>@@V<lambda_16bc4ecb55b4718497c16bceaea2ceaf>@@@?$__crt_seh_guarded_call@H@@QEAAH$$QEAV<lambda_7b91131dde12e1c3dfc74ff76b3f2eac>@@AEAV<lambda_dd75445284c072d0bd3768540cc698fa>@@$$QEAV<lambda_16bc4ecb55b4718497c16bceaea2ceaf>@@@Z 0000000180013e38 f i libucrt:output.obj
 0001:00012e78       ??$?RV<lambda_aa279a7bcb127014629d5b1d62c7325d>@@AEAV<lambda_0a64b6a4deda75c01876f29c44fc5eb3>@@V<lambda_3323e69fbefe9d1a11713e670d47cdfa>@@@?$__crt_seh_guarded_call@H@@QEAAH$$QEAV<lambda_aa279a7bcb127014629d5b1d62c7325d>@@AEAV<lambda_0a64b6a4deda75c01876f29c44fc5eb3>@@$$QEAV<lambda_3323e69fbefe9d1a11713e670d47cdfa>@@@Z 0000000180013e78 f i libucrt:output.obj
 0001:00013060       ??$ensure_buffer_is_big_enough@D@formatting_buffer@__crt_stdio_output@@QEAA_N_K@Z 0000000180014060 f i libucrt:output.obj
 0001:0001310c       ??$is_wide_character_specifier@D@__crt_stdio_output@@YA_N_KDW4length_modifier@0@@Z 000000018001410c f i libucrt:output.obj
 0001:0001313c       ??$is_wide_character_specifier@_W@__crt_stdio_output@@YA_N_K_WW4length_modifier@0@@Z 000000018001413c f i libucrt:output.obj
 0001:00013180       ??$type_case_integer_parse_into_buffer@I@?$output_processor@DV?$string_output_adapter@D@__crt_stdio_output@@V?$standard_base@DV?$string_output_adapter@D@__crt_stdio_output@@@2@@__crt_stdio_output@@AEAAXII_N@Z 0000000180014180 f i libucrt:output.obj
 0001:00013180       ??$type_case_integer_parse_into_buffer@I@?$output_processor@DV?$stream_output_adapter@D@__crt_stdio_output@@V?$standard_base@DV?$stream_output_adapter@D@__crt_stdio_output@@@2@@__crt_stdio_output@@AEAAXII_N@Z 0000000180014180 f i libucrt:output.obj
 0001:00013180       ??$type_case_integer_parse_into_buffer@I@?$output_processor@_WV?$string_output_adapter@_W@__crt_stdio_output@@V?$standard_base@_WV?$string_output_adapter@_W@__crt_stdio_output@@@2@@__crt_stdio_output@@AEAAXII_N@Z 0000000180014180 f i libucrt:output.obj
 0001:00013180       ??$type_case_integer_parse_into_buffer@I@?$output_processor@_WV?$stream_output_adapter@_W@__crt_stdio_output@@V?$standard_base@_WV?$stream_output_adapter@_W@__crt_stdio_output@@@2@@__crt_stdio_output@@AEAAXII_N@Z 0000000180014180 f i libucrt:output.obj
 0001:00013180       ??$type_case_integer_parse_into_buffer@I@?$output_processor@DV?$string_output_adapter@D@__crt_stdio_output@@V?$format_validation_base@DV?$string_output_adapter@D@__crt_stdio_output@@@2@@__crt_stdio_output@@AEAAXII_N@Z 0000000180014180 f i libucrt:output.obj
 0001:0001321c       ??$type_case_integer_parse_into_buffer@_K@?$output_processor@DV?$string_output_adapter@D@__crt_stdio_output@@V?$standard_base@DV?$string_output_adapter@D@__crt_stdio_output@@@2@@__crt_stdio_output@@AEAAX_KI_N@Z 000000018001421c f i libucrt:output.obj
 0001:0001321c       ??$type_case_integer_parse_into_buffer@_K@?$output_processor@_WV?$stream_output_adapter@_W@__crt_stdio_output@@V?$standard_base@_WV?$stream_output_adapter@_W@__crt_stdio_output@@@2@@__crt_stdio_output@@AEAAX_KI_N@Z 000000018001421c f i libucrt:output.obj
 0001:0001321c       ??$type_case_integer_parse_into_buffer@_K@?$output_processor@_WV?$string_output_adapter@_W@__crt_stdio_output@@V?$standard_base@_WV?$string_output_adapter@_W@__crt_stdio_output@@@2@@__crt_stdio_output@@AEAAX_KI_N@Z 000000018001421c f i libucrt:output.obj
 0001:0001321c       ??$type_case_integer_parse_into_buffer@_K@?$output_processor@DV?$string_output_adapter@D@__crt_stdio_output@@V?$format_validation_base@DV?$string_output_adapter@D@__crt_stdio_output@@@2@@__crt_stdio_output@@AEAAX_KI_N@Z 000000018001421c f i libucrt:output.obj
 0001:0001321c       ??$type_case_integer_parse_into_buffer@_K@?$output_processor@DV?$stream_output_adapter@D@__crt_stdio_output@@V?$standard_base@DV?$stream_output_adapter@D@__crt_stdio_output@@@2@@__crt_stdio_output@@AEAAX_KI_N@Z 000000018001421c f i libucrt:output.obj
 0001:000132b8       ??$write_multiple_characters@V?$stream_output_adapter@D@__crt_stdio_output@@D@__crt_stdio_output@@YAXAEBV?$stream_output_adapter@D@0@DHQEAH@Z 00000001800142b8 f i libucrt:output.obj
 0001:0001333c       ??$write_multiple_characters@V?$stream_output_adapter@_W@__crt_stdio_output@@D@__crt_stdio_output@@YAXAEBV?$stream_output_adapter@_W@0@DHQEAH@Z 000000018001433c f i libucrt:output.obj
 0001:000133cc       ??$write_multiple_characters@V?$string_output_adapter@D@__crt_stdio_output@@D@__crt_stdio_output@@YAXAEBV?$string_output_adapter@D@0@DHQEAH@Z 00000001800143cc f i libucrt:output.obj
 0001:00013428       ??$write_multiple_characters@V?$string_output_adapter@_W@__crt_stdio_output@@D@__crt_stdio_output@@YAXAEBV?$string_output_adapter@_W@0@DHQEAH@Z 0000000180014428 f i libucrt:output.obj
 0001:00013498       ??0?$output_processor@DV?$stream_output_adapter@D@__crt_stdio_output@@V?$standard_base@DV?$stream_output_adapter@D@__crt_stdio_output@@@2@@__crt_stdio_output@@QEAA@AEBV?$stream_output_adapter@D@1@_KQEBDQEAU__crt_locale_pointers@@QEAD@Z 0000000180014498 f i libucrt:output.obj
 0001:00013498       ??0?$output_processor@DV?$string_output_adapter@D@__crt_stdio_output@@V?$standard_base@DV?$string_output_adapter@D@__crt_stdio_output@@@2@@__crt_stdio_output@@QEAA@AEBV?$string_output_adapter@D@1@_KQEBDQEAU__crt_locale_pointers@@QEAD@Z 0000000180014498 f i libucrt:output.obj
 0001:00013498       ??0?$output_processor@DV?$string_output_adapter@D@__crt_stdio_output@@V?$format_validation_base@DV?$string_output_adapter@D@__crt_stdio_output@@@2@@__crt_stdio_output@@QEAA@AEBV?$string_output_adapter@D@1@_KQEBDQEAU__crt_locale_pointers@@QEAD@Z 0000000180014498 f i libucrt:output.obj
 0001:00013514       ??0?$output_processor@_WV?$string_output_adapter@_W@__crt_stdio_output@@V?$standard_base@_WV?$string_output_adapter@_W@__crt_stdio_output@@@2@@__crt_stdio_output@@QEAA@AEBV?$string_output_adapter@_W@1@_KQEB_WQEAU__crt_locale_pointers@@QEAD@Z 0000000180014514 f i libucrt:output.obj
 0001:00013514       ??0?$output_processor@_WV?$stream_output_adapter@_W@__crt_stdio_output@@V?$standard_base@_WV?$stream_output_adapter@_W@__crt_stdio_output@@@2@@__crt_stdio_output@@QEAA@AEBV?$stream_output_adapter@_W@1@_KQEB_WQEAU__crt_locale_pointers@@QEAD@Z 0000000180014514 f i libucrt:output.obj
 0001:00013594       ??0_LocaleUpdate@@QEAA@QEAU__crt_locale_pointers@@@Z 0000000180014594 f i libucrt:output.obj
 0001:00013804       ?force_decimal_point@__crt_stdio_output@@YAXPEADQEAU__crt_locale_pointers@@@Z 0000000180014804 f i libucrt:output.obj
 0001:00013874       ?parse_int_from_format_string@?$output_processor@DV?$string_output_adapter@D@__crt_stdio_output@@V?$standard_base@DV?$string_output_adapter@D@__crt_stdio_output@@@2@@__crt_stdio_output@@AEAA_NQEAH@Z 0000000180014874 f i libucrt:output.obj
 0001:00013874       ?parse_int_from_format_string@?$output_processor@DV?$stream_output_adapter@D@__crt_stdio_output@@V?$standard_base@DV?$stream_output_adapter@D@__crt_stdio_output@@@2@@__crt_stdio_output@@AEAA_NQEAH@Z 0000000180014874 f i libucrt:output.obj
 0001:00013874       ?parse_int_from_format_string@?$output_processor@DV?$string_output_adapter@D@__crt_stdio_output@@V?$format_validation_base@DV?$string_output_adapter@D@__crt_stdio_output@@@2@@__crt_stdio_output@@AEAA_NQEAH@Z 0000000180014874 f i libucrt:output.obj
 0001:000138f8       ?parse_int_from_format_string@?$output_processor@_WV?$string_output_adapter@_W@__crt_stdio_output@@V?$standard_base@_WV?$string_output_adapter@_W@__crt_stdio_output@@@2@@__crt_stdio_output@@AEAA_NQEAH@Z 00000001800148f8 f i libucrt:output.obj
 0001:000138f8       ?parse_int_from_format_string@?$output_processor@_WV?$stream_output_adapter@_W@__crt_stdio_output@@V?$standard_base@_WV?$stream_output_adapter@_W@__crt_stdio_output@@@2@@__crt_stdio_output@@AEAA_NQEAH@Z 00000001800148f8 f i libucrt:output.obj
 0001:00013978       ?process@?$output_processor@DV?$stream_output_adapter@D@__crt_stdio_output@@V?$standard_base@DV?$stream_output_adapter@D@__crt_stdio_output@@@2@@__crt_stdio_output@@QEAAHXZ 0000000180014978 f i libucrt:output.obj
 0001:00013b88       ?process@?$output_processor@DV?$string_output_adapter@D@__crt_stdio_output@@V?$format_validation_base@DV?$string_output_adapter@D@__crt_stdio_output@@@2@@__crt_stdio_output@@QEAAHXZ 0000000180014b88 f i libucrt:output.obj
 0001:00013d9c       ?process@?$output_processor@DV?$string_output_adapter@D@__crt_stdio_output@@V?$standard_base@DV?$string_output_adapter@D@__crt_stdio_output@@@2@@__crt_stdio_output@@QEAAHXZ 0000000180014d9c f i libucrt:output.obj
 0001:00013fa0       ?process@?$output_processor@_WV?$stream_output_adapter@_W@__crt_stdio_output@@V?$standard_base@_WV?$stream_output_adapter@_W@__crt_stdio_output@@@2@@__crt_stdio_output@@QEAAHXZ 0000000180014fa0 f i libucrt:output.obj
 0001:00014218       ?process@?$output_processor@_WV?$string_output_adapter@_W@__crt_stdio_output@@V?$standard_base@_WV?$string_output_adapter@_W@__crt_stdio_output@@@2@@__crt_stdio_output@@QEAAHXZ 0000000180015218 f i libucrt:output.obj
 0001:00014494       ?state_case_normal@?$output_processor@DV?$stream_output_adapter@D@__crt_stdio_output@@V?$standard_base@DV?$stream_output_adapter@D@__crt_stdio_output@@@2@@__crt_stdio_output@@AEAA_NXZ 0000000180015494 f i libucrt:output.obj
 0001:00014504       ?state_case_normal@?$output_processor@DV?$string_output_adapter@D@__crt_stdio_output@@V?$standard_base@DV?$string_output_adapter@D@__crt_stdio_output@@@2@@__crt_stdio_output@@AEAA_NXZ 0000000180015504 f i libucrt:output.obj
 0001:00014504       ?state_case_normal@?$output_processor@DV?$string_output_adapter@D@__crt_stdio_output@@V?$format_validation_base@DV?$string_output_adapter@D@__crt_stdio_output@@@2@@__crt_stdio_output@@AEAA_NXZ 0000000180015504 f i libucrt:output.obj
 0001:00014578       ?state_case_normal_tchar@?$output_processor@DV?$stream_output_adapter@D@__crt_stdio_output@@V?$standard_base@DV?$stream_output_adapter@D@__crt_stdio_output@@@2@@__crt_stdio_output@@AEAA_ND@Z 0000000180015578 f i libucrt:output.obj
 0001:0001460c       ?state_case_normal_tchar@?$output_processor@DV?$string_output_adapter@D@__crt_stdio_output@@V?$standard_base@DV?$string_output_adapter@D@__crt_stdio_output@@@2@@__crt_stdio_output@@AEAA_ND@Z 000000018001560c f i libucrt:output.obj
 0001:0001460c       ?state_case_normal_tchar@?$output_processor@DV?$string_output_adapter@D@__crt_stdio_output@@V?$format_validation_base@DV?$string_output_adapter@D@__crt_stdio_output@@@2@@__crt_stdio_output@@AEAA_ND@Z 000000018001560c f i libucrt:output.obj
 0001:000146a4       ?state_case_size@?$output_processor@DV?$stream_output_adapter@D@__crt_stdio_output@@V?$standard_base@DV?$stream_output_adapter@D@__crt_stdio_output@@@2@@__crt_stdio_output@@AEAA_NXZ 00000001800156a4 f i libucrt:output.obj
 0001:00014820       ?state_case_size@?$output_processor@DV?$string_output_adapter@D@__crt_stdio_output@@V?$standard_base@DV?$string_output_adapter@D@__crt_stdio_output@@@2@@__crt_stdio_output@@AEAA_NXZ 0000000180015820 f i libucrt:output.obj
 0001:00014820       ?state_case_size@?$output_processor@DV?$string_output_adapter@D@__crt_stdio_output@@V?$format_validation_base@DV?$string_output_adapter@D@__crt_stdio_output@@@2@@__crt_stdio_output@@AEAA_NXZ 0000000180015820 f i libucrt:output.obj
 0001:0001499c       ?state_case_size@?$output_processor@_WV?$stream_output_adapter@_W@__crt_stdio_output@@V?$standard_base@_WV?$stream_output_adapter@_W@__crt_stdio_output@@@2@@__crt_stdio_output@@AEAA_NXZ 000000018001599c f i libucrt:output.obj
 0001:00014b40       ?state_case_size@?$output_processor@_WV?$string_output_adapter@_W@__crt_stdio_output@@V?$standard_base@_WV?$string_output_adapter@_W@__crt_stdio_output@@@2@@__crt_stdio_output@@AEAA_NXZ 0000000180015b40 f i libucrt:output.obj
 0001:00014ce4       ?state_case_type@?$output_processor@DV?$stream_output_adapter@D@__crt_stdio_output@@V?$standard_base@DV?$stream_output_adapter@D@__crt_stdio_output@@@2@@__crt_stdio_output@@AEAA_NXZ 0000000180015ce4 f i libucrt:output.obj
 0001:00014f60       ?state_case_type@?$output_processor@DV?$string_output_adapter@D@__crt_stdio_output@@V?$format_validation_base@DV?$string_output_adapter@D@__crt_stdio_output@@@2@@__crt_stdio_output@@AEAA_NXZ 0000000180015f60 f i libucrt:output.obj
 0001:00014f60       ?state_case_type@?$output_processor@DV?$string_output_adapter@D@__crt_stdio_output@@V?$standard_base@DV?$string_output_adapter@D@__crt_stdio_output@@@2@@__crt_stdio_output@@AEAA_NXZ 0000000180015f60 f i libucrt:output.obj
 0001:000151dc       ?state_case_type@?$output_processor@_WV?$stream_output_adapter@_W@__crt_stdio_output@@V?$standard_base@_WV?$stream_output_adapter@_W@__crt_stdio_output@@@2@@__crt_stdio_output@@AEAA_NXZ 00000001800161dc f i libucrt:output.obj
 0001:000154a8       ?state_case_type@?$output_processor@_WV?$string_output_adapter@_W@__crt_stdio_output@@V?$standard_base@_WV?$string_output_adapter@_W@__crt_stdio_output@@@2@@__crt_stdio_output@@AEAA_NXZ 00000001800164a8 f i libucrt:output.obj
 0001:00015774       ?type_case_Z@?$output_processor@DV?$stream_output_adapter@D@__crt_stdio_output@@V?$standard_base@DV?$stream_output_adapter@D@__crt_stdio_output@@@2@@__crt_stdio_output@@AEAA_NXZ 0000000180016774 f i libucrt:output.obj
 0001:00015774       ?type_case_Z@?$output_processor@DV?$string_output_adapter@D@__crt_stdio_output@@V?$format_validation_base@DV?$string_output_adapter@D@__crt_stdio_output@@@2@@__crt_stdio_output@@AEAA_NXZ 0000000180016774 f i libucrt:output.obj
 0001:00015774       ?type_case_Z@?$output_processor@DV?$string_output_adapter@D@__crt_stdio_output@@V?$standard_base@DV?$string_output_adapter@D@__crt_stdio_output@@@2@@__crt_stdio_output@@AEAA_NXZ 0000000180016774 f i libucrt:output.obj
 0001:000157f4       ?type_case_Z@?$output_processor@_WV?$stream_output_adapter@_W@__crt_stdio_output@@V?$standard_base@_WV?$stream_output_adapter@_W@__crt_stdio_output@@@2@@__crt_stdio_output@@AEAA_NXZ 00000001800167f4 f i libucrt:output.obj
 0001:000157f4       ?type_case_Z@?$output_processor@_WV?$string_output_adapter@_W@__crt_stdio_output@@V?$standard_base@_WV?$string_output_adapter@_W@__crt_stdio_output@@@2@@__crt_stdio_output@@AEAA_NXZ 00000001800167f4 f i libucrt:output.obj
 0001:00015874       ?type_case_a@?$output_processor@DV?$stream_output_adapter@D@__crt_stdio_output@@V?$standard_base@DV?$stream_output_adapter@D@__crt_stdio_output@@@2@@__crt_stdio_output@@AEAA_NXZ 0000000180016874 f i libucrt:output.obj
 0001:00015874       ?type_case_a@?$output_processor@DV?$string_output_adapter@D@__crt_stdio_output@@V?$format_validation_base@DV?$string_output_adapter@D@__crt_stdio_output@@@2@@__crt_stdio_output@@AEAA_NXZ 0000000180016874 f i libucrt:output.obj
 0001:00015874       ?type_case_a@?$output_processor@DV?$string_output_adapter@D@__crt_stdio_output@@V?$standard_base@DV?$string_output_adapter@D@__crt_stdio_output@@@2@@__crt_stdio_output@@AEAA_NXZ 0000000180016874 f i libucrt:output.obj
 0001:00015a90       ?type_case_a@?$output_processor@_WV?$string_output_adapter@_W@__crt_stdio_output@@V?$standard_base@_WV?$string_output_adapter@_W@__crt_stdio_output@@@2@@__crt_stdio_output@@AEAA_NXZ 0000000180016a90 f i libucrt:output.obj
 0001:00015a90       ?type_case_a@?$output_processor@_WV?$stream_output_adapter@_W@__crt_stdio_output@@V?$standard_base@_WV?$stream_output_adapter@_W@__crt_stdio_output@@@2@@__crt_stdio_output@@AEAA_NXZ 0000000180016a90 f i libucrt:output.obj
 0001:00015cd4       ?type_case_c_tchar@?$output_processor@DV?$string_output_adapter@D@__crt_stdio_output@@V?$standard_base@DV?$string_output_adapter@D@__crt_stdio_output@@@2@@__crt_stdio_output@@AEAA_ND@Z 0000000180016cd4 f i libucrt:output.obj
 0001:00015cd4       ?type_case_c_tchar@?$output_processor@DV?$string_output_adapter@D@__crt_stdio_output@@V?$format_validation_base@DV?$string_output_adapter@D@__crt_stdio_output@@@2@@__crt_stdio_output@@AEAA_ND@Z 0000000180016cd4 f i libucrt:output.obj
 0001:00015cd4       ?type_case_c_tchar@?$output_processor@DV?$stream_output_adapter@D@__crt_stdio_output@@V?$standard_base@DV?$stream_output_adapter@D@__crt_stdio_output@@@2@@__crt_stdio_output@@AEAA_ND@Z 0000000180016cd4 f i libucrt:output.obj
 0001:00015d88       ?type_case_c_tchar@?$output_processor@_WV?$stream_output_adapter@_W@__crt_stdio_output@@V?$standard_base@_WV?$stream_output_adapter@_W@__crt_stdio_output@@@2@@__crt_stdio_output@@AEAA_N_W@Z 0000000180016d88 f i libucrt:output.obj
 0001:00015d88       ?type_case_c_tchar@?$output_processor@_WV?$string_output_adapter@_W@__crt_stdio_output@@V?$standard_base@_WV?$string_output_adapter@_W@__crt_stdio_output@@@2@@__crt_stdio_output@@AEAA_N_W@Z 0000000180016d88 f i libucrt:output.obj
 0001:00015e30       ?type_case_integer@?$output_processor@DV?$string_output_adapter@D@__crt_stdio_output@@V?$standard_base@DV?$string_output_adapter@D@__crt_stdio_output@@@2@@__crt_stdio_output@@AEAA_NI_N@Z 0000000180016e30 f i libucrt:output.obj
 0001:00015e30       ?type_case_integer@?$output_processor@DV?$string_output_adapter@D@__crt_stdio_output@@V?$format_validation_base@DV?$string_output_adapter@D@__crt_stdio_output@@@2@@__crt_stdio_output@@AEAA_NI_N@Z 0000000180016e30 f i libucrt:output.obj
 0001:00015e30       ?type_case_integer@?$output_processor@DV?$stream_output_adapter@D@__crt_stdio_output@@V?$standard_base@DV?$stream_output_adapter@D@__crt_stdio_output@@@2@@__crt_stdio_output@@AEAA_NI_N@Z 0000000180016e30 f i libucrt:output.obj
 0001:00015e30       ?type_case_integer@?$output_processor@_WV?$stream_output_adapter@_W@__crt_stdio_output@@V?$standard_base@_WV?$stream_output_adapter@_W@__crt_stdio_output@@@2@@__crt_stdio_output@@AEAA_NI_N@Z 0000000180016e30 f i libucrt:output.obj
 0001:00015e30       ?type_case_integer@?$output_processor@_WV?$string_output_adapter@_W@__crt_stdio_output@@V?$standard_base@_WV?$string_output_adapter@_W@__crt_stdio_output@@@2@@__crt_stdio_output@@AEAA_NI_N@Z 0000000180016e30 f i libucrt:output.obj
 0001:00015fd0       ?type_case_n@?$output_processor@_WV?$stream_output_adapter@_W@__crt_stdio_output@@V?$standard_base@_WV?$stream_output_adapter@_W@__crt_stdio_output@@@2@@__crt_stdio_output@@AEAA_NXZ 0000000180016fd0 f i libucrt:output.obj
 0001:00015fd0       ?type_case_n@?$output_processor@_WV?$string_output_adapter@_W@__crt_stdio_output@@V?$standard_base@_WV?$string_output_adapter@_W@__crt_stdio_output@@@2@@__crt_stdio_output@@AEAA_NXZ 0000000180016fd0 f i libucrt:output.obj
 0001:00015fd0       ?type_case_n@?$output_processor@DV?$string_output_adapter@D@__crt_stdio_output@@V?$format_validation_base@DV?$string_output_adapter@D@__crt_stdio_output@@@2@@__crt_stdio_output@@AEAA_NXZ 0000000180016fd0 f i libucrt:output.obj
 0001:00015fd0       ?type_case_n@?$output_processor@DV?$string_output_adapter@D@__crt_stdio_output@@V?$standard_base@DV?$string_output_adapter@D@__crt_stdio_output@@@2@@__crt_stdio_output@@AEAA_NXZ 0000000180016fd0 f i libucrt:output.obj
 0001:00015fd0       ?type_case_n@?$output_processor@DV?$stream_output_adapter@D@__crt_stdio_output@@V?$standard_base@DV?$stream_output_adapter@D@__crt_stdio_output@@@2@@__crt_stdio_output@@AEAA_NXZ 0000000180016fd0 f i libucrt:output.obj
 0001:000160ac       ?type_case_s@?$output_processor@DV?$stream_output_adapter@D@__crt_stdio_output@@V?$standard_base@DV?$stream_output_adapter@D@__crt_stdio_output@@@2@@__crt_stdio_output@@AEAA_NXZ 00000001800170ac f i libucrt:output.obj
 0001:000160ac       ?type_case_s@?$output_processor@DV?$string_output_adapter@D@__crt_stdio_output@@V?$format_validation_base@DV?$string_output_adapter@D@__crt_stdio_output@@@2@@__crt_stdio_output@@AEAA_NXZ 00000001800170ac f i libucrt:output.obj
 0001:000160ac       ?type_case_s@?$output_processor@DV?$string_output_adapter@D@__crt_stdio_output@@V?$standard_base@DV?$string_output_adapter@D@__crt_stdio_output@@@2@@__crt_stdio_output@@AEAA_NXZ 00000001800170ac f i libucrt:output.obj
 0001:0001613c       ?type_case_s@?$output_processor@_WV?$string_output_adapter@_W@__crt_stdio_output@@V?$standard_base@_WV?$string_output_adapter@_W@__crt_stdio_output@@@2@@__crt_stdio_output@@AEAA_NXZ 000000018001713c f i libucrt:output.obj
 0001:0001613c       ?type_case_s@?$output_processor@_WV?$stream_output_adapter@_W@__crt_stdio_output@@V?$standard_base@_WV?$stream_output_adapter@_W@__crt_stdio_output@@@2@@__crt_stdio_output@@AEAA_NXZ 000000018001713c f i libucrt:output.obj
 0001:00016204       ?validate_stream_is_ansi_if_required@?$__acrt_stdio_char_traits@D@@SA_NQEAU_iobuf@@@Z 0000000180017204 f i libucrt:output.obj
 0001:00016290       ?write_stored_string_tchar@?$output_processor@DV?$stream_output_adapter@D@__crt_stdio_output@@V?$standard_base@DV?$stream_output_adapter@D@__crt_stdio_output@@@2@@__crt_stdio_output@@AEAA_ND@Z 0000000180017290 f i libucrt:output.obj
 0001:00016368       ?write_stored_string_tchar@?$output_processor@DV?$string_output_adapter@D@__crt_stdio_output@@V?$standard_base@DV?$string_output_adapter@D@__crt_stdio_output@@@2@@__crt_stdio_output@@AEAA_ND@Z 0000000180017368 f i libucrt:output.obj
 0001:00016368       ?write_stored_string_tchar@?$output_processor@DV?$string_output_adapter@D@__crt_stdio_output@@V?$format_validation_base@DV?$string_output_adapter@D@__crt_stdio_output@@@2@@__crt_stdio_output@@AEAA_ND@Z 0000000180017368 f i libucrt:output.obj
 0001:00016440       ?write_stored_string_tchar@?$output_processor@_WV?$stream_output_adapter@_W@__crt_stdio_output@@V?$standard_base@_WV?$stream_output_adapter@_W@__crt_stdio_output@@@2@@__crt_stdio_output@@AEAA_N_W@Z 0000000180017440 f i libucrt:output.obj
 0001:0001652c       ?write_stored_string_tchar@?$output_processor@_WV?$string_output_adapter@_W@__crt_stdio_output@@V?$standard_base@_WV?$string_output_adapter@_W@__crt_stdio_output@@@2@@__crt_stdio_output@@AEAA_N_W@Z 000000018001752c f i libucrt:output.obj
 0001:0001661c       ?write_string@?$stream_output_adapter@D@__crt_stdio_output@@QEBAXQEBDHQEAH1@Z 000000018001761c f i libucrt:output.obj
 0001:00016714       ?write_string@?$stream_output_adapter@_W@__crt_stdio_output@@QEBAXQEB_WHQEAH1@Z 0000000180017714 f i libucrt:output.obj
 0001:00016820       ?write_string@?$string_output_adapter@D@__crt_stdio_output@@QEBAXQEBDHQEAH1@Z 0000000180017820 f i libucrt:output.obj
 0001:000168dc       ?write_string@?$string_output_adapter@_W@__crt_stdio_output@@QEBAXQEB_WHQEAH1@Z 00000001800178dc f i libucrt:output.obj
 0001:0001699c       __stdio_common_vfprintf    000000018001799c f   libucrt:output.obj
 0001:00016a28       __stdio_common_vfwprintf   0000000180017a28 f   libucrt:output.obj
 0001:00016ab4       __stdio_common_vsprintf    0000000180017ab4 f   libucrt:output.obj
 0001:00016ce8       __stdio_common_vsprintf_s  0000000180017ce8 f   libucrt:output.obj
 0001:00016d4c       __stdio_common_vswprintf   0000000180017d4c f   libucrt:output.obj
 0001:00016f84       _fgetc_nolock              0000000180017f84 f   libucrt:fgetc.obj
 0001:00016fc8       fgetc                      0000000180017fc8 f   libucrt:fgetc.obj
 0001:000170cc       __acrt_initialize_stdio    00000001800180cc f   libucrt:_file.obj
 0001:000171ec       __acrt_iob_func            00000001800181ec f   libucrt:_file.obj
 0001:00017200       __acrt_uninitialize_stdio  0000000180018200 f   libucrt:_file.obj
 0001:0001725c       _get_stream_buffer_pointers 000000018001825c f   libucrt:_file.obj
 0001:000172a4       _lock_file                 00000001800182a4 f   libucrt:_file.obj
 0001:000172b0       _unlock_file               00000001800182b0 f   libucrt:_file.obj
 0001:000172bc       localeconv                 00000001800182bc f   libucrt:localeconv.obj
 0001:00017300       strncmp                    0000000180018300 f   libucrt:strncmp.obj
 0001:00017380       ??$?RV<lambda_5d4c3fee44080f75d5d9762853974fe0>@@AEAV<lambda_532e024f4337e6fc7ad266c2bef9f4ed>@@V<lambda_c87bdc10097eb2402edb8ba9bdf0697b>@@@?$__crt_seh_guarded_call@_K@@QEAA_K$$QEAV<lambda_5d4c3fee44080f75d5d9762853974fe0>@@AEAV<lambda_532e024f4337e6fc7ad266c2bef9f4ed>@@$$QEAV<lambda_c87bdc10097eb2402edb8ba9bdf0697b>@@@Z 0000000180018380 f i libucrt:fwrite.obj
 0001:00017424       _fwrite_nolock             0000000180018424 f   libucrt:fwrite.obj
 0001:000175c0       fwrite                     00000001800185c0 f   libucrt:fwrite.obj
 0001:00017644       __acrt_errno_from_os_error 0000000180018644 f   libucrt:errno.obj
 0001:0001768c       __acrt_errno_map_os_error  000000018001868c f   libucrt:errno.obj
 0001:000176dc       __doserrno                 00000001800186dc f   libucrt:errno.obj
 0001:000176fc       _errno                     00000001800186fc f   libucrt:errno.obj
 0001:0001771c       fgetpos                    000000018001871c f   libucrt:fgetpos.obj
 0001:00017768       ??$?RV<lambda_7a5ef57ff966f610505f1d28a3d40618>@@AEAV<lambda_b721fa326cdb32351d23dfa67958c160>@@V<lambda_5e0fb27672408a07956fe59e48ccb2aa>@@@?$__crt_seh_guarded_call@H@@QEAAH$$QEAV<lambda_7a5ef57ff966f610505f1d28a3d40618>@@AEAV<lambda_b721fa326cdb32351d23dfa67958c160>@@$$QEAV<lambda_5e0fb27672408a07956fe59e48ccb2aa>@@@Z 0000000180018768 f i libucrt:setvbuf.obj
 0001:00017898       setvbuf                    0000000180018898 f   libucrt:setvbuf.obj
 0001:00017938       free                       0000000180018938 f   libucrt:free.obj
 0001:00017940       _ungetc_nolock             0000000180018940 f   libucrt:ungetc.obj
 0001:00017a50       ungetc                     0000000180018a50 f   libucrt:ungetc.obj
 0001:00017ab0       frexp                      0000000180018ab0 f   libucrt:frexp.obj
 0001:00017edc       _wcstombs_s_l              0000000180018edc f   libucrt:wcstombs.obj
 0001:00017fc8       wcstombs_s                 0000000180018fc8 f   libucrt:wcstombs.obj
 0001:00017fe8       fsetpos                    0000000180018fe8 f   libucrt:fsetpos.obj
 0001:00018294       _fseeki64                  0000000180019294 f   libucrt:fseek.obj
 0001:0001829c       fseek                      000000018001929c f   libucrt:fseek.obj
 0001:00018c8c       ??$ftprintf@PEAU_iobuf@@PEB_WAEBQEB_WAEBQEB_WAEBI@?$__crt_char_traits@_W@@SAH$$QEAPEAU_iobuf@@$$QEAPEB_WAEBQEB_W2AEBI@Z 0000000180019c8c f i libucrt:assert.obj
 0001:00018cb4       _wassert                   0000000180019cb4 f   libucrt:assert.obj
 0001:00018d38       fwprintf                   0000000180019d38 f i libucrt:assert.obj
 0001:00018d7c       swprintf                   0000000180019d7c f i libucrt:assert.obj
 0001:00018dd0       malloc                     0000000180019dd0 f   libucrt:malloc.obj
 0001:00019008       __acrt_initialize_thread_local_exit_callback 000000018001a008 f   libucrt:exit.obj
 0001:00019010       _cexit                     000000018001a010 f   libucrt:exit.obj
 0001:00019020       _exit                      000000018001a020 f   libucrt:exit.obj
 0001:0001902c       _is_c_termination_complete 000000018001a02c f   libucrt:exit.obj
 0001:00019034       exit                       000000018001a034 f   libucrt:exit.obj
 0001:00019040       ??$?RV<lambda_c36588078e9f5dfd39652860aa6b3aaf>@@AEAV<lambda_ec61778202f4f5fc7e7711acc23c3bca>@@V<lambda_dc9d2797ccde5d239b4a0efae8ebd7db>@@@?$__crt_seh_guarded_call@P6AXH@Z@@QEAAP6AXH@Z$$QEAV<lambda_c36588078e9f5dfd39652860aa6b3aaf>@@AEAV<lambda_ec61778202f4f5fc7e7711acc23c3bca>@@$$QEAV<lambda_dc9d2797ccde5d239b4a0efae8ebd7db>@@@Z 000000018001a040 f i libucrt:signal.obj
 0001:00019088       __acrt_get_sigabrt_handler 000000018001a088 f   libucrt:signal.obj
 0001:000190b8       __acrt_initialize_signal_handlers 000000018001a0b8 f   libucrt:signal.obj
 0001:000190d8       raise                      000000018001a0d8 f   libucrt:signal.obj
 0001:00019374       ??$is_overflow_condition@_K@__crt_strtox@@YA_NI_K@Z 000000018001a374 f i libucrt:input.obj
 0001:000193ac       ??$make_input_adapter_character_source@V?$string_input_adapter@D@__crt_stdio_input@@@__crt_strtox@@YA?AV?$input_adapter_character_source@V?$string_input_adapter@D@__crt_stdio_input@@@0@QEAV?$string_input_adapter@D@__crt_stdio_input@@_KQEA_N@Z 000000018001a3ac f i libucrt:input.obj
 0001:000193cc       ??$parse_floating_point@V?$input_adapter_character_source@V?$string_input_adapter@D@__crt_stdio_input@@@__crt_strtox@@M@__crt_strtox@@YA?AW4SLD_STATUS@@QEAU__crt_locale_pointers@@V?$input_adapter_character_source@V?$string_input_adapter@D@__crt_stdio_input@@@0@QEAM@Z 000000018001a3cc f i libucrt:input.obj
 0001:00019474       ??$parse_floating_point@V?$input_adapter_character_source@V?$string_input_adapter@D@__crt_stdio_input@@@__crt_strtox@@N@__crt_strtox@@YA?AW4SLD_STATUS@@QEAU__crt_locale_pointers@@V?$input_adapter_character_source@V?$string_input_adapter@D@__crt_stdio_input@@@0@QEAN@Z 000000018001a474 f i libucrt:input.obj
 0001:0001951c       ??$parse_floating_point_from_source@V?$input_adapter_character_source@V?$string_input_adapter@D@__crt_stdio_input@@@__crt_strtox@@@__crt_strtox@@YA?AW4floating_point_parse_result@0@QEAU__crt_locale_pointers@@AEAV?$input_adapter_character_source@V?$string_input_adapter@D@__crt_stdio_input@@@0@AEAUfloating_point_string@0@@Z 000000018001a51c f i libucrt:input.obj
 0001:00019cfc       ??$parse_floating_point_possible_infinity@DV?$input_adapter_character_source@V?$string_input_adapter@D@__crt_stdio_input@@@__crt_strtox@@_K@__crt_strtox@@YA?AW4floating_point_parse_result@0@AEADAEAV?$input_adapter_character_source@V?$string_input_adapter@D@__crt_stdio_input@@@0@_K@Z 000000018001acfc f i libucrt:input.obj
 0001:00019eac       ??$parse_floating_point_possible_nan@DV?$input_adapter_character_source@V?$string_input_adapter@D@__crt_stdio_input@@@__crt_strtox@@_K@__crt_strtox@@YA?AW4floating_point_parse_result@0@AEADAEAV?$input_adapter_character_source@V?$string_input_adapter@D@__crt_stdio_input@@@0@_K@Z 000000018001aeac f i libucrt:input.obj
 0001:0001a11c       ??$parse_floating_point_possible_nan_is_ind@DV?$input_adapter_character_source@V?$string_input_adapter@D@__crt_stdio_input@@@__crt_strtox@@@__crt_strtox@@YA_NAEADAEAV?$input_adapter_character_source@V?$string_input_adapter@D@__crt_stdio_input@@@0@@Z 000000018001b11c f i libucrt:input.obj
 0001:0001a194       ??$parse_floating_point_possible_nan_is_snan@DV?$input_adapter_character_source@V?$string_input_adapter@D@__crt_stdio_input@@@__crt_strtox@@@__crt_strtox@@YA_NAEADAEAV?$input_adapter_character_source@V?$string_input_adapter@D@__crt_stdio_input@@@0@@Z 000000018001b194 f i libucrt:input.obj
 0001:0001a20c       ??$parse_floating_point_write_result@M@__crt_strtox@@YA?AW4SLD_STATUS@@W4floating_point_parse_result@0@AEBUfloating_point_string@0@QEAM@Z 000000018001b20c f i libucrt:input.obj
 0001:0001a324       ??$parse_floating_point_write_result@N@__crt_strtox@@YA?AW4SLD_STATUS@@W4floating_point_parse_result@0@AEBUfloating_point_string@0@QEAN@Z 000000018001b324 f i libucrt:input.obj
 0001:0001a44c       ??$parse_integer@_KV?$input_adapter_character_source@V?$string_input_adapter@D@__crt_stdio_input@@@__crt_strtox@@@__crt_strtox@@YA_KQEAU__crt_locale_pointers@@V?$input_adapter_character_source@V?$string_input_adapter@D@__crt_stdio_input@@@0@H_N@Z 000000018001b44c f i libucrt:input.obj
 0001:0001a8e0       ??$process_floating_point_specifier_t@M@?$input_processor@DV?$string_input_adapter@D@__crt_stdio_input@@@__crt_stdio_input@@AEAA_NXZ 000000018001b8e0 f i libucrt:input.obj
 0001:0001a988       ??$process_floating_point_specifier_t@N@?$input_processor@DV?$string_input_adapter@D@__crt_stdio_input@@@__crt_stdio_input@@AEAA_NXZ 000000018001b988 f i libucrt:input.obj
 0001:0001aa30       ??$process_string_specifier_tchar@D@?$input_processor@DV?$string_input_adapter@D@__crt_stdio_input@@@__crt_stdio_input@@AEAA_NW4conversion_mode@1@D@Z 000000018001ba30 f i libucrt:input.obj
 0001:0001abf8       ??$process_string_specifier_tchar@_W@?$input_processor@DV?$string_input_adapter@D@__crt_stdio_input@@@__crt_stdio_input@@AEAA_NW4conversion_mode@1@_W@Z 000000018001bbf8 f i libucrt:input.obj
 0001:0001adf8       ??$skip_whitespace@Vstring_input_adapter@__crt_stdio_input@@D@__crt_stdio_input@@YAHAEAV?$string_input_adapter@D@0@QEAU__crt_locale_pointers@@@Z 000000018001bdf8 f i libucrt:input.obj
 0001:0001aee8       ?advance@?$format_string_parser@D@__crt_stdio_input@@QEAA_NXZ 000000018001bee8 f i libucrt:input.obj
 0001:0001b0b8       ?as_double@floating_point_value@__crt_strtox@@QEBAAEANXZ 000000018001c0b8 f i libucrt:input.obj
 0001:0001b0f4       ?as_float@floating_point_value@__crt_strtox@@QEBAAEAMXZ 000000018001c0f4 f i libucrt:input.obj
 0001:0001b130       ?assemble_floating_point_value@__crt_strtox@@YA?AW4SLD_STATUS@@_KH_N1AEBVfloating_point_value@1@@Z 000000018001c130 f i libucrt:input.obj
 0001:0001b4e4       ?assemble_floating_point_value_from_big_integer@__crt_strtox@@YA?AW4SLD_STATUS@@AEBUbig_integer@1@I_N1AEBVfloating_point_value@1@@Z 000000018001c4e4 f i libucrt:input.obj
 0001:0001b670       ?convert_decimal_string_to_floating_type_common@__crt_strtox@@YA?AW4SLD_STATUS@@AEBUfloating_point_string@1@AEBVfloating_point_value@1@@Z 000000018001c670 f i libucrt:input.obj
 0001:0001d434       ?convert_hexadecimal_string_to_floating_type_common@__crt_strtox@@YA?AW4SLD_STATUS@@AEBUfloating_point_string@1@AEBVfloating_point_value@1@@Z 000000018001e434 f i libucrt:input.obj
 0001:0001d4f0       ?divide@__crt_strtox@@YA_KAEAUbig_integer@1@AEBU21@@Z 000000018001e4f0 f i libucrt:input.obj
 0001:0001d9c0       ?length@?$format_string_parser@D@__crt_stdio_input@@QEBA_KXZ 000000018001e9c0 f i libucrt:input.obj
 0001:0001da5c       ?process@?$input_processor@DV?$string_input_adapter@D@__crt_stdio_input@@@__crt_stdio_input@@QEAAHXZ 000000018001ea5c f i libucrt:input.obj
 0001:0001db4c       ?process_conversion_specifier@?$input_processor@DV?$string_input_adapter@D@__crt_stdio_input@@@__crt_stdio_input@@AEAA_NXZ 000000018001eb4c f i libucrt:input.obj
 0001:0001dc70       ?process_floating_point_specifier@?$input_processor@DV?$string_input_adapter@D@__crt_stdio_input@@@__crt_stdio_input@@AEAA_NXZ 000000018001ec70 f i libucrt:input.obj
 0001:0001dce0       ?process_integer_specifier@?$input_processor@DV?$string_input_adapter@D@__crt_stdio_input@@@__crt_stdio_input@@AEAA_NI_N@Z 000000018001ece0 f i libucrt:input.obj
 0001:0001dd90       ?process_literal_character_tchar@?$input_processor@DV?$string_input_adapter@D@__crt_stdio_input@@@__crt_stdio_input@@AEAA_ND@Z 000000018001ed90 f i libucrt:input.obj
 0001:0001de1c       ?process_state@?$input_processor@DV?$string_input_adapter@D@__crt_stdio_input@@@__crt_stdio_input@@AEAA_NXZ 000000018001ee1c f i libucrt:input.obj
 0001:0001ded0       ?process_string_specifier@?$input_processor@DV?$string_input_adapter@D@__crt_stdio_input@@@__crt_stdio_input@@AEAA_NW4conversion_mode@2@@Z 000000018001eed0 f i libucrt:input.obj
 0001:0001df5c       ?scan_conversion_specifier@?$format_string_parser@D@__crt_stdio_input@@AEAA_NXZ 000000018001ef5c f i libucrt:input.obj
 0001:0001e118       ?scan_optional_field_width@?$format_string_parser@D@__crt_stdio_input@@AEAA_NXZ 000000018001f118 f i libucrt:input.obj
 0001:0001e1c0       ?scan_optional_length_modifier@?$format_string_parser@D@__crt_stdio_input@@AEAAXXZ 000000018001f1c0 f i libucrt:input.obj
 0001:0001e2ec       ?scan_scanset_range@?$format_string_parser@D@__crt_stdio_input@@AEAA_NXZ 000000018001f2ec f i libucrt:input.obj
 0001:0001e480       ?write_character@?$input_processor@DV?$string_input_adapter@D@__crt_stdio_input@@@__crt_stdio_input@@AEAA_NQEFA_W_KAEAPEFA_WAEA_KD@Z 000000018001f480 f i libucrt:input.obj
 0001:0001e51c       ?write_integer@?$input_processor@DV?$string_input_adapter@D@__crt_stdio_input@@@__crt_stdio_input@@AEAA_N_K_N@Z 000000018001f51c f i libucrt:input.obj
 0001:0001e5a0       __stdio_common_vsscanf     000000018001f5a0 f   libucrt:input.obj
 0001:0001e7dc       getenv                     000000018001f7dc f   libucrt:getenv.obj
 0001:0001e87c       _time64                    000000018001f87c f   libucrt:time.obj
 0001:0001e8bc       __ascii_stricmp            000000018001f8bc f   libucrt:stricmp.obj
 0001:0001e8f8       _stricmp                   000000018001f8f8 f   libucrt:stricmp.obj
 0001:0001e940       _stricmp_l                 000000018001f940 f   libucrt:stricmp.obj
 0001:0001e9f4       __acrt_initialize_locks    000000018001f9f4 f   libucrt:locks.obj
 0001:0001ea3c       __acrt_lock                000000018001fa3c f   libucrt:locks.obj
 0001:0001ea58       __acrt_uninitialize_locks  000000018001fa58 f   libucrt:locks.obj
 0001:0001ea90       __acrt_unlock              000000018001fa90 f   libucrt:locks.obj
 0001:0001eaac       _lock_locales              000000018001faac f   libucrt:locks.obj
 0001:0001eabc       _unlock_locales            000000018001fabc f   libucrt:locks.obj
 0001:0001ebb4       setlocale                  000000018001fbb4 f   libucrt:setlocale.obj
 0001:0001ee50       _fsopen                    000000018001fe50 f   libucrt:fopen.obj
 0001:0001ee58       _calloc_base               000000018001fe58 f   libucrt:calloc_base.obj
 0001:0001eed0       __pctype_func              000000018001fed0 f   libucrt:ctype.obj
 0001:0001ef00       isdigit                    000000018001ff00 f i libucrt:_ctype.obj
 0001:0001ef74       islower                    000000018001ff74 f i libucrt:_ctype.obj
 0001:0001efe8       isspace                    000000018001ffe8 f i libucrt:_ctype.obj
 0001:0001f05c       isupper                    000000018002005c f i libucrt:_ctype.obj
 0001:0001f0d0       _wcsdup                    00000001800200d0 f   libucrt:wcsdup.obj
 0001:0001f154       ___lc_codepage_func        0000000180020154 f   libucrt:initctype.obj
 0001:0001f184       ___lc_locale_name_func     0000000180020184 f   libucrt:initctype.obj
 0001:0001f1b8       ___mb_cur_max_func         00000001800201b8 f   libucrt:initctype.obj
 0001:0001f1e8       __acrt_locale_initialize_ctype 00000001800201e8 f   libucrt:initctype.obj
 0001:0001f834       _ismbblead                 0000000180020834 f   libucrt:ismbbyte.obj
 0001:0001f848       _malloc_base               0000000180020848 f   libucrt:malloc_base.obj
 0001:0001f8a8       _realloc_base              00000001800208a8 f   libucrt:realloc_base.obj
 0001:0001f930       pow                        0000000180020930 f   libucrt:pow.obj
 0001:00020fd0       powf                       0000000180021fd0 f   libucrt:powf.obj
 0001:00021e98       __strncnt                  0000000180022e98 f   libucrt:strncnt.obj
 0001:00021eb0       _free_base                 0000000180022eb0 f   libucrt:free_base.obj
 0001:00021f40       _tolower_l                 0000000180022f40 f   libucrt:tolower_toupper.obj
 0001:00022080       tolower                    0000000180023080 f   libucrt:tolower_toupper.obj
 0001:000220ac       wcscpy_s                   00000001800230ac f   libucrt:wcscpy_s.obj
 0001:00022114       strnlen                    0000000180023114 f   libucrt:strnlen.obj
 0001:00022270       wcsnlen                    0000000180023270 f   libucrt:strnlen.obj
 0001:00022460       __acrt_initialize_new_handler 0000000180023460 f   libucrt:new_handler.obj
 0001:00022468       _callnewh                  0000000180023468 f   libucrt:new_handler.obj
 0001:000224a8       _query_new_handler         00000001800234a8 f   libucrt:new_handler.obj
 0001:000224dc       _seh_filter_dll            00000001800234dc f   libucrt:exception_filter.obj
 0001:000224f0       _seh_filter_exe            00000001800234f0 f   libucrt:exception_filter.obj
 0001:0002283c       __acrt_allocate_buffer_for_argv 000000018002383c f   libucrt:argv_parsing.obj
 0001:000228a0       _configure_narrow_argv     00000001800238a0 f   libucrt:argv_parsing.obj
 0001:00022d18       __dcrt_get_or_create_narrow_environment_nolock 0000000180023d18 f   libucrt:environment_initialization.obj
 0001:00022d20       __dcrt_uninitialize_environments_nolock 0000000180023d20 f   libucrt:environment_initialization.obj
 0001:00022d58       _initialize_narrow_environment 0000000180023d58 f   libucrt:environment_initialization.obj
 0001:00022d60       ??$?RV<lambda_b8c45f8f788dd370798f47cfe8ac3a86>@@AEAV<lambda_4e60a939b0d047cfe11ddc22648dfba9>@@V<lambda_332c3edc96d0294ec56c57d38c1cdfd5>@@@?$__crt_seh_guarded_call@H@@QEAAH$$QEAV<lambda_b8c45f8f788dd370798f47cfe8ac3a86>@@AEAV<lambda_4e60a939b0d047cfe11ddc22648dfba9>@@$$QEAV<lambda_332c3edc96d0294ec56c57d38c1cdfd5>@@@Z 0000000180023d60 f i libucrt:onexit.obj
 0001:00022d9c       ??$?RV<lambda_e24bbb7b643b32fcea6fa61b31d4c984>@@AEAV<lambda_275893d493268fdec8709772e3fcec0e>@@V<lambda_9d71df4d7cf3f480f8d633942495c3b0>@@@?$__crt_seh_guarded_call@H@@QEAAH$$QEAV<lambda_e24bbb7b643b32fcea6fa61b31d4c984>@@AEAV<lambda_275893d493268fdec8709772e3fcec0e>@@$$QEAV<lambda_9d71df4d7cf3f480f8d633942495c3b0>@@@Z 0000000180023d9c f i libucrt:onexit.obj
 0001:00023118       _crt_atexit                0000000180024118 f   libucrt:onexit.obj
 0001:00023128       _execute_onexit_table      0000000180024128 f   libucrt:onexit.obj
 0001:00023164       _initialize_onexit_table   0000000180024164 f   libucrt:onexit.obj
 0001:000231a4       _register_onexit_function  00000001800241a4 f   libucrt:onexit.obj
 0001:00023320       __acrt_initialize          0000000180024320 f   libucrt:initialization.obj
 0001:00023334       __acrt_thread_attach       0000000180024334 f   libucrt:initialization.obj
 0001:00023348       __acrt_thread_detach       0000000180024348 f   libucrt:initialization.obj
 0001:00023358       __acrt_uninitialize        0000000180024358 f   libucrt:initialization.obj
 0001:0002336c       __acrt_uninitialize_critical 000000018002436c f   libucrt:initialization.obj
 0001:0002337c       _initterm                  000000018002437c f   libucrt:initterm.obj
 0001:000233f4       _initterm_e                00000001800243f4 f   libucrt:initterm.obj
 0001:00023440       terminate                  0000000180024440 f   libucrt:terminate.obj
 0001:00023468       strcpy_s                   0000000180024468 f   libucrt:strcpy_s.obj
 0001:000234c8       ??$is_overflow_condition@K@__crt_strtox@@YA_NIK@Z 00000001800244c8 f i libucrt:atox.obj
 0001:000234f4       ??$make_c_string_character_source@DPEAPEAD@__crt_strtox@@YA?AV?$c_string_character_source@D@0@QEBDQEAPEAD@Z 00000001800244f4 f i libucrt:strtod.obj
 0001:000234f4       ??$make_c_string_character_source@_W$$T@__crt_strtox@@YA?AV?$c_string_character_source@_W@0@QEB_W$$T@Z 00000001800244f4 f i libucrt:atox.obj
 0001:000234f4       ??$make_c_string_character_source@_WPEAPEA_W@__crt_strtox@@YA?AV?$c_string_character_source@_W@0@QEB_WQEAPEA_W@Z 00000001800244f4 f i libucrt:strtod.obj
 0001:00023508       ??$parse_integer@KV?$c_string_character_source@D@__crt_strtox@@@__crt_strtox@@YAKQEAU__crt_locale_pointers@@V?$c_string_character_source@D@0@H_N@Z 0000000180024508 f i libucrt:atox.obj
 0001:0002381c       ??$parse_integer@KV?$c_string_character_source@_W@__crt_strtox@@@__crt_strtox@@YAKQEAU__crt_locale_pointers@@V?$c_string_character_source@_W@0@H_N@Z 000000018002481c f i libucrt:atox.obj
 0001:00023ef0       ??$parse_integer@_KV?$c_string_character_source@D@__crt_strtox@@@__crt_strtox@@YA_KQEAU__crt_locale_pointers@@V?$c_string_character_source@D@0@H_N@Z 0000000180024ef0 f i libucrt:atox.obj
 0001:00024224       _wtol                      0000000180025224 f   libucrt:atox.obj
 0001:00024250       _fileno                    0000000180025250 f   libucrt:fileno.obj
 0001:00024488       __acrt_stdio_flush_and_write_narrow_nolock 0000000180025488 f   libucrt:_flsbuf.obj
 0001:00024570       __acrt_stdio_flush_and_write_wide_nolock 0000000180025570 f   libucrt:_flsbuf.obj
 0001:00024844       __acrt_initialize_lowio    0000000180025844 f   libucrt:ioinit.obj
 0001:00024880       __acrt_uninitialize_lowio  0000000180025880 f   libucrt:ioinit.obj
 0001:000248c0       ??$?RV<lambda_46352004c1216016012b18bd6f87e700>@@AEAV<lambda_3bd07e1a1191394380780325891bf33f>@@V<lambda_334532d3f185bcaa59b5be82d7d22bff>@@@?$__crt_seh_guarded_call@X@@QEAAX$$QEAV<lambda_46352004c1216016012b18bd6f87e700>@@AEAV<lambda_3bd07e1a1191394380780325891bf33f>@@$$QEAV<lambda_334532d3f185bcaa59b5be82d7d22bff>@@@Z 00000001800258c0 f i libucrt:per_thread_data.obj
 0001:00024920       ??$?RV<lambda_5e887d1dcbef67a5eb4283622ba103bf>@@AEAV<lambda_4466841279450cc726390878d4a41900>@@V<lambda_341c25c0346d94847f1f3c463c57e077>@@@?$__crt_seh_guarded_call@X@@QEAAX$$QEAV<lambda_5e887d1dcbef67a5eb4283622ba103bf>@@AEAV<lambda_4466841279450cc726390878d4a41900>@@$$QEAV<lambda_341c25c0346d94847f1f3c463c57e077>@@@Z 0000000180025920 f i libucrt:per_thread_data.obj
 0001:00024968       ??$?RV<lambda_72d1df2b273a38828b1ce30cbf4cdab5>@@AEAV<lambda_876a65b173b8412d3a47c70a915b0cf4>@@V<lambda_41932305e351933ebe8f8be3ed8bb5dc>@@@?$__crt_seh_guarded_call@X@@QEAAX$$QEAV<lambda_72d1df2b273a38828b1ce30cbf4cdab5>@@AEAV<lambda_876a65b173b8412d3a47c70a915b0cf4>@@$$QEAV<lambda_41932305e351933ebe8f8be3ed8bb5dc>@@@Z 0000000180025968 f i libucrt:per_thread_data.obj
 0001:000249a8       ??$?RV<lambda_fb3a7dec4e47f37f22dae91bb15c9095>@@AEAV<lambda_698284760c8add0bfb0756c19673e34b>@@V<lambda_dfb8eca1e75fef3034a8fb18dd509707>@@@?$__crt_seh_guarded_call@X@@QEAAX$$QEAV<lambda_fb3a7dec4e47f37f22dae91bb15c9095>@@AEAV<lambda_698284760c8add0bfb0756c19673e34b>@@$$QEAV<lambda_dfb8eca1e75fef3034a8fb18dd509707>@@@Z 00000001800259a8 f i libucrt:per_thread_data.obj
 0001:00024c38       __acrt_freeptd             0000000180025c38 f   libucrt:per_thread_data.obj
 0001:00024c7c       __acrt_getptd              0000000180025c7c f   libucrt:per_thread_data.obj
 0001:00024d10       __acrt_getptd_noexit       0000000180025d10 f   libucrt:per_thread_data.obj
 0001:00024db0       __acrt_initialize_ptd      0000000180025db0 f   libucrt:per_thread_data.obj
 0001:00024dec       __acrt_uninitialize_ptd    0000000180025dec f   libucrt:per_thread_data.obj
 0001:00024e10       ??$?RV<lambda_b521505b218e5242e90febf6bfebc422>@@AEAV<lambda_6978c1fb23f02e42e1d9e99668cc68aa>@@V<lambda_314360699dd331753a4119843814e9a7>@@@?$__crt_seh_guarded_call@H@@QEAAH$$QEAV<lambda_b521505b218e5242e90febf6bfebc422>@@AEAV<lambda_6978c1fb23f02e42e1d9e99668cc68aa>@@$$QEAV<lambda_314360699dd331753a4119843814e9a7>@@@Z 0000000180025e10 f i libucrt:commit.obj
 0001:00024e9c       _commit                    0000000180025e9c f   libucrt:commit.obj
 0001:000254d0       _write                     00000001800264d0 f   libucrt:write.obj
 0001:000255bc       _write_nolock              00000001800265bc f   libucrt:write.obj
 0001:000258a0       ??$?RV<lambda_bfedae4ebbf01fab1bb6dcc6a9e276e0>@@AEAV<lambda_2fe9b910cf3cbf4a0ab98a02ba45b3ec>@@V<lambda_237c231691f317818eb88cc1d5d642d6>@@@?$__crt_seh_guarded_call@H@@QEAAH$$QEAV<lambda_bfedae4ebbf01fab1bb6dcc6a9e276e0>@@AEAV<lambda_2fe9b910cf3cbf4a0ab98a02ba45b3ec>@@$$QEAV<lambda_237c231691f317818eb88cc1d5d642d6>@@@Z 00000001800268a0 f i libucrt:close.obj
 0001:00025914       _close                     0000000180026914 f   libucrt:close.obj
 0001:000259b8       _close_nolock              00000001800269b8 f   libucrt:close.obj
 0001:00025a74       ?__acrt_stdio_allocate_stream@@YA?AV__crt_stdio_stream@@XZ 0000000180026a74 f   libucrt:stream.obj
 0001:00025ad0       ?__acrt_stdio_free_stream@@YAXV__crt_stdio_stream@@@Z 0000000180026ad0 f   libucrt:stream.obj
 0001:00025c00       __acrt_stdio_free_buffer_nolock 0000000180026c00 f   libucrt:_freebuf.obj
 0001:00025c40       strtol                     0000000180026c40 f   libucrt:strtox.obj
 0001:00025c70       strtoull                   0000000180026c70 f   libucrt:strtox.obj
 0001:00025ca0       wcstol                     0000000180026ca0 f   libucrt:strtox.obj
 0001:00025cd0       _mbtowc_l                  0000000180026cd0 f   libucrt:mbtowc.obj
 0001:00025e18       mbtowc                     0000000180026e18 f   libucrt:mbtowc.obj
 0001:00025e20       _wctomb_s_l                0000000180026e20 f   libucrt:wctomb.obj
 0001:00025fa4       wctomb_s                   0000000180026fa4 f   libucrt:wctomb.obj
 0001:00025fb8       __acrt_update_locale_info  0000000180026fb8 f   libucrt:locale_update.obj
 0001:00025fec       __acrt_update_multibyte_info 0000000180026fec f   libucrt:locale_update.obj
 0001:00026020       ?__acrt_fp_classify@@YA?AW4__acrt_fp_class@@AEBN@Z 0000000180027020 f i libucrt:cvt.obj
 0001:00026a58       __acrt_fp_format           0000000180027a58 f   libucrt:cvt.obj
 0001:00026c9c       _fputwc_nolock             0000000180027c9c f   libucrt:fputwc.obj
 0001:00026e18       _get_printf_count_output   0000000180027e18 f   libucrt:printf_count_output.obj
 0001:00026e30       __acrt_stdio_begin_temporary_buffering_nolock 0000000180027e30 f   libucrt:_sftbuf.obj
 0001:00026f00       __acrt_stdio_end_temporary_buffering_nolock 0000000180027f00 f   libucrt:_sftbuf.obj
 0001:00026f3c       ??$?RV<lambda_5df02c53a8f32f81fd64e5bbb78039f1>@@AEAV<lambda_2af78c5f5901b1372d98f9ab3177dfa6>@@AEAV<lambda_f51fe5fd7c79a33db34fc9310f277369>@@@?$__crt_seh_guarded_call@X@@QEAAX$$QEAV<lambda_5df02c53a8f32f81fd64e5bbb78039f1>@@AEAV<lambda_2af78c5f5901b1372d98f9ab3177dfa6>@@AEAV<lambda_f51fe5fd7c79a33db34fc9310f277369>@@@Z 0000000180027f3c f i libucrt:wsetlocale.obj
 0001:00026f68       ??$?RV<lambda_d67e8342c384adda8f857579ab50b2ae>@@AEAV<lambda_30712929f77e709619002f448b6a9510>@@V<lambda_4525336fd7e478d965fb7ca7a337cad8>@@@?$__crt_seh_guarded_call@X@@QEAAX$$QEAV<lambda_d67e8342c384adda8f857579ab50b2ae>@@AEAV<lambda_30712929f77e709619002f448b6a9510>@@$$QEAV<lambda_4525336fd7e478d965fb7ca7a337cad8>@@@Z 0000000180027f68 f i libucrt:wsetlocale.obj
 0001:00027134       __acrt_copy_locale_name    0000000180028134 f   libucrt:wsetlocale.obj
 0001:000271b8       __acrt_set_locale_changed  00000001800281b8 f   libucrt:wsetlocale.obj
 0001:000271c4       __acrt_uninitialize_locale 00000001800281c4 f   libucrt:wsetlocale.obj
 0001:0002720c       __lc_lctowcs               000000018002820c f   libucrt:wsetlocale.obj
 0001:000272b0       __lc_wcstolc               00000001800282b0 f   libucrt:wsetlocale.obj
 0001:00027528       _expandlocale              0000000180028528 f   libucrt:wsetlocale.obj
 0001:00027924       _wcscats                   0000000180028924 f   libucrt:wsetlocale.obj
 0001:0002798c       _wsetlocale                000000018002898c f   libucrt:wsetlocale.obj
 0001:00028380       __acrt_stdio_refill_and_read_narrow_nolock 0000000180029380 f   libucrt:_filbuf.obj
 0001:000283cc       ??$?RV<lambda_630b2aca97f6d20d5b5ea6529ea6b6af>@@AEAV<lambda_af91936f1d075d609f72d9d8cba980af>@@V<lambda_e82fa975f615b5c7c7b0e4d178fdae67>@@@?$__crt_seh_guarded_call@H@@QEAAH$$QEAV<lambda_630b2aca97f6d20d5b5ea6529ea6b6af>@@AEAV<lambda_af91936f1d075d609f72d9d8cba980af>@@$$QEAV<lambda_e82fa975f615b5c7c7b0e4d178fdae67>@@@Z 00000001800293cc f i libucrt:winapi_thunks.obj
 0001:00028604       __acrt_AreFileApisANSI     0000000180029604 f   libucrt:winapi_thunks.obj
 0001:00028650       __acrt_CompareStringEx     0000000180029650 f   libucrt:winapi_thunks.obj
 0001:00028740       __acrt_EnumSystemLocalesEx 0000000180029740 f   libucrt:winapi_thunks.obj
 0001:000287e8       __acrt_FlsAlloc            00000001800297e8 f   libucrt:winapi_thunks.obj
 0001:00028840       __acrt_FlsFree             0000000180029840 f   libucrt:winapi_thunks.obj
 0001:00028898       __acrt_FlsGetValue         0000000180029898 f   libucrt:winapi_thunks.obj
 0001:000288f0       __acrt_FlsSetValue         00000001800298f0 f   libucrt:winapi_thunks.obj
 0001:00028958       __acrt_GetLocaleInfoEx     0000000180029958 f   libucrt:winapi_thunks.obj
 0001:000289f0       __acrt_GetSystemTimePreciseAsFileTime 00000001800299f0 f   libucrt:winapi_thunks.obj
 0001:00028a48       __acrt_GetUserDefaultLocaleName 0000000180029a48 f   libucrt:winapi_thunks.obj
 0001:00028abc       __acrt_InitializeCriticalSectionEx 0000000180029abc f   libucrt:winapi_thunks.obj
 0001:00028b34       __acrt_IsValidLocaleName   0000000180029b34 f   libucrt:winapi_thunks.obj
 0001:00028b9c       __acrt_LCIDToLocaleName    0000000180029b9c f   libucrt:winapi_thunks.obj
 0001:00028c28       __acrt_LCMapStringEx       0000000180029c28 f   libucrt:winapi_thunks.obj
 0001:00028d18       __acrt_LocaleNameToLCID    0000000180029d18 f   libucrt:winapi_thunks.obj
 0001:00028d80       __acrt_MessageBoxW         0000000180029d80 f   libucrt:winapi_thunks.obj
 0001:00028e08       __acrt_can_show_message_box 0000000180029e08 f   libucrt:winapi_thunks.obj
 0001:00028e64       __acrt_can_use_vista_locale_apis 0000000180029e64 f   libucrt:winapi_thunks.obj
 0001:00028e94       __acrt_get_parent_window   0000000180029e94 f   libucrt:winapi_thunks.obj
 0001:00028f24       __acrt_initialize_winapi_thunks 0000000180029f24 f   libucrt:winapi_thunks.obj
 0001:00028f5c       __acrt_is_interactive      0000000180029f5c f   libucrt:winapi_thunks.obj
 0001:00029030       __acrt_is_packaged_app     000000018002a030 f   libucrt:winapi_thunks.obj
 0001:000290b8       __acrt_uninitialize_winapi_thunks 000000018002a0b8 f   libucrt:winapi_thunks.obj
 0001:000290fc       _fcloseall                 000000018002a0fc f   libucrt:closeall.obj
 0001:0002966c       _ftelli64                  000000018002a66c f   libucrt:ftell.obj
 0001:00029674       _ftelli64_nolock           000000018002a674 f   libucrt:ftell.obj
 0001:0002967c       __acrt_stdio_allocate_buffer_nolock 000000018002a67c f   libucrt:_getbuf.obj
 0001:000296e0       _dsign                     000000018002a6e0 f   libucrt:nan.obj
 0001:000296f8       _errcode                   000000018002a6f8 f   libucrt:fpexcept.obj
 0001:0002973c       _except1                   000000018002a73c f   libucrt:fpexcept.obj
 0001:00029830       _handle_exc                000000018002a830 f   libucrt:fpexcept.obj
 0001:00029a98       _raise_exc                 000000018002aa98 f   libucrt:fpexcept.obj
 0001:00029ac0       _raise_exc_ex              000000018002aac0 f   libucrt:fpexcept.obj
 0001:00029dc8       _raise_excf                000000018002adc8 f   libucrt:fpexcept.obj
 0001:00029df4       _set_errno_from_matherr    000000018002adf4 f   libucrt:fpexcept.obj
 0001:00029e24       _umatherr                  000000018002ae24 f   libucrt:fpexcept.obj
 0001:00029ef8       _decomp                    000000018002aef8 f   libucrt:util.obj
 0001:0002a02c       _sptype                    000000018002b02c f   libucrt:util.obj
 0001:0002a0a0       _clrfp                     000000018002b0a0 f   libucrt:fpctrl.obj
 0001:0002a0c0       _ctrlfp                    000000018002b0c0 f   libucrt:fpctrl.obj
 0001:0002a13c       _set_statfp                000000018002b13c f   libucrt:fpctrl.obj
 0001:0002a15c       _statfp                    000000018002b15c f   libucrt:fpctrl.obj
 0001:0002a2fc       _lseeki64                  000000018002b2fc f   libucrt:lseek.obj
 0001:0002a304       _lseeki64_nolock           000000018002b304 f   libucrt:lseek.obj
 0001:0002a30c       _query_app_type            000000018002b30c f   libucrt:report_runtime_error.obj
 0001:0002a43c       _itow_s                    000000018002b43c f   libucrt:xtoa.obj
 0001:0002a45c       _set_error_mode            000000018002b45c f   libucrt:set_error_mode.obj
 0001:0002a49c       wcscat_s                   000000018002b49c f   libucrt:wcscat_s.obj
 0001:0002a51c       wcsncat_s                  000000018002b51c f   libucrt:wcsncat_s.obj
 0001:0002a644       __acrt_show_wide_message_box 000000018002b644 f   libucrt:crtmbox.obj
 0001:0002a760       iswctype                   000000018002b760 f   libucrt:iswctype.obj
 0001:0002a7d0       _isctype_l                 000000018002b7d0 f   libucrt:isctype.obj
 0001:0002a8e0       fegetround                 000000018002b8e0 f   libucrt:fegetround.obj
 0001:0002a8f4       _strnicoll                 000000018002b8f4 f   libucrt:strnicol.obj
 0001:0002a90c       _strnicoll_l               000000018002b90c f   libucrt:strnicol.obj
 0001:0002abe8       _mbstowcs_s_l              000000018002bbe8 f   libucrt:mbstowcs.obj
 0001:0002ad18       mbstowcs_s                 000000018002bd18 f   libucrt:mbstowcs.obj
 0001:0002ad38       ??$__acrt_stdio_parse_mode@D@@YA?AU__acrt_stdio_stream_mode@@QEBD@Z 000000018002bd38 f i libucrt:openfile.obj
 0001:0002afd4       _openfile                  000000018002bfd4 f   libucrt:openfile.obj
 0001:0002b070       _query_new_mode            000000018002c070 f   libucrt:new_mode.obj
 0001:0002b078       __acrt_initialize_heap     000000018002c078 f   libucrt:heap_handle.obj
 0001:0002b094       __acrt_uninitialize_heap   000000018002c094 f   libucrt:heap_handle.obj
 0001:0002b240       __acrt_GetLocaleInfoA      000000018002c240 f   libucrt:getlocaleinfoa.obj
 0001:0002b408       __acrt_GetStringTypeA      000000018002c408 f   libucrt:getstringtypea.obj
 0001:0002b918       __acrt_LCMapStringA        000000018002c918 f   libucrt:lcmapstringa.obj
 0001:0002b9b0       __acrt_initialize_fma3     000000018002c9b0 f   libucrt:fma3_available.obj
 0001:0002ba20       _pow_special               000000018002ca20 f   libucrt:pow_special.obj
 0001:0002bb44       _powf_special              000000018002cb44 f   libucrt:pow_special.obj
 0001:0002bcd0       _wcsicmp                   000000018002ccd0 f   libucrt:wcsicmp.obj
 0001:0002bd58       _wcsicmp_l                 000000018002cd58 f   libucrt:wcsicmp.obj
 0001:0002be48       __acrt_initialize_timeset  000000018002ce48 f   libucrt:timeset.obj
 0001:0002be78       _isleadbyte_l              000000018002ce78 f i libucrt:_wctype.obj
 0001:0002c394       ?expand_if_necessary@?$argument_list@D@?A0xca0879c4@@AEAAHXZ 000000018002d394 f i libucrt:argv_wildcards.obj
 0001:0002c45c       __acrt_expand_narrow_argv_wildcards 000000018002d45c f   libucrt:argv_wildcards.obj
 0001:0002c464       ??$?RV<lambda_99476a1ad63dd22509b5d3e65b0ffc95>@@AEAV<lambda_ad1ced32f4ac17aa236e5ef05d6b3b7c>@@V<lambda_f7424dd8d45958661754dc4f2697e9c3>@@@?$__crt_seh_guarded_call@X@@QEAAX$$QEAV<lambda_99476a1ad63dd22509b5d3e65b0ffc95>@@AEAV<lambda_ad1ced32f4ac17aa236e5ef05d6b3b7c>@@$$QEAV<lambda_f7424dd8d45958661754dc4f2697e9c3>@@@Z 000000018002d464 f i libucrt:mbctype.obj
 0001:0002cb60       __acrt_initialize_multibyte 000000018002db60 f   libucrt:mbctype.obj
 0001:0002cb88       __acrt_update_thread_multibyte_data 000000018002db88 f   libucrt:mbctype.obj
 0001:0002cc48       _setmbcp_nolock            000000018002dc48 f   libucrt:mbctype.obj
 0001:0002cef0       __acrt_initialize_command_line 000000018002def0 f   libucrt:argv_data.obj
 0001:0002cf18       __dcrt_get_narrow_environment_from_os 000000018002df18 f   libucrt:get_environment_from_os.obj
 0001:0002d3f8       __dcrt_set_variable_in_narrow_environment_nolock 000000018002e3f8 f   libucrt:setenv.obj
 0001:0002d400       _recalloc                  000000018002e400 f   libucrt:recalloc.obj
 0001:0002d408       _recalloc_base             000000018002e408 f   libucrt:recalloc.obj
 0001:0002d4a0       __acrt_execute_initializers 000000018002e4a0 f   libucrt:shared_initialization.obj
 0001:0002d534       __acrt_execute_uninitializers 000000018002e534 f   libucrt:shared_initialization.obj
 0001:0002d584       __acrt_has_user_matherr    000000018002e584 f   libucrt:matherr.obj
 0001:0002d5a4       __acrt_initialize_user_matherr 000000018002e5a4 f   libucrt:matherr.obj
 0001:0002d5ac       __acrt_invoke_user_matherr 000000018002e5ac f   libucrt:matherr.obj
 0001:0002d5f4       _isatty                    000000018002e5f4 f   libucrt:isatty.obj
 0001:0002d654       __acrt_lowio_create_handle_array 000000018002e654 f   libucrt:osfinfo.obj
 0001:0002d6ec       __acrt_lowio_destroy_handle_array 000000018002e6ec f   libucrt:osfinfo.obj
 0001:0002d73c       __acrt_lowio_ensure_fh_exists 000000018002e73c f   libucrt:osfinfo.obj
 0001:0002d7f4       __acrt_lowio_lock_fh       000000018002e7f4 f   libucrt:osfinfo.obj
 0001:0002d818       __acrt_lowio_set_os_handle 000000018002e818 f   libucrt:osfinfo.obj
 0001:0002d8d8       __acrt_lowio_unlock_fh     000000018002e8d8 f   libucrt:osfinfo.obj
 0001:0002d8fc       _alloc_osfhnd              000000018002e8fc f   libucrt:osfinfo.obj
 0001:0002da2c       _free_osfhnd               000000018002ea2c f   libucrt:osfinfo.obj
 0001:0002dae8       _get_osfhandle             000000018002eae8 f   libucrt:osfinfo.obj
 0001:0002db60       __acrt_add_locale_ref      000000018002eb60 f   libucrt:locale_refcounting.obj
 0001:0002dbec       __acrt_free_locale         000000018002ebec f   libucrt:locale_refcounting.obj
 0001:0002dd64       __acrt_locale_add_lc_time_reference 000000018002ed64 f   libucrt:locale_refcounting.obj
 0001:0002dd8c       __acrt_locale_free_lc_time_if_unreferenced 000000018002ed8c f   libucrt:locale_refcounting.obj
 0001:0002ddc4       __acrt_locale_release_lc_time_reference 000000018002edc4 f   libucrt:locale_refcounting.obj
 0001:0002ddec       __acrt_release_locale_ref  000000018002edec f   libucrt:locale_refcounting.obj
 0001:0002de94       __acrt_update_thread_locale_data 000000018002ee94 f   libucrt:locale_refcounting.obj
 0001:0002df04       _updatetlocinfoEx_nolock   000000018002ef04 f   libucrt:locale_refcounting.obj
 0001:0002df6c       _putwch_nolock             000000018002ef6c f   libucrt:putwch.obj
 0001:0002dfc8       __acrt_fp_strflt_to_string 000000018002efc8 f   libucrt:_fptostr.obj
 0001:0002e088       __acrt_fltout              000000018002f088 f   libucrt:cfout.obj
 0001:0002f47c       __acrt_locale_free_monetary 000000018003047c f   libucrt:initmon.obj
 0001:0002f588       __acrt_locale_initialize_monetary 0000000180030588 f   libucrt:initmon.obj
 0001:0002fac0       __acrt_locale_free_numeric 0000000180030ac0 f   libucrt:initnum.obj
 0001:0002fb2c       __acrt_locale_initialize_numeric 0000000180030b2c f   libucrt:initnum.obj
 0001:000301b0       __acrt_locale_free_time    00000001800311b0 f   libucrt:inittime.obj
 0001:000302b8       __acrt_locale_initialize_time 00000001800312b8 f   libucrt:inittime.obj
 0001:0003034c       wcsncpy_s                  000000018003134c f   libucrt:wcsncpy_s.obj
 0001:00030430       wcscspn                    0000000180031430 f   libucrt:wcscspn.obj
 0001:00030470       wcsncmp                    0000000180031470 f   libucrt:wcsncmp.obj
 0001:0003049c       wcspbrk                    000000018003149c f   libucrt:wcspbrk.obj
 0001:00030d40       __acrt_get_qualified_locale 0000000180031d40 f   libucrt:get_qualified_locale.obj
 0001:0003172c       __acrt_get_qualified_locale_downlevel 000000018003272c f   libucrt:getqloc_downlevel.obj
 0001:00031eec       _read                      0000000180032eec f   libucrt:read.obj
 0001:00032004       _read_nolock               0000000180033004 f   libucrt:read.obj
 0001:00032534       __acrt_DownlevelLCIDToLocaleName 0000000180033534 f   libucrt:lcidtoname_downlevel.obj
 0001:00032618       __acrt_DownlevelLocaleNameToLCID 0000000180033618 f   libucrt:lcidtoname_downlevel.obj
 0001:00032660       _get_fpsr                  0000000180033660 f   libucrt:fpsr.obj
 0001:00032670       _set_fpsr                  0000000180033670 f   libucrt:fpsr.obj
 0001:0003267a       _fclrf                     000000018003367a f   libucrt:fpsr.obj
 0001:0003268e       _frnd                      000000018003368e f   libucrt:fpsr.obj
 0001:000326b0       _getfpcontrolword          00000001800336b0 f   libucrt:_fenvutils.obj
 0001:000326c8       _getfpstatusword           00000001800336c8 f   libucrt:_fenvutils.obj
 0001:000326dc       _setfpcontrolword          00000001800336dc f   libucrt:_fenvutils.obj
 0001:000326e8       _setfpstatusword           00000001800336e8 f   libucrt:_fenvutils.obj
 0001:00032738       __ascii_strnicmp           0000000180033738 f   libucrt:strnicmp.obj
 0001:00032780       _strnicmp                  0000000180033780 f   libucrt:strnicmp.obj
 0001:000327d0       _strnicmp_l                00000001800337d0 f   libucrt:strnicmp.obj
 0001:00032c40       __acrt_CompareStringA      0000000180033c40 f   libucrt:comparestringa.obj
 0001:00032ccc       _wcsnicmp                  0000000180033ccc f   libucrt:wcsnicmp.obj
 0001:00032d68       _wcsnicmp_l                0000000180033d68 f   libucrt:wcsnicmp.obj
 0001:000334c4       _sopen_nolock              00000001800344c4 f   libucrt:open.obj
 0001:00033554       _sopen_s                   0000000180034554 f   libucrt:open.obj
 0001:00033588       _wsopen_nolock             0000000180034588 f   libucrt:open.obj
 0001:00033978       strncpy_s                  0000000180034978 f   libucrt:strncpy_s.obj
 0001:00033b70       _handle_error              0000000180034b70 f   libucrt:libm_error.obj
 0001:00033c98       _handle_errorf             0000000180034c98 f   libucrt:libm_error.obj
 0001:00033dcc       _handle_nan                0000000180034dcc f   libucrt:libm_error.obj
 0001:00033de8       _handle_nanf               0000000180034de8 f   libucrt:libm_error.obj
 0001:00033df8       _towlower_l                0000000180034df8 f   libucrt:towlower.obj
 0001:00033f90       qsort                      0000000180034f90 f   libucrt:qsort.obj
 0001:000342c4       strpbrk                    00000001800352c4 f   libucrt:strpbrk.obj
 0001:00034364       _mbsdec                    0000000180035364 f   libucrt:mbsdec.obj
 0001:0003436c       _mbsdec_l                  000000018003536c f   libucrt:mbsdec.obj
 0001:0003441c       _msize                     000000018003541c f   libucrt:msize.obj
 0001:00034458       __dcrt_lowio_initialize_console_output 0000000180035458 f   libucrt:initcon.obj
 0001:00034494       __dcrt_terminate_console_output 0000000180035494 f   libucrt:initcon.obj
 0001:000344b4       fegetenv                   00000001800354b4 f   libucrt:fegetenv.obj
 0001:000344d4       fesetenv                   00000001800354d4 f   libucrt:fesetenv.obj
 0001:00034520       feholdexcept               0000000180035520 f   libucrt:feholdexcept.obj
 0001:00034570       ceil                       0000000180035570 f   libucrt:ceil.obj
 0001:00034640       log10                      0000000180035640 f   libucrt:log10.obj
 0001:00034bec       wcscmp                     0000000180035bec f   libucrt:wcscmp.obj
 0001:00034c24       _clearfp                   0000000180035c24 f   libucrt:ieee.obj
 0001:00034c78       _controlfp                 0000000180035c78 f   libucrt:ieee.obj
 0001:00034c84       _statusfp                  0000000180035c84 f   libucrt:ieee.obj
 0001:00034f64       _get_fmode                 0000000180035f64 f   libucrt:setmode.obj
 0001:00034f94       _setmode_nolock            0000000180035f94 f   libucrt:setmode.obj
 0001:00035074       __acrt_copy_path_to_wide_string 0000000180036074 f   libucrt:string_utilities.obj
 0001:0003516c       _chsize_nolock             000000018003616c f   libucrt:chsize.obj
 0001:000352e8       __acrt_LCMapStringW        00000001800362e8 f   libucrt:lcmapstringw.obj
 0001:00035370       _log10_special             0000000180036370 f   libucrt:log_special.obj
 0001:00035426       IsProcessorFeaturePresent  0000000180036426 f   kernel32:KERNEL32.dll
 0001:0003542c       RtlUnwindEx                000000018003642c f   kernel32:KERNEL32.dll
 0001:00035434       ?DloadAcquireSectionWriteAccess@@YAXXZ 0000000180036434 f i DelayImp:delayhlp.obj
 0001:000354f0       ?DloadGetSRWLockFunctionPointers@@YAEXZ 00000001800364f0 f i DelayImp:delayhlp.obj
 0001:0003558c       ?DloadMakePermanentImageCommit@@YAXPEAX_K@Z 000000018003658c f i DelayImp:delayhlp.obj
 0001:00035624       ?DloadObtainSection@@YAPEAXPEAK0@Z 0000000180036624 f i DelayImp:delayhlp.obj
 0001:000356bc       ?DloadProtectSection@@YAXKPEAK@Z 00000001800366bc f i DelayImp:delayhlp.obj
 0001:0003574c       ?DloadReleaseSectionWriteAccess@@YAXXZ 000000018003674c f i DelayImp:delayhlp.obj
 0001:000357f0       __delayLoadHelper2         00000001800367f0 f   DelayImp:delayhlp.obj
 0001:00035af0       _FindPESection             0000000180036af0 f   LIBCMT:pesect.obj
 0001:00035b40       _IsNonwritableInCurrentImage 0000000180036b40 f   LIBCMT:pesect.obj
 0001:00035b90       _ValidateImageBase         0000000180036b90 f   LIBCMT:pesect.obj
 0001:00035bc0       strrchr                    0000000180036bc0 f   libvcruntime:strrchr.obj
 0001:00035d00       strchr                     0000000180036d00 f   libvcruntime:strchr.obj
 0001:00035d8c       wcschr                     0000000180036d8c f   libvcruntime:wcschr.obj
 0001:00035e30       _guard_dispatch_icall_nop  0000000180036e30 f   LIBCMT:_guard_dispatch_.obj
 0001:00036490       ??__F_Static@?1???$_Immortalize@V_Iostream_error_category@std@@@std@@YAAEAV_Iostream_error_category@0@XZ@YAXXZ 0000000180037490 f i node_report.obj
 0002:00000000       __imp_GetCurrentProcess    0000000180038000     kernel32:KERNEL32.dll
 0002:00000008       __imp_lstrlenA             0000000180038008     kernel32:KERNEL32.dll
 0002:00000010       __imp_RtlCaptureStackBackTrace 0000000180038010     kernel32:KERNEL32.dll
 0002:00000018       __imp_OpenProcess          0000000180038018     kernel32:KERNEL32.dll
 0002:00000020       __imp_CloseHandle          0000000180038020     kernel32:KERNEL32.dll
 0002:00000028       __imp_GetLocalTime         0000000180038028     kernel32:KERNEL32.dll
 0002:00000030       __imp_GetCurrentProcessId  0000000180038030     kernel32:KERNEL32.dll
 0002:00000038       __imp_GetEnvironmentStrings 0000000180038038     kernel32:KERNEL32.dll
 0002:00000040       __imp_FreeEnvironmentStringsA 0000000180038040     kernel32:KERNEL32.dll
 0002:00000048       __imp_GetComputerNameA     0000000180038048     kernel32:KERNEL32.dll
 0002:00000050       __imp_GetCommandLineA      0000000180038050     kernel32:KERNEL32.dll
 0002:00000058       __imp_GetModuleHandleA     0000000180038058     kernel32:KERNEL32.dll
 0002:00000060       __imp_VirtualQuery         0000000180038060     kernel32:KERNEL32.dll
 0002:00000068       __imp_VirtualProtect       0000000180038068     kernel32:KERNEL32.dll
 0002:00000070       __imp_GetSystemInfo        0000000180038070     kernel32:KERNEL32.dll
 0002:00000078       __imp_SetEndOfFile         0000000180038078     kernel32:KERNEL32.dll
 0002:00000080       __imp_HeapSize             0000000180038080     kernel32:KERNEL32.dll
 0002:00000088       __imp_CreateFileW          0000000180038088     kernel32:KERNEL32.dll
 0002:00000090       __imp_ReadConsoleW         0000000180038090     kernel32:KERNEL32.dll
 0002:00000098       __imp_SetStdHandle         0000000180038098     kernel32:KERNEL32.dll
 0002:000000a0       __imp_SetEnvironmentVariableA 00000001800380a0     kernel32:KERNEL32.dll
 0002:000000a8       __imp_FreeEnvironmentStringsW 00000001800380a8     kernel32:KERNEL32.dll
 0002:000000b0       __imp_GetEnvironmentStringsW 00000001800380b0     kernel32:KERNEL32.dll
 0002:000000b8       __imp_GetCommandLineW      00000001800380b8     kernel32:KERNEL32.dll
 0002:000000c0       __imp_WideCharToMultiByte  00000001800380c0     kernel32:KERNEL32.dll
 0002:000000c8       __imp_EnterCriticalSection 00000001800380c8     kernel32:KERNEL32.dll
 0002:000000d0       __imp_LeaveCriticalSection 00000001800380d0     kernel32:KERNEL32.dll
 0002:000000d8       __imp_DeleteCriticalSection 00000001800380d8     kernel32:KERNEL32.dll
 0002:000000e0       __imp_EncodePointer        00000001800380e0     kernel32:KERNEL32.dll
 0002:000000e8       __imp_DecodePointer        00000001800380e8     kernel32:KERNEL32.dll
 0002:000000f0       __imp_MultiByteToWideChar  00000001800380f0     kernel32:KERNEL32.dll
 0002:000000f8       __imp_SetLastError         00000001800380f8     kernel32:KERNEL32.dll
 0002:00000100       __imp_InitializeCriticalSectionAndSpinCount 0000000180038100     kernel32:KERNEL32.dll
 0002:00000108       __imp_CreateEventW         0000000180038108     kernel32:KERNEL32.dll
 0002:00000110       __imp_TlsAlloc             0000000180038110     kernel32:KERNEL32.dll
 0002:00000118       __imp_TlsGetValue          0000000180038118     kernel32:KERNEL32.dll
 0002:00000120       __imp_TlsSetValue          0000000180038120     kernel32:KERNEL32.dll
 0002:00000128       __imp_TlsFree              0000000180038128     kernel32:KERNEL32.dll
 0002:00000130       __imp_GetSystemTimeAsFileTime 0000000180038130     kernel32:KERNEL32.dll
 0002:00000138       __imp_GetModuleHandleW     0000000180038138     kernel32:KERNEL32.dll
 0002:00000140       __imp_GetProcAddress       0000000180038140     kernel32:KERNEL32.dll
 0002:00000148       __imp_CompareStringW       0000000180038148     kernel32:KERNEL32.dll
 0002:00000150       __imp_LCMapStringW         0000000180038150     kernel32:KERNEL32.dll
 0002:00000158       __imp_GetLocaleInfoW       0000000180038158     kernel32:KERNEL32.dll
 0002:00000160       __imp_GetStringTypeW       0000000180038160     kernel32:KERNEL32.dll
 0002:00000168       __imp_GetCPInfo            0000000180038168     kernel32:KERNEL32.dll
 0002:00000170       __imp_SetEvent             0000000180038170     kernel32:KERNEL32.dll
 0002:00000178       __imp_ResetEvent           0000000180038178     kernel32:KERNEL32.dll
 0002:00000180       __imp_WaitForSingleObjectEx 0000000180038180     kernel32:KERNEL32.dll
 0002:00000188       __imp_RtlCaptureContext    0000000180038188     kernel32:KERNEL32.dll
 0002:00000190       __imp_RtlLookupFunctionEntry 0000000180038190     kernel32:KERNEL32.dll
 0002:00000198       __imp_RtlVirtualUnwind     0000000180038198     kernel32:KERNEL32.dll
 0002:000001a0       __imp_UnhandledExceptionFilter 00000001800381a0     kernel32:KERNEL32.dll
 0002:000001a8       __imp_SetUnhandledExceptionFilter 00000001800381a8     kernel32:KERNEL32.dll
 0002:000001b0       __imp_TerminateProcess     00000001800381b0     kernel32:KERNEL32.dll
 0002:000001b8       __imp_IsProcessorFeaturePresent 00000001800381b8     kernel32:KERNEL32.dll
 0002:000001c0       __imp_IsDebuggerPresent    00000001800381c0     kernel32:KERNEL32.dll
 0002:000001c8       __imp_GetStartupInfoW      00000001800381c8     kernel32:KERNEL32.dll
 0002:000001d0       __imp_QueryPerformanceCounter 00000001800381d0     kernel32:KERNEL32.dll
 0002:000001d8       __imp_GetCurrentThreadId   00000001800381d8     kernel32:KERNEL32.dll
 0002:000001e0       __imp_InitializeSListHead  00000001800381e0     kernel32:KERNEL32.dll
 0002:000001e8       __imp_RtlPcToFileHeader    00000001800381e8     kernel32:KERNEL32.dll
 0002:000001f0       __imp_RaiseException       00000001800381f0     kernel32:KERNEL32.dll
 0002:000001f8       __imp_RtlUnwindEx          00000001800381f8     kernel32:KERNEL32.dll
 0002:00000200       __imp_GetLastError         0000000180038200     kernel32:KERNEL32.dll
 0002:00000208       __imp_FreeLibrary          0000000180038208     kernel32:KERNEL32.dll
 0002:00000210       __imp_LoadLibraryExW       0000000180038210     kernel32:KERNEL32.dll
 0002:00000218       __imp_InterlockedFlushSList 0000000180038218     kernel32:KERNEL32.dll
 0002:00000220       __imp_GetStdHandle         0000000180038220     kernel32:KERNEL32.dll
 0002:00000228       __imp_GetFileType          0000000180038228     kernel32:KERNEL32.dll
 0002:00000230       __imp_GetModuleFileNameA   0000000180038230     kernel32:KERNEL32.dll
 0002:00000238       __imp_GetModuleFileNameW   0000000180038238     kernel32:KERNEL32.dll
 0002:00000240       __imp_GetModuleHandleExW   0000000180038240     kernel32:KERNEL32.dll
 0002:00000248       __imp_WriteConsoleW        0000000180038248     kernel32:KERNEL32.dll
 0002:00000250       __imp_ExitProcess          0000000180038250     kernel32:KERNEL32.dll
 0002:00000258       __imp_HeapAlloc            0000000180038258     kernel32:KERNEL32.dll
 0002:00000260       __imp_HeapReAlloc          0000000180038260     kernel32:KERNEL32.dll
 0002:00000268       __imp_HeapFree             0000000180038268     kernel32:KERNEL32.dll
 0002:00000270       __imp_FlushFileBuffers     0000000180038270     kernel32:KERNEL32.dll
 0002:00000278       __imp_WriteFile            0000000180038278     kernel32:KERNEL32.dll
 0002:00000280       __imp_GetConsoleCP         0000000180038280     kernel32:KERNEL32.dll
 0002:00000288       __imp_GetConsoleMode       0000000180038288     kernel32:KERNEL32.dll
 0002:00000290       __imp_GetACP               0000000180038290     kernel32:KERNEL32.dll
 0002:00000298       __imp_IsValidLocale        0000000180038298     kernel32:KERNEL32.dll
 0002:000002a0       __imp_GetUserDefaultLCID   00000001800382a0     kernel32:KERNEL32.dll
 0002:000002a8       __imp_EnumSystemLocalesW   00000001800382a8     kernel32:KERNEL32.dll
 0002:000002b0       __imp_ReadFile             00000001800382b0     kernel32:KERNEL32.dll
 0002:000002b8       __imp_SetFilePointerEx     00000001800382b8     kernel32:KERNEL32.dll
 0002:000002c0       __imp_OutputDebugStringW   00000001800382c0     kernel32:KERNEL32.dll
 0002:000002c8       __imp_CreateThread         00000001800382c8     kernel32:KERNEL32.dll
 0002:000002d0       __imp_GetProcessHeap       00000001800382d0     kernel32:KERNEL32.dll
 0002:000002d8       __imp_FindClose            00000001800382d8     kernel32:KERNEL32.dll
 0002:000002e0       __imp_FindFirstFileExA     00000001800382e0     kernel32:KERNEL32.dll
 0002:000002e8       __imp_FindNextFileA        00000001800382e8     kernel32:KERNEL32.dll
 0002:000002f0       __imp_IsValidCodePage      00000001800382f0     kernel32:KERNEL32.dll
 0002:000002f8       __imp_GetOEMCP             00000001800382f8     kernel32:KERNEL32.dll
 0002:00000300       __imp_LoadLibraryExA       0000000180038300     kernel32:KERNEL32.dll
 0002:00000308       \177KERNEL32_NULL_THUNK_DATA 0000000180038308     kernel32:KERNEL32.dll
 0002:00000310       __imp_NetServerGetInfo     0000000180038310     Netapi32:NETAPI32.dll
 0002:00000318       __imp_NetApiBufferFree     0000000180038318     Netapi32:NETAPI32.dll
 0002:00000320       \177NETAPI32_NULL_THUNK_DATA 0000000180038320     Netapi32:NETAPI32.dll
 0002:00000328       __imp_GetModuleFileNameExA 0000000180038328     PsApi:PSAPI.DLL
 0002:00000330       __imp_EnumProcessModules   0000000180038330     PsApi:PSAPI.DLL
 0002:00000338       \177PSAPI_NULL_THUNK_DATA  0000000180038338     PsApi:PSAPI.DLL
 0002:00000340       __imp_ntohs                0000000180038340     Ws2_32:WS2_32.dll
 0002:00000348       \177WS2_32_NULL_THUNK_DATA 0000000180038348     Ws2_32:WS2_32.dll
 0002:00000350       __imp_SymSetOptions        0000000180038350     dbghelp:dbghelp.dll
 0002:00000358       __imp_SymInitialize        0000000180038358     dbghelp:dbghelp.dll
 0002:00000360       __imp_SymGetLineFromAddr64 0000000180038360     dbghelp:dbghelp.dll
 0002:00000368       __imp_SymFromAddr          0000000180038368     dbghelp:dbghelp.dll
 0002:00000370       \177dbghelp_NULL_THUNK_DATA 0000000180038370     dbghelp:dbghelp.dll
 0002:00000378       __guard_check_icall_fptr   0000000180038378     LIBCMT:guard_support.obj
 0002:00000380       __guard_dispatch_icall_fptr 0000000180038380     LIBCMT:guard_support.obj
 0002:00000388       __xc_a                     0000000180038388     LIBCMT:initializers.obj
 0002:00000408       _register_nodereport_      0000000180038408     module.obj
 0002:00000410       __xc_z                     0000000180038410     LIBCMT:initializers.obj
 0002:00000418       __xi_a                     0000000180038418     LIBCMT:initializers.obj
 0002:00000430       __acrt_stdio_initializer   0000000180038430     libucrt:stdio_initializer.obj
 0002:00000438       __acrt_tran_fma3_initializer 0000000180038438     libucrt:fma3_initializer.obj
 0002:00000440       __acrt_timeset_initializer 0000000180038440     libucrt:timeset_initializer.obj
 0002:00000448       __acrt_multibyte_initializer 0000000180038448     libucrt:multibyte_initializer.obj
 0002:00000450       __xi_z                     0000000180038450     LIBCMT:initializers.obj
 0002:00000458       __xl_a                     0000000180038458     LIBCMT:tlssup.obj
 0002:00000460       __xl_z                     0000000180038460     LIBCMT:tlssup.obj
 0002:00000468       __xp_a                     0000000180038468     LIBCMT:initializers.obj
 0002:00000470       __acrt_locale_terminator   0000000180038470     libucrt:locale_initializer.obj
 0002:00000478       __dcrt_console_output_terminator 0000000180038478     libucrt:console_output_initializer.obj
 0002:00000480       __acrt_stdio_terminator    0000000180038480     libucrt:stdio_initializer.obj
 0002:00000488       __xp_z                     0000000180038488     LIBCMT:initializers.obj
 0002:00000490       __xt_a                     0000000180038490     LIBCMT:initializers.obj
 0002:00000498       __xt_z                     0000000180038498     LIBCMT:initializers.obj
 0002:000004a0       __sz_node_exe              00000001800384a0     node:node.exe
 0002:000004e0       ??_7exception@std@@6B@     00000001800384e0     libcpmt:cout.obj
 0002:000004f0       ??_C@_0BC@EOODALEL@Unknown?5exception?$AA@ 00000001800384f0     libcpmt:cout.obj
 0002:00000510       ??_7runtime_error@std@@6B@ 0000000180038510     libcpmt:cout.obj
 0002:00000528       ??_7_Facet_base@std@@6B@   0000000180038528     libcpmt:cout.obj
 0002:00000548       ??_7?$ctype@D@std@@6B@     0000000180038548     libcpmt:cout.obj
 0002:000005a8       ??_7error_category@std@@6B@ 00000001800385a8     libcpmt:cout.obj
 0002:000005e0       ??_7_System_error@std@@6B@ 00000001800385e0     libcpmt:cout.obj
 0002:000005f8       ??_7_Iostream_error_category@std@@6B@ 00000001800385f8     libcpmt:cout.obj
 0002:00000630       ??_7failure@ios_base@std@@6B@ 0000000180038630     libcpmt:cout.obj
 0002:00000648       ??_7ios_base@std@@6B@      0000000180038648     libcpmt:cout.obj
 0002:00000658       ??_7?$basic_streambuf@DU?$char_traits@D@std@@@std@@6B@ 0000000180038658     libcpmt:cout.obj
 0002:000006d8       ??_7?$basic_filebuf@DU?$char_traits@D@std@@@std@@6B@ 00000001800386d8     libcpmt:cout.obj
 0002:00000758       ??_7?$basic_ios@DU?$char_traits@D@std@@@std@@6B@ 0000000180038758     libcpmt:cout.obj
 0002:00000768       ??_7?$basic_ostream@DU?$char_traits@D@std@@@std@@6B@ 0000000180038768     libcpmt:cout.obj
 0002:00000778       ??_7?$codecvt@DDU_Mbstatet@@@std@@6B@ 0000000180038778     libcpmt:cout.obj
 0002:00000898       ??_7_Locimp@locale@std@@6B@ 0000000180038898     libcpmt:locale0.obj
 0002:000008b0       ??_C@_01NBENCBCI@?$CK?$AA@ 00000001800388b0     libcpmt:locale0.obj
 0002:000008b4       ??_C@_01GFHCPBMG@C?$AA@    00000001800388b4     libcpmt:locale0.obj
 0002:000008c0       ??_7bad_alloc@std@@6B@     00000001800388c0     libcpmt:xthrow.obj
 0002:000008d0       ??_C@_0P@GHFPNOJB@bad?5allocation?$AA@ 00000001800388d0     libcpmt:xthrow.obj
 0002:000008e8       ??_7logic_error@std@@6B@   00000001800388e8     libcpmt:xthrow.obj
 0002:00000900       ??_7length_error@std@@6B@  0000000180038900     libcpmt:xthrow.obj
 0002:00000918       ??_7out_of_range@std@@6B@  0000000180038918     libcpmt:xthrow.obj
 0002:00000928       ?_BADOFF@std@@3_JB         0000000180038928     libcpmt:ios.obj
 0002:000009d8       ??_C@_01KDCPPGHE@r?$AA@    00000001800389d8     libcpmt:fiopen.obj
 0002:000009dc       ??_C@_01NOFIACDB@w?$AA@    00000001800389dc     libcpmt:fiopen.obj
 0002:000009e0       ??_C@_01MCMALHOG@a?$AA@    00000001800389e0     libcpmt:fiopen.obj
 0002:000009e4       ??_C@_02JDPG@rb?$AA@       00000001800389e4     libcpmt:fiopen.obj
 0002:000009e8       ??_C@_02GMLFBBN@wb?$AA@    00000001800389e8     libcpmt:fiopen.obj
 0002:000009ec       ??_C@_02BOGAIONP@ab?$AA@   00000001800389ec     libcpmt:fiopen.obj
 0002:000009f0       ??_C@_02CBLLGHLK@r?$CL?$AA@ 00000001800389f0     libcpmt:fiopen.obj
 0002:000009f4       ??_C@_02CHHAKFFB@w?$CL?$AA@ 00000001800389f4     libcpmt:fiopen.obj
 0002:000009f8       ??_C@_02DPNLHKJD@a?$CL?$AA@ 00000001800389f8     libcpmt:fiopen.obj
 0002:000009fc       ??_C@_03HMFOOINA@r?$CLb?$AA@ 00000001800389fc     libcpmt:fiopen.obj
 0002:00000a00       ??_C@_03ELIABIOC@w?$CLb?$AA@ 0000000180038a00     libcpmt:fiopen.obj
 0002:00000a04       ??_C@_03DOPCBAKB@a?$CLb?$AA@ 0000000180038a04     libcpmt:fiopen.obj
 0002:00000a08       ?valid@?1???$_Xfiopen@D@std@@YAPEAU_iobuf@@PEBDHH@Z@4QBHB 0000000180038a08     libcpmt:fiopen.obj
 0002:00001180       ??_C@_0BN@LKKBCCDB@address?5family?5not?5supported?$AA@ 0000000180039180     libcpmt:syserror.obj
 0002:000011a0       ??_C@_0P@LDMLAFHI@address?5in?5use?$AA@ 00000001800391a0     libcpmt:syserror.obj
 0002:000011b0       ??_C@_0BG@DHPCNBJB@address?5not?5available?$AA@ 00000001800391b0     libcpmt:syserror.obj
 0002:000011c8       ??_C@_0BC@DFIBIBIL@already?5connected?$AA@ 00000001800391c8     libcpmt:syserror.obj
 0002:000011e0       ??_C@_0BH@CAKOHOMI@argument?5list?5too?5long?$AA@ 00000001800391e0     libcpmt:syserror.obj
 0002:000011f8       ??_C@_0BH@CGIMPKIM@argument?5out?5of?5domain?$AA@ 00000001800391f8     libcpmt:syserror.obj
 0002:00001210       ??_C@_0M@KGHGGJGL@bad?5address?$AA@ 0000000180039210     libcpmt:syserror.obj
 0002:00001220       ??_C@_0BE@MPJPGCEO@bad?5file?5descriptor?$AA@ 0000000180039220     libcpmt:syserror.obj
 0002:00001238       ??_C@_0M@PMMIEFCP@bad?5message?$AA@ 0000000180039238     libcpmt:syserror.obj
 0002:00001248       ??_C@_0M@KPHOFDBE@broken?5pipe?$AA@ 0000000180039248     libcpmt:syserror.obj
 0002:00001258       ??_C@_0BD@MGNDDEGM@connection?5aborted?$AA@ 0000000180039258     libcpmt:syserror.obj
 0002:00001270       ??_C@_0BP@KAIHPOGN@connection?5already?5in?5progress?$AA@ 0000000180039270     libcpmt:syserror.obj
 0002:00001290       ??_C@_0BD@PJLIIJEL@connection?5refused?$AA@ 0000000180039290     libcpmt:syserror.obj
 0002:000012a8       ??_C@_0BB@IECNJNOI@connection?5reset?$AA@ 00000001800392a8     libcpmt:syserror.obj
 0002:000012c0       ??_C@_0BC@PPHBOELF@cross?5device?5link?$AA@ 00000001800392c0     libcpmt:syserror.obj
 0002:000012d8       ??_C@_0BN@KDMIFEIP@destination?5address?5required?$AA@ 00000001800392d8     libcpmt:syserror.obj
 0002:000012f8       ??_C@_0BI@NGCEHDD@device?5or?5resource?5busy?$AA@ 00000001800392f8     libcpmt:syserror.obj
 0002:00001310       ??_C@_0BE@JIDOCPHM@directory?5not?5empty?$AA@ 0000000180039310     libcpmt:syserror.obj
 0002:00001328       ??_C@_0BI@BNCLIGPB@executable?5format?5error?$AA@ 0000000180039328     libcpmt:syserror.obj
 0002:00001340       ??_C@_0M@MIDIAGJP@file?5exists?$AA@ 0000000180039340     libcpmt:syserror.obj
 0002:00001350       ??_C@_0P@DNAJLBJK@file?5too?5large?$AA@ 0000000180039350     libcpmt:syserror.obj
 0002:00001360       ??_C@_0BC@EJHOMAAK@filename?5too?5long?$AA@ 0000000180039360     libcpmt:syserror.obj
 0002:00001378       ??_C@_0BH@KEFGLDAF@function?5not?5supported?$AA@ 0000000180039378     libcpmt:syserror.obj
 0002:00001390       ??_C@_0BB@DHFDFGDM@host?5unreachable?$AA@ 0000000180039390     libcpmt:syserror.obj
 0002:000013a8       ??_C@_0BD@JPHBMONG@identifier?5removed?$AA@ 00000001800393a8     libcpmt:syserror.obj
 0002:000013c0       ??_C@_0BG@CDNPAGJK@illegal?5byte?5sequence?$AA@ 00000001800393c0     libcpmt:syserror.obj
 0002:000013d8       ??_C@_0CD@BNPLBMNA@inappropriate?5io?5control?5operati@ 00000001800393d8     libcpmt:syserror.obj
 0002:00001400       ??_C@_0M@EGEKIIMP@interrupted?$AA@ 0000000180039400     libcpmt:syserror.obj
 0002:00001410       ??_C@_0BB@FCMFBGOM@invalid?5argument?$AA@ 0000000180039410     libcpmt:syserror.obj
 0002:00001428       ??_C@_0N@OHAFKDEK@invalid?5seek?$AA@ 0000000180039428     libcpmt:syserror.obj
 0002:00001438       ??_C@_08GLNPIFBN@io?5error?$AA@ 0000000180039438     libcpmt:syserror.obj
 0002:00001448       ??_C@_0P@FLLDBIDK@is?5a?5directory?$AA@ 0000000180039448     libcpmt:syserror.obj
 0002:00001458       ??_C@_0N@IFLPBIOP@message?5size?$AA@ 0000000180039458     libcpmt:syserror.obj
 0002:00001468       ??_C@_0N@KIIEAAIO@network?5down?$AA@ 0000000180039468     libcpmt:syserror.obj
 0002:00001478       ??_C@_0O@FNPDBHEE@network?5reset?$AA@ 0000000180039478     libcpmt:syserror.obj
 0002:00001488       ??_C@_0BE@IFNCKGE@network?5unreachable?$AA@ 0000000180039488     libcpmt:syserror.obj
 0002:000014a0       ??_C@_0BA@PFFCAOFK@no?5buffer?5space?$AA@ 00000001800394a0     libcpmt:syserror.obj
 0002:000014b0       ??_C@_0BB@IEPBLJHK@no?5child?5process?$AA@ 00000001800394b0     libcpmt:syserror.obj
 0002:000014c8       ??_C@_07PLECNNKG@no?5link?$AA@ 00000001800394c8     libcpmt:syserror.obj
 0002:000014d0       ??_C@_0BC@NJECKMKE@no?5lock?5available?$AA@ 00000001800394d0     libcpmt:syserror.obj
 0002:000014e8       ??_C@_0BF@PBGGPKKE@no?5message?5available?$AA@ 00000001800394e8     libcpmt:syserror.obj
 0002:00001500       ??_C@_0L@EDOLMPAK@no?5message?$AA@ 0000000180039500     libcpmt:syserror.obj
 0002:00001510       ??_C@_0BD@EAMBFIDF@no?5protocol?5option?$AA@ 0000000180039510     libcpmt:syserror.obj
 0002:00001528       ??_C@_0BD@IJDJKDEA@no?5space?5on?5device?$AA@ 0000000180039528     libcpmt:syserror.obj
 0002:00001540       ??_C@_0BE@MKFDAFMP@no?5stream?5resources?$AA@ 0000000180039540     libcpmt:syserror.obj
 0002:00001558       ??_C@_0BK@IMCPHCBI@no?5such?5device?5or?5address?$AA@ 0000000180039558     libcpmt:syserror.obj
 0002:00001578       ??_C@_0P@FDINDDOK@no?5such?5device?$AA@ 0000000180039578     libcpmt:syserror.obj
 0002:00001588       ??_C@_0BK@NDOCBPGE@no?5such?5file?5or?5directory?$AA@ 0000000180039588     libcpmt:syserror.obj
 0002:000015a8       ??_C@_0BA@ENLPPKBN@no?5such?5process?$AA@ 00000001800395a8     libcpmt:syserror.obj
 0002:000015b8       ??_C@_0BA@DOCPFFJG@not?5a?5directory?$AA@ 00000001800395b8     libcpmt:syserror.obj
 0002:000015c8       ??_C@_0N@POEIPGGF@not?5a?5socket?$AA@ 00000001800395c8     libcpmt:syserror.obj
 0002:000015d8       ??_C@_0N@LGAPMMPI@not?5a?5stream?$AA@ 00000001800395d8     libcpmt:syserror.obj
 0002:000015e8       ??_C@_0O@GLMIBBEG@not?5connected?$AA@ 00000001800395e8     libcpmt:syserror.obj
 0002:000015f8       ??_C@_0BC@ENOOLCNF@not?5enough?5memory?$AA@ 00000001800395f8     libcpmt:syserror.obj
 0002:00001610       ??_C@_0O@NHEDABJP@not?5supported?$AA@ 0000000180039610     libcpmt:syserror.obj
 0002:00001620       ??_C@_0BD@MOLBPMEA@operation?5canceled?$AA@ 0000000180039620     libcpmt:syserror.obj
 0002:00001638       ??_C@_0BG@KDKHOPCO@operation?5in?5progress?$AA@ 0000000180039638     libcpmt:syserror.obj
 0002:00001650       ??_C@_0BI@OHIEJAAB@operation?5not?5permitted?$AA@ 0000000180039650     libcpmt:syserror.obj
 0002:00001668       ??_C@_0BI@LNEGIFLN@operation?5not?5supported?$AA@ 0000000180039668     libcpmt:syserror.obj
 0002:00001680       ??_C@_0BG@OEMDKMEE@operation?5would?5block?$AA@ 0000000180039680     libcpmt:syserror.obj
 0002:00001698       ??_C@_0L@BLPOFLNJ@owner?5dead?$AA@ 0000000180039698     libcpmt:syserror.obj
 0002:000016a8       ??_C@_0BC@CIJDGCDI@permission?5denied?$AA@ 00000001800396a8     libcpmt:syserror.obj
 0002:000016c0       ??_C@_0P@FNPOCJBE@protocol?5error?$AA@ 00000001800396c0     libcpmt:syserror.obj
 0002:000016d0       ??_C@_0BH@JPPPLHJB@protocol?5not?5supported?$AA@ 00000001800396d0     libcpmt:syserror.obj
 0002:000016e8       ??_C@_0BG@EICBIHDP@read?5only?5file?5system?$AA@ 00000001800396e8     libcpmt:syserror.obj
 0002:00001700       ??_C@_0BO@BJBOMOEJ@resource?5deadlock?5would?5occur?$AA@ 0000000180039700     libcpmt:syserror.obj
 0002:00001720       ??_C@_0BP@LKNGHENJ@resource?5unavailable?5try?5again?$AA@ 0000000180039720     libcpmt:syserror.obj
 0002:00001740       ??_C@_0BE@GOIPJJHG@result?5out?5of?5range?$AA@ 0000000180039740     libcpmt:syserror.obj
 0002:00001758       ??_C@_0BG@MPLKFPAE@state?5not?5recoverable?$AA@ 0000000180039758     libcpmt:syserror.obj
 0002:00001770       ??_C@_0P@DIIFGFCG@stream?5timeout?$AA@ 0000000180039770     libcpmt:syserror.obj
 0002:00001780       ??_C@_0P@IPFDMIFL@text?5file?5busy?$AA@ 0000000180039780     libcpmt:syserror.obj
 0002:00001790       ??_C@_09KJPPMAOI@timed?5out?$AA@ 0000000180039790     libcpmt:syserror.obj
 0002:000017a0       ??_C@_0BO@HACHBEKI@too?5many?5files?5open?5in?5system?$AA@ 00000001800397a0     libcpmt:syserror.obj
 0002:000017c0       ??_C@_0BE@GHAFMPAH@too?5many?5files?5open?$AA@ 00000001800397c0     libcpmt:syserror.obj
 0002:000017d8       ??_C@_0P@HCOMKFCC@too?5many?5links?$AA@ 00000001800397d8     libcpmt:syserror.obj
 0002:000017e8       ??_C@_0BO@EFGOJEF@too?5many?5symbolic?5link?5levels?$AA@ 00000001800397e8     libcpmt:syserror.obj
 0002:00001808       ??_C@_0BA@KGKGOOJA@value?5too?5large?$AA@ 0000000180039808     libcpmt:syserror.obj
 0002:00001818       ??_C@_0BE@MIEJDDNH@wrong?5protocol?5type?$AA@ 0000000180039818     libcpmt:syserror.obj
 0002:00001830       ??_C@_0O@BFJCFAAK@unknown?5error?$AA@ 0000000180039830     libcpmt:syserror.obj
 0002:00001870       ??_7?$num_put@DV?$ostreambuf_iterator@DU?$char_traits@D@std@@@std@@@std@@6B@ 0000000180039870     libcpmt:locale.obj
 0002:000018d0       ??_7?$numpunct@D@std@@6B@  00000001800398d0     libcpmt:locale.obj
 0002:00001910       ??_C@_1BK@MGMFAEKH@?$AAk?$AAe?$AAr?$AAn?$AAe?$AAl?$AA3?$AA2?$AA?4?$AAd?$AAl?$AAl?$AA?$AA@ 0000000180039910     libcpmt:winapisupp.obj
 0002:00001930       ??_C@_08KNHFBNJ@FlsAlloc?$AA@ 0000000180039930     libcpmt:winapisupp.obj
 0002:00001940       ??_C@_07PEJMOBNF@FlsFree?$AA@ 0000000180039940     libcpmt:winapisupp.obj
 0002:00001948       ??_C@_0M@GDNOONDI@FlsGetValue?$AA@ 0000000180039948     libcpmt:winapisupp.obj
 0002:00001958       ??_C@_0M@JCPCPOEF@FlsSetValue?$AA@ 0000000180039958     libcpmt:winapisupp.obj
 0002:00001968       ??_C@_0BM@HCFOFFN@InitializeCriticalSectionEx?$AA@ 0000000180039968     libcpmt:winapisupp.obj
 0002:00001988       ??_C@_0BE@GPLMMCMH@InitOnceExecuteOnce?$AA@ 0000000180039988     libcpmt:winapisupp.obj
 0002:000019a0       ??_C@_0P@DLHPPCNH@CreateEventExW?$AA@ 00000001800399a0     libcpmt:winapisupp.obj
 0002:000019b0       ??_C@_0BB@MEFPJLHN@CreateSemaphoreW?$AA@ 00000001800399b0     libcpmt:winapisupp.obj
 0002:000019c8       ??_C@_0BD@KIEEOEEH@CreateSemaphoreExW?$AA@ 00000001800399c8     libcpmt:winapisupp.obj
 0002:000019e0       ??_C@_0BG@OGFAJCKC@CreateThreadpoolTimer?$AA@ 00000001800399e0     libcpmt:winapisupp.obj
 0002:000019f8       ??_C@_0BD@LPLEMMDI@SetThreadpoolTimer?$AA@ 00000001800399f8     libcpmt:winapisupp.obj
 0002:00001a10       ??_C@_0CA@FMNJENH@WaitForThreadpoolTimerCallbacks?$AA@ 0000000180039a10     libcpmt:winapisupp.obj
 0002:00001a30       ??_C@_0BF@DCFCCNOC@CloseThreadpoolTimer?$AA@ 0000000180039a30     libcpmt:winapisupp.obj
 0002:00001a48       ??_C@_0BF@FLABGKKM@CreateThreadpoolWait?$AA@ 0000000180039a48     libcpmt:winapisupp.obj
 0002:00001a60       ??_C@_0BC@MGCOHNA@SetThreadpoolWait?$AA@ 0000000180039a60     libcpmt:winapisupp.obj
 0002:00001a78       ??_C@_0BE@OCIOMIMP@CloseThreadpoolWait?$AA@ 0000000180039a78     libcpmt:winapisupp.obj
 0002:00001a90       ??_C@_0BJ@LKGHFHBO@FlushProcessWriteBuffers?$AA@ 0000000180039a90     libcpmt:winapisupp.obj
 0002:00001ab0       ??_C@_0BP@KALKKPMO@FreeLibraryWhenCallbackReturns?$AA@ 0000000180039ab0     libcpmt:winapisupp.obj
 0002:00001ad0       ??_C@_0BK@DFNBACLA@GetCurrentProcessorNumber?$AA@ 0000000180039ad0     libcpmt:winapisupp.obj
 0002:00001af0       ??_C@_0BE@FKKLLFLM@CreateSymbolicLinkW?$AA@ 0000000180039af0     libcpmt:winapisupp.obj
 0002:00001b08       ??_C@_0BE@JOGNEJCI@GetCurrentPackageId?$AA@ 0000000180039b08     libcpmt:winapisupp.obj
 0002:00001b20       ??_C@_0P@CDHHOHKP@GetTickCount64?$AA@ 0000000180039b20     libcpmt:winapisupp.obj
 0002:00001b30       ??_C@_0BN@NEEHBBPO@GetFileInformationByHandleEx?$AA@ 0000000180039b30     libcpmt:winapisupp.obj
 0002:00001b50       ??_C@_0BL@KBBHGKCM@SetFileInformationByHandle?$AA@ 0000000180039b50     libcpmt:winapisupp.obj
 0002:00001b70       ??_C@_0BP@FPNJPEJC@GetSystemTimePreciseAsFileTime?$AA@ 0000000180039b70     libcpmt:winapisupp.obj
 0002:00001b90       ??_C@_0BM@HLJJNPAH@InitializeConditionVariable?$AA@ 0000000180039b90     libcpmt:winapisupp.obj
 0002:00001bb0       ??_C@_0BG@BFNILBLN@WakeConditionVariable?$AA@ 0000000180039bb0     libcpmt:winapisupp.obj
 0002:00001bc8       ??_C@_0BJ@PGPPEPCC@WakeAllConditionVariable?$AA@ 0000000180039bc8     libcpmt:winapisupp.obj
 0002:00001be8       ??_C@_0BJ@JEBJOJFJ@SleepConditionVariableCS?$AA@ 0000000180039be8     libcpmt:winapisupp.obj
 0002:00001c08       ??_C@_0BC@MMLHEBPB@InitializeSRWLock?$AA@ 0000000180039c08     libcpmt:winapisupp.obj
 0002:00001c20       ??_C@_0BI@OMNLIJDB@AcquireSRWLockExclusive?$AA@ 0000000180039c20     libcpmt:winapisupp.obj
 0002:00001c38       ??_C@_0BL@OGHFEMNA@TryAcquireSRWLockExclusive?$AA@ 0000000180039c38     libcpmt:winapisupp.obj
 0002:00001c58       ??_C@_0BI@HMIEPCNJ@ReleaseSRWLockExclusive?$AA@ 0000000180039c58     libcpmt:winapisupp.obj
 0002:00001c70       ??_C@_0BK@LGACAGIC@SleepConditionVariableSRW?$AA@ 0000000180039c70     libcpmt:winapisupp.obj
 0002:00001c90       ??_C@_0BF@GGPHFPJA@CreateThreadpoolWork?$AA@ 0000000180039c90     libcpmt:winapisupp.obj
 0002:00001ca8       ??_C@_0BF@NHDAIMMO@SubmitThreadpoolWork?$AA@ 0000000180039ca8     libcpmt:winapisupp.obj
 0002:00001cc0       ??_C@_0BE@NPHIPNPD@CloseThreadpoolWork?$AA@ 0000000180039cc0     libcpmt:winapisupp.obj
 0002:00001cd8       ??_C@_0BA@IHGNDAEB@CompareStringEx?$AA@ 0000000180039cd8     libcpmt:winapisupp.obj
 0002:00001ce8       ??_C@_0BA@ONOKGCMP@GetLocaleInfoEx?$AA@ 0000000180039ce8     libcpmt:winapisupp.obj
 0002:00001cf8       ??_C@_0O@KKBNKAPF@LCMapStringEx?$AA@ 0000000180039cf8     libcpmt:winapisupp.obj
 0002:00001d08       ??_C@_11LOCGONAA@?$AA?$AA@ 0000000180039d08     libcpmt:wlocale.obj
 0002:00001d0c       ??_C@_01JOAMLHOP@?9?$AA@   0000000180039d0c     libcpmt:wlocale.obj
 0002:00001d10       __xmm@80000000000000008000000000000000 0000000180039d10     libcpmt:wlocale.obj
 0002:00001dc0       ??_C@_1M@JKFFICHJ@?$AAe?$AAs?$AA?9?$AAv?$AAe?$AA?$AA@ 0000000180039dc0     libcpmt:winapinls.obj
 0002:00001dd0       ??_C@_1M@PNMLOJDF@?$AAe?$AAt?$AA?9?$AAe?$AAe?$AA?$AA@ 0000000180039dd0     libcpmt:winapinls.obj
 0002:00001de0       ??_C@_1M@GHHLIKEI@?$AAe?$AAu?$AA?9?$AAe?$AAs?$AA?$AA@ 0000000180039de0     libcpmt:winapinls.obj
 0002:00001df0       ??_C@_1M@PBNONODE@?$AAf?$AAa?$AA?9?$AAi?$AAr?$AA?$AA@ 0000000180039df0     libcpmt:winapinls.obj
 0002:00001e00       ??_C@_1M@JEEHPMIL@?$AAf?$AAi?$AA?9?$AAf?$AAi?$AA?$AA@ 0000000180039e00     libcpmt:winapinls.obj
 0002:00001e10       ??_C@_1M@LMDCNDBA@?$AAf?$AAo?$AA?9?$AAf?$AAo?$AA?$AA@ 0000000180039e10     libcpmt:winapinls.obj
 0002:00001e20       ??_C@_1M@JKEOHLDK@?$AAf?$AAr?$AA?9?$AAb?$AAe?$AA?$AA@ 0000000180039e20     libcpmt:winapinls.obj
 0002:00001e30       ??_C@_1M@NOHADPMI@?$AAf?$AAr?$AA?9?$AAc?$AAa?$AA?$AA@ 0000000180039e30     libcpmt:winapinls.obj
 0002:00001e40       ??_C@_1M@KDHIHAEC@?$AAf?$AAr?$AA?9?$AAc?$AAh?$AA?$AA@ 0000000180039e40     libcpmt:winapinls.obj
 0002:00001e50       ??_C@_1M@MMBBFGAK@?$AAf?$AAr?$AA?9?$AAf?$AAr?$AA?$AA@ 0000000180039e50     libcpmt:winapinls.obj
 0002:00001e60       ??_C@_1M@PAFNENNF@?$AAf?$AAr?$AA?9?$AAl?$AAu?$AA?$AA@ 0000000180039e60     libcpmt:winapinls.obj
 0002:00001e70       ??_C@_1M@EOHDJGDD@?$AAf?$AAr?$AA?9?$AAm?$AAc?$AA?$AA@ 0000000180039e70     libcpmt:winapinls.obj
 0002:00001e80       ??_C@_1M@FAPLLOPF@?$AAg?$AAl?$AA?9?$AAe?$AAs?$AA?$AA@ 0000000180039e80     libcpmt:winapinls.obj
 0002:00001e90       ??_C@_1M@FOPBFLOO@?$AAg?$AAu?$AA?9?$AAi?$AAn?$AA?$AA@ 0000000180039e90     libcpmt:winapinls.obj
 0002:00001ea0       ??_C@_1M@KBMCINPM@?$AAh?$AAe?$AA?9?$AAi?$AAl?$AA?$AA@ 0000000180039ea0     libcpmt:winapinls.obj
 0002:00001eb0       ??_C@_1M@BBPHKFPJ@?$AAh?$AAi?$AA?9?$AAi?$AAn?$AA?$AA@ 0000000180039eb0     libcpmt:winapinls.obj
 0002:00001ec0       ??_C@_1M@PMBNDPHD@?$AAh?$AAr?$AA?9?$AAb?$AAa?$AA?$AA@ 0000000180039ec0     libcpmt:winapinls.obj
 0002:00001ed0       ??_C@_1M@BPCKOEGE@?$AAh?$AAr?$AA?9?$AAh?$AAr?$AA?$AA@ 0000000180039ed0     libcpmt:winapinls.obj
 0002:00001ee0       ??_C@_1M@GACBMHKE@?$AAh?$AAu?$AA?9?$AAh?$AAu?$AA?$AA@ 0000000180039ee0     libcpmt:winapinls.obj
 0002:00001ef0       ??_C@_1M@MILPAJJC@?$AAh?$AAy?$AA?9?$AAa?$AAm?$AA?$AA@ 0000000180039ef0     libcpmt:winapinls.obj
 0002:00001f00       ??_C@_1M@BABBICEC@?$AAi?$AAd?$AA?9?$AAi?$AAd?$AA?$AA@ 0000000180039f00     libcpmt:winapinls.obj
 0002:00001f10       ??_C@_1M@BIKNHHPF@?$AAi?$AAs?$AA?9?$AAi?$AAs?$AA?$AA@ 0000000180039f10     libcpmt:winapinls.obj
 0002:00001f20       ??_C@_1M@NMPCJPHE@?$AAi?$AAt?$AA?9?$AAc?$AAh?$AA?$AA@ 0000000180039f20     libcpmt:winapinls.obj
 0002:00001f30       ??_C@_1M@GHKGFEDF@?$AAi?$AAt?$AA?9?$AAi?$AAt?$AA?$AA@ 0000000180039f30     libcpmt:winapinls.obj
 0002:00001f40       ??_C@_1M@NIEJCJJA@?$AAj?$AAa?$AA?9?$AAj?$AAp?$AA?$AA@ 0000000180039f40     libcpmt:winapinls.obj
 0002:00001f50       ??_C@_1M@JILFNBIM@?$AAk?$AAa?$AA?9?$AAg?$AAe?$AA?$AA@ 0000000180039f50     libcpmt:winapinls.obj
 0002:00001f60       ??_C@_1M@PACPMGPH@?$AAk?$AAk?$AA?9?$AAk?$AAz?$AA?$AA@ 0000000180039f60     libcpmt:winapinls.obj
 0002:00001f70       ??_C@_1M@IELFGMHA@?$AAk?$AAn?$AA?9?$AAi?$AAn?$AA?$AA@ 0000000180039f70     libcpmt:winapinls.obj
 0002:00001f80       ??_C@_1M@DMHAEOGC@?$AAk?$AAo?$AA?9?$AAk?$AAr?$AA?$AA@ 0000000180039f80     libcpmt:winapinls.obj
 0002:00001f90       ??_C@_1O@IBBJHCH@?$AAk?$AAo?$AAk?$AA?9?$AAi?$AAn?$AA?$AA@ 0000000180039f90     libcpmt:winapinls.obj
 0002:00001fa0       ??_C@_1M@HBAHBIGA@?$AAk?$AAy?$AA?9?$AAk?$AAg?$AA?$AA@ 0000000180039fa0     libcpmt:winapinls.obj
 0002:00001fb0       ??_C@_1M@KPMILCJG@?$AAl?$AAt?$AA?9?$AAl?$AAt?$AA?$AA@ 0000000180039fb0     libcpmt:winapinls.obj
 0002:00001fc0       ??_C@_1M@BDEKKCA@?$AAl?$AAv?$AA?9?$AAl?$AAv?$AA?$AA@ 0000000180039fc0     libcpmt:winapinls.obj
 0002:00001fd0       ??_C@_1M@ELCKCCJJ@?$AAm?$AAi?$AA?9?$AAn?$AAz?$AA?$AA@ 0000000180039fd0     libcpmt:winapinls.obj
 0002:00001fe0       ??_C@_1M@CBOOLAPA@?$AAm?$AAk?$AA?9?$AAm?$AAk?$AA?$AA@ 0000000180039fe0     libcpmt:winapinls.obj
 0002:00001ff0       ??_C@_1M@GPHNBJKN@?$AAm?$AAl?$AA?9?$AAi?$AAn?$AA?$AA@ 0000000180039ff0     libcpmt:winapinls.obj
 0002:00002000       ??_C@_1M@PABJILIG@?$AAm?$AAn?$AA?9?$AAm?$AAn?$AA?$AA@ 000000018003a000     libcpmt:winapinls.obj
 0002:00002010       ??_C@_1M@FGBKKIPG@?$AAm?$AAr?$AA?9?$AAi?$AAn?$AA?$AA@ 000000018003a010     libcpmt:winapinls.obj
 0002:00002020       ??_C@_1M@NDBPDDAL@?$AAm?$AAs?$AA?9?$AAb?$AAn?$AA?$AA@ 000000018003a020     libcpmt:winapinls.obj
 0002:00002030       ??_C@_1M@OPIHOOPI@?$AAm?$AAs?$AA?9?$AAm?$AAy?$AA?$AA@ 000000018003a030     libcpmt:winapinls.obj
 0002:00002040       ??_C@_1M@PPDBCNFM@?$AAm?$AAt?$AA?9?$AAm?$AAt?$AA?$AA@ 000000018003a040     libcpmt:winapinls.obj
 0002:00002050       ??_C@_1M@KDJDKMDD@?$AAn?$AAb?$AA?9?$AAn?$AAo?$AA?$AA@ 000000018003a050     libcpmt:winapinls.obj
 0002:00002060       ??_C@_1M@KFCFLMJP@?$AAn?$AAl?$AA?9?$AAb?$AAe?$AA?$AA@ 000000018003a060     libcpmt:winapinls.obj
 0002:00002070       ??_C@_1M@KPOPDDGO@?$AAn?$AAl?$AA?9?$AAn?$AAl?$AA?$AA@ 000000018003a070     libcpmt:winapinls.obj
 0002:00002080       ??_C@_1M@LJKPEMLN@?$AAn?$AAn?$AA?9?$AAn?$AAo?$AA?$AA@ 000000018003a080     libcpmt:winapinls.obj
 0002:00002090       ??_C@_1M@BDGHHBFL@?$AAn?$AAs?$AA?9?$AAz?$AAa?$AA?$AA@ 000000018003a090     libcpmt:winapinls.obj
 0002:000020a0       ??_C@_1M@IDEHOAP@?$AAp?$AAa?$AA?9?$AAi?$AAn?$AA?$AA@ 000000018003a0a0     libcpmt:winapinls.obj
 0002:000020b0       ??_C@_1M@HDBKGOGH@?$AAp?$AAl?$AA?9?$AAp?$AAl?$AA?$AA@ 000000018003a0b0     libcpmt:winapinls.obj
 0002:000020c0       ??_C@_1M@LJLLCMEH@?$AAp?$AAt?$AA?9?$AAb?$AAr?$AA?$AA@ 000000018003a0c0     libcpmt:winapinls.obj
 0002:000020d0       ??_C@_1M@NCMONAAL@?$AAp?$AAt?$AA?9?$AAp?$AAt?$AA?$AA@ 000000018003a0d0     libcpmt:winapinls.obj
 0002:000020e0       ??_C@_1O@EAKMAJDN@?$AAq?$AAu?$AAz?$AA?9?$AAb?$AAo?$AA?$AA@ 000000018003a0e0     libcpmt:winapinls.obj
 0002:000020f0       ??_C@_1O@BHHPIGDN@?$AAq?$AAu?$AAz?$AA?9?$AAe?$AAc?$AA?$AA@ 000000018003a0f0     libcpmt:winapinls.obj
 0002:00002100       ??_C@_1O@GBAPEKMJ@?$AAq?$AAu?$AAz?$AA?9?$AAp?$AAe?$AA?$AA@ 000000018003a100     libcpmt:winapinls.obj
 0002:00002110       ??_C@_1M@CLGLEFBO@?$AAr?$AAo?$AA?9?$AAr?$AAo?$AA?$AA@ 000000018003a110     libcpmt:winapinls.obj
 0002:00002120       ??_C@_1M@CEEDODME@?$AAr?$AAu?$AA?9?$AAr?$AAu?$AA?$AA@ 000000018003a120     libcpmt:winapinls.obj
 0002:00002130       ??_C@_1M@HPKKKMPP@?$AAs?$AAa?$AA?9?$AAi?$AAn?$AA?$AA@ 000000018003a130     libcpmt:winapinls.obj
 0002:00002140       ??_C@_1M@BKMAIGOJ@?$AAs?$AAe?$AA?9?$AAf?$AAi?$AA?$AA@ 000000018003a140     libcpmt:winapinls.obj
 0002:00002150       ??_C@_1M@NDPIFLFI@?$AAs?$AAe?$AA?9?$AAn?$AAo?$AA?$AA@ 000000018003a150     libcpmt:winapinls.obj
 0002:00002160       ??_C@_1M@DANKKHJ@?$AAs?$AAe?$AA?9?$AAs?$AAe?$AA?$AA@ 000000018003a160     libcpmt:winapinls.obj
 0002:00002170       ??_C@_1M@PNBLONPJ@?$AAs?$AAk?$AA?9?$AAs?$AAk?$AA?$AA@ 000000018003a170     libcpmt:winapinls.obj
 0002:00002180       ??_C@_1M@LFMODOAL@?$AAs?$AAl?$AA?9?$AAs?$AAi?$AA?$AA@ 000000018003a180     libcpmt:winapinls.obj
 0002:00002190       ??_C@_1O@DFKOMPG@?$AAs?$AAm?$AAa?$AA?9?$AAn?$AAo?$AA?$AA@ 000000018003a190     libcpmt:winapinls.obj
 0002:000021a0       ??_C@_1O@NDKPBNNH@?$AAs?$AAm?$AAa?$AA?9?$AAs?$AAe?$AA?$AA@ 000000018003a1a0     libcpmt:winapinls.obj
 0002:000021b0       ??_C@_1O@PLLKBHAB@?$AAs?$AAm?$AAj?$AA?9?$AAn?$AAo?$AA?$AA@ 000000018003a1b0     libcpmt:winapinls.obj
 0002:000021c0       ??_C@_1O@CLEPOGCA@?$AAs?$AAm?$AAj?$AA?9?$AAs?$AAe?$AA?$AA@ 000000018003a1c0     libcpmt:winapinls.obj
 0002:000021d0       ??_C@_1O@DLGJGKMK@?$AAs?$AAm?$AAn?$AA?9?$AAf?$AAi?$AA?$AA@ 000000018003a1d0     libcpmt:winapinls.obj
 0002:000021e0       ??_C@_1O@OJDJGAJC@?$AAs?$AAm?$AAs?$AA?9?$AAf?$AAi?$AA?$AA@ 000000018003a1e0     libcpmt:winapinls.obj
 0002:000021f0       ??_C@_1M@BOFOGHPB@?$AAs?$AAq?$AA?9?$AAa?$AAl?$AA?$AA@ 000000018003a1f0     libcpmt:winapinls.obj
 0002:00002200       ??_C@_1BG@LJBBIPGB@?$AAs?$AAr?$AA?9?$AAb?$AAa?$AA?9?$AAc?$AAy?$AAr?$AAl?$AA?$AA@ 000000018003a200     libcpmt:winapinls.obj
 0002:00002218       ??_C@_1BG@JLBENFOE@?$AAs?$AAr?$AA?9?$AAb?$AAa?$AA?9?$AAl?$AAa?$AAt?$AAn?$AA?$AA@ 000000018003a218     libcpmt:winapinls.obj
 0002:00002230       ??_C@_1BG@KODPNHE@?$AAs?$AAr?$AA?9?$AAs?$AAp?$AA?9?$AAc?$AAy?$AAr?$AAl?$AA?$AA@ 000000018003a230     libcpmt:winapinls.obj
 0002:00002248       ??_C@_1BG@CIOGKHPB@?$AAs?$AAr?$AA?9?$AAs?$AAp?$AA?9?$AAl?$AAa?$AAt?$AAn?$AA?$AA@ 000000018003a248     libcpmt:winapinls.obj
 0002:00002260       ??_C@_1M@NGFJLMAC@?$AAs?$AAv?$AA?9?$AAf?$AAi?$AA?$AA@ 000000018003a260     libcpmt:winapinls.obj
 0002:00002270       ??_C@_1M@MPJEJAJC@?$AAs?$AAv?$AA?9?$AAs?$AAe?$AA?$AA@ 000000018003a270     libcpmt:winapinls.obj
 0002:00002280       ??_C@_1M@MPNDHLFK@?$AAs?$AAw?$AA?9?$AAk?$AAe?$AA?$AA@ 000000018003a280     libcpmt:winapinls.obj
 0002:00002290       ??_C@_1O@KOHBJJI@?$AAs?$AAy?$AAr?$AA?9?$AAs?$AAy?$AA?$AA@ 000000018003a290     libcpmt:winapinls.obj
 0002:000022a0       ??_C@_1M@LDCEFHA@?$AAt?$AAa?$AA?9?$AAi?$AAn?$AA?$AA@ 000000018003a2a0     libcpmt:winapinls.obj
 0002:000022b0       ??_C@_1M@CNJOFAK@?$AAt?$AAe?$AA?9?$AAi?$AAn?$AA?$AA@ 000000018003a2b0     libcpmt:winapinls.obj
 0002:000022c0       ??_C@_1M@GNAECACD@?$AAt?$AAh?$AA?9?$AAt?$AAh?$AA?$AA@ 000000018003a2c0     libcpmt:winapinls.obj
 0002:000022d0       ??_C@_1M@CHBIHOJO@?$AAt?$AAn?$AA?9?$AAz?$AAa?$AA?$AA@ 000000018003a2d0     libcpmt:winapinls.obj
 0002:000022e0       ??_C@_1M@GCCMIGPJ@?$AAt?$AAr?$AA?9?$AAt?$AAr?$AA?$AA@ 000000018003a2e0     libcpmt:winapinls.obj
 0002:000022f0       ??_C@_1M@CELMCNBK@?$AAt?$AAt?$AA?9?$AAr?$AAu?$AA?$AA@ 000000018003a2f0     libcpmt:winapinls.obj
 0002:00002300       ??_C@_1M@KLMCELGA@?$AAu?$AAk?$AA?9?$AAu?$AAa?$AA?$AA@ 000000018003a300     libcpmt:winapinls.obj
 0002:00002310       ??_C@_1M@EPAJJAJF@?$AAu?$AAr?$AA?9?$AAp?$AAk?$AA?$AA@ 000000018003a310     libcpmt:winapinls.obj
 0002:00002320       ??_C@_1BG@GEGPMCDJ@?$AAu?$AAz?$AA?9?$AAu?$AAz?$AA?9?$AAc?$AAy?$AAr?$AAl?$AA?$AA@ 000000018003a320     libcpmt:winapinls.obj
 0002:00002338       ??_C@_1BG@EGGKJILM@?$AAu?$AAz?$AA?9?$AAu?$AAz?$AA?9?$AAl?$AAa?$AAt?$AAn?$AA?$AA@ 000000018003a338     libcpmt:winapinls.obj
 0002:00002350       ??_C@_1M@GFOCLFF@?$AAv?$AAi?$AA?9?$AAv?$AAn?$AA?$AA@ 000000018003a350     libcpmt:winapinls.obj
 0002:00002360       ??_C@_1M@CPAMEDFI@?$AAx?$AAh?$AA?9?$AAz?$AAa?$AA?$AA@ 000000018003a360     libcpmt:winapinls.obj
 0002:00002370       ??_C@_1O@EBKIFIGN@?$AAz?$AAh?$AA?9?$AAc?$AAh?$AAs?$AA?$AA@ 000000018003a370     libcpmt:winapinls.obj
 0002:00002380       ??_C@_1O@NMHPGANE@?$AAz?$AAh?$AA?9?$AAc?$AAh?$AAt?$AA?$AA@ 000000018003a380     libcpmt:winapinls.obj
 0002:00002390       ??_C@_1M@LPINJOMC@?$AAz?$AAh?$AA?9?$AAc?$AAn?$AA?$AA@ 000000018003a390     libcpmt:winapinls.obj
 0002:000023a0       ??_C@_1M@OCJEJODD@?$AAz?$AAh?$AA?9?$AAh?$AAk?$AA?$AA@ 000000018003a3a0     libcpmt:winapinls.obj
 0002:000023b0       ??_C@_1M@DNDLJINH@?$AAz?$AAh?$AA?9?$AAm?$AAo?$AA?$AA@ 000000018003a3b0     libcpmt:winapinls.obj
 0002:000023c0       ??_C@_1M@MBFDNDND@?$AAz?$AAh?$AA?9?$AAs?$AAg?$AA?$AA@ 000000018003a3c0     libcpmt:winapinls.obj
 0002:000023d0       ??_C@_1M@IMEPLEPE@?$AAz?$AAh?$AA?9?$AAt?$AAw?$AA?$AA@ 000000018003a3d0     libcpmt:winapinls.obj
 0002:000023e0       ??_C@_1M@BBGHNHJP@?$AAz?$AAu?$AA?9?$AAz?$AAa?$AA?$AA@ 000000018003a3e0     libcpmt:winapinls.obj
 0002:00004070       ??_C@_15EMKDOKLE@?$AAa?$AAr?$AA?$AA@ 000000018003c070     libcpmt:winapinls.obj
 0002:00004078       ??_C@_15KNPADPLH@?$AAb?$AAg?$AA?$AA@ 000000018003c078     libcpmt:winapinls.obj
 0002:00004080       ??_C@_15EDMHLDMO@?$AAc?$AAa?$AA?$AA@ 000000018003c080     libcpmt:winapinls.obj
 0002:00004088       ??_C@_1O@BPEAJADD@?$AAz?$AAh?$AA?9?$AAC?$AAH?$AAS?$AA?$AA@ 000000018003c088     libcpmt:winapinls.obj
 0002:00004098       ??_C@_15LJNHCMNK@?$AAc?$AAs?$AA?$AA@ 000000018003c098     libcpmt:winapinls.obj
 0002:000040a0       ??_C@_15FOMCIDHG@?$AAd?$AAa?$AA?$AA@ 000000018003c0a0     libcpmt:winapinls.obj
 0002:000040a8       ??_C@_15NBKABECB@?$AAd?$AAe?$AA?$AA@ 000000018003c0a8     libcpmt:winapinls.obj
 0002:000040b0       ??_C@_15GHPEIIAO@?$AAe?$AAl?$AA?$AA@ 000000018003c0b0     libcpmt:winapinls.obj
 0002:000040b8       ??_C@_15MNPNEAIF@?$AAe?$AAn?$AA?$AA@ 000000018003c0b8     libcpmt:winapinls.obj
 0002:000040c0       ??_C@_15GPIOMPMH@?$AAe?$AAs?$AA?$AA@ 000000018003c0c0     libcpmt:winapinls.obj
 0002:000040c8       ??_C@_15NGLOAKJC@?$AAf?$AAi?$AA?$AA@ 000000018003c0c8     libcpmt:winapinls.obj
 0002:000040d0       ??_C@_15FBKGNKAM@?$AAf?$AAr?$AA?$AA@ 000000018003c0d0     libcpmt:winapinls.obj
 0002:000040d8       ??_C@_15KGGCNEFK@?$AAh?$AAe?$AA?$AA@ 000000018003c0d8     libcpmt:winapinls.obj
 0002:000040e0       ??_C@_15PGHLIDMF@?$AAh?$AAu?$AA?$AA@ 000000018003c0e0     libcpmt:winapinls.obj
 0002:000040e8       ??_C@_15BIEMAPLM@?$AAi?$AAs?$AA?$AA@ 000000018003c0e8     libcpmt:winapinls.obj
 0002:000040f0       ??_C@_15IFJLDHAF@?$AAi?$AAt?$AA?$AA@ 000000018003c0f0     libcpmt:winapinls.obj
 0002:000040f8       ??_C@_15GEMIOCAG@?$AAj?$AAa?$AA?$AA@ 000000018003c0f8     libcpmt:winapinls.obj
 0002:00004100       ??_C@_15EPELEGJA@?$AAk?$AAo?$AA?$AA@ 000000018003c100     libcpmt:winapinls.obj
 0002:00004108       ??_C@_15NDDHIMN@?$AAn?$AAl?$AA?$AA@ 000000018003c108     libcpmt:winapinls.obj
 0002:00004110       ??_C@_15BPIGNHCD@?$AAn?$AAo?$AA?$AA@ 000000018003c110     libcpmt:winapinls.obj
 0002:00004118       ??_C@_15DEOPBLCG@?$AAp?$AAl?$AA?$AA@ 000000018003c118     libcpmt:winapinls.obj
 0002:00004120       ??_C@_15KBECGEFG@?$AAp?$AAt?$AA?$AA@ 000000018003c120     libcpmt:winapinls.obj
 0002:00004128       ??_C@_15GLJCBFMD@?$AAr?$AAo?$AA?$AA@ 000000018003c128     libcpmt:winapinls.obj
 0002:00004130       ??_C@_15FEDGKCDI@?$AAr?$AAu?$AA?$AA@ 000000018003c130     libcpmt:winapinls.obj
 0002:00004138       ??_C@_15GLKMLLHM@?$AAh?$AAr?$AA?$AA@ 000000018003c138     libcpmt:winapinls.obj
 0002:00004140       ??_C@_15CPKMFBDB@?$AAs?$AAk?$AA?$AA@ 000000018003c140     libcpmt:winapinls.obj
 0002:00004148       ??_C@_15BAAIOGMK@?$AAs?$AAq?$AA?$AA@ 000000018003c148     libcpmt:winapinls.obj
 0002:00004150       ??_C@_15INNPNOHD@?$AAs?$AAv?$AA?$AA@ 000000018003c150     libcpmt:winapinls.obj
 0002:00004158       ??_C@_15CABMMOGH@?$AAt?$AAh?$AA?$AA@ 000000018003c158     libcpmt:winapinls.obj
 0002:00004160       ??_C@_15BPLIHJJM@?$AAt?$AAr?$AA?$AA@ 000000018003c160     libcpmt:winapinls.obj
 0002:00004168       ??_C@_15NEOEKKDJ@?$AAu?$AAr?$AA?$AA@ 000000018003c168     libcpmt:winapinls.obj
 0002:00004170       ??_C@_15NFICGAJK@?$AAi?$AAd?$AA?$AA@ 000000018003c170     libcpmt:winapinls.obj
 0002:00004178       ??_C@_15PJPFLCCM@?$AAu?$AAk?$AA?$AA@ 000000018003c178     libcpmt:winapinls.obj
 0002:00004180       ??_C@_15HPJPHDM@?$AAb?$AAe?$AA?$AA@ 000000018003c180     libcpmt:winapinls.obj
 0002:00004188       ??_C@_15LCHLGJII@?$AAs?$AAl?$AA?$AA@ 000000018003c188     libcpmt:winapinls.obj
 0002:00004190       ??_C@_15PCFJPHHO@?$AAe?$AAt?$AA?$AA@ 000000018003c190     libcpmt:winapinls.obj
 0002:00004198       ??_C@_15HPFPGODN@?$AAl?$AAv?$AA?$AA@ 000000018003c198     libcpmt:winapinls.obj
 0002:000041a0       ??_C@_15NFFGKGLG@?$AAl?$AAt?$AA?$AA@ 000000018003c1a0     libcpmt:winapinls.obj
 0002:000041a8       ??_C@_15BDAKCCHN@?$AAf?$AAa?$AA?$AA@ 000000018003c1a8     libcpmt:winapinls.obj
 0002:000041b0       ??_C@_15NFGIAIAJ@?$AAv?$AAi?$AA?$AA@ 000000018003c1b0     libcpmt:winapinls.obj
 0002:000041b8       ??_C@_15LMKNDMHN@?$AAh?$AAy?$AA?$AA@ 000000018003c1b8     libcpmt:winapinls.obj
 0002:000041c0       ??_C@_15IJBHMCFL@?$AAa?$AAz?$AA?$AA@ 000000018003c1c0     libcpmt:winapinls.obj
 0002:000041c8       ??_C@_15EKOFJABL@?$AAe?$AAu?$AA?$AA@ 000000018003c1c8     libcpmt:winapinls.obj
 0002:000041d0       ??_C@_15BGHADCNK@?$AAm?$AAk?$AA?$AA@ 000000018003c1d0     libcpmt:winapinls.obj
 0002:000041d8       ??_C@_15JDNICKHM@?$AAa?$AAf?$AA?$AA@ 000000018003c1d8     libcpmt:winapinls.obj
 0002:000041e0       ??_C@_15KPJEDBKD@?$AAk?$AAa?$AA?$AA@ 000000018003c1e0     libcpmt:winapinls.obj
 0002:000041e8       ??_C@_15PDNFFFEO@?$AAf?$AAo?$AA?$AA@ 000000018003c1e8     libcpmt:winapinls.obj
 0002:000041f0       ??_C@_15OMLEGLOC@?$AAh?$AAi?$AA?$AA@ 000000018003c1f0     libcpmt:winapinls.obj
 0002:000041f8       ??_C@_15IDNNENKK@?$AAm?$AAs?$AA?$AA@ 000000018003c1f8     libcpmt:winapinls.obj
 0002:00004200       ??_C@_15MACJNBMH@?$AAk?$AAk?$AA?$AA@ 000000018003c200     libcpmt:winapinls.obj
 0002:00004208       ??_C@_15DKDJEOND@?$AAk?$AAy?$AA?$AA@ 000000018003c208     libcpmt:winapinls.obj
 0002:00004210       ??_C@_15DFGDLJBG@?$AAs?$AAw?$AA?$AA@ 000000018003c210     libcpmt:winapinls.obj
 0002:00004218       ??_C@_15BBFAICNG@?$AAu?$AAz?$AA?$AA@ 000000018003c218     libcpmt:winapinls.obj
 0002:00004220       ??_C@_15DKNDCGEA@?$AAt?$AAt?$AA?$AA@ 000000018003c220     libcpmt:winapinls.obj
 0002:00004228       ??_C@_15MGIFMDPL@?$AAp?$AAa?$AA?$AA@ 000000018003c228     libcpmt:winapinls.obj
 0002:00004230       ??_C@_15HCNDBBA@?$AAg?$AAu?$AA?$AA@ 000000018003c230     libcpmt:winapinls.obj
 0002:00004238       ??_C@_15FNBEIBON@?$AAt?$AAa?$AA?$AA@ 000000018003c238     libcpmt:winapinls.obj
 0002:00004240       ??_C@_15NCHGBGLK@?$AAt?$AAe?$AA?$AA@ 000000018003c240     libcpmt:winapinls.obj
 0002:00004248       ??_C@_15PHPHCBPF@?$AAk?$AAn?$AA?$AA@ 000000018003c248     libcpmt:winapinls.obj
 0002:00004250       ??_C@_15DLGBCKMP@?$AAm?$AAr?$AA?$AA@ 000000018003c250     libcpmt:winapinls.obj
 0002:00004258       ??_C@_15EABBLBFF@?$AAs?$AAa?$AA?$AA@ 000000018003c258     libcpmt:winapinls.obj
 0002:00004260       ??_C@_15CBKOMCOI@?$AAm?$AAn?$AA?$AA@ 000000018003c260     libcpmt:winapinls.obj
 0002:00004268       ??_C@_15CKDMCJAF@?$AAg?$AAl?$AA?$AA@ 000000018003c268     libcpmt:winapinls.obj
 0002:00004270       ??_C@_17CNJFBPG@?$AAk?$AAo?$AAk?$AA?$AA@ 000000018003c270     libcpmt:winapinls.obj
 0002:00004278       ??_C@_17FFBJICPL@?$AAs?$AAy?$AAr?$AA?$AA@ 000000018003c278     libcpmt:winapinls.obj
 0002:00004280       ??_C@_17KPNDCPAF@?$AAd?$AAi?$AAv?$AA?$AA@ 000000018003c280     libcpmt:winapinls.obj
 0002:00004288       ??_C@_1M@OKAHONE@?$AAa?$AAr?$AA?9?$AAS?$AAA?$AA?$AA@ 000000018003c288     libcpmt:winapinls.obj
 0002:00004298       ??_C@_1M@FFFIGIGK@?$AAb?$AAg?$AA?9?$AAB?$AAG?$AA?$AA@ 000000018003c298     libcpmt:winapinls.obj
 0002:000042a8       ??_C@_1M@BJNKEDC@?$AAc?$AAa?$AA?9?$AAE?$AAS?$AA?$AA@ 000000018003c2a8     libcpmt:winapinls.obj
 0002:000042b8       ??_C@_1M@CLNBBOPM@?$AAz?$AAh?$AA?9?$AAT?$AAW?$AA?$AA@ 000000018003c2b8     libcpmt:winapinls.obj
 0002:000042c8       ??_C@_1M@IJJHFJHA@?$AAc?$AAs?$AA?9?$AAC?$AAZ?$AA?$AA@ 000000018003c2c8     libcpmt:winapinls.obj
 0002:000042d8       ??_C@_1M@CLPEOBGI@?$AAd?$AAa?$AA?9?$AAD?$AAK?$AA?$AA@ 000000018003c2d8     libcpmt:winapinls.obj
 0002:000042e8       ??_C@_1M@MCMADGCB@?$AAd?$AAe?$AA?9?$AAD?$AAE?$AA?$AA@ 000000018003c2e8     libcpmt:winapinls.obj
 0002:000042f8       ??_C@_1M@OOCKEMAM@?$AAe?$AAl?$AA?9?$AAG?$AAR?$AA?$AA@ 000000018003c2f8     libcpmt:winapinls.obj
 0002:00004308       ??_C@_1M@BMHNFIME@?$AAe?$AAn?$AA?9?$AAU?$AAS?$AA?$AA@ 000000018003c308     libcpmt:winapinls.obj
 0002:00004318       ??_C@_1M@DDNJFGID@?$AAf?$AAi?$AA?9?$AAF?$AAI?$AA?$AA@ 000000018003c318     libcpmt:winapinls.obj
 0002:00004328       ??_C@_1M@GLIPPMAC@?$AAf?$AAr?$AA?9?$AAF?$AAR?$AA?$AA@ 000000018003c328     libcpmt:winapinls.obj
 0002:00004338       ??_C@_1M@GFMCHPE@?$AAh?$AAe?$AA?9?$AAI?$AAL?$AA?$AA@ 000000018003c338     libcpmt:winapinls.obj
 0002:00004348       ??_C@_1M@MHLPGNKM@?$AAh?$AAu?$AA?9?$AAH?$AAU?$AA?$AA@ 000000018003c348     libcpmt:winapinls.obj
 0002:00004358       ??_C@_1M@LPDDNNPN@?$AAi?$AAs?$AA?9?$AAI?$AAS?$AA?$AA@ 000000018003c358     libcpmt:winapinls.obj
 0002:00004368       ??_C@_1M@MADIPODN@?$AAi?$AAt?$AA?9?$AAI?$AAT?$AA?$AA@ 000000018003c368     libcpmt:winapinls.obj
 0002:00004378       ??_C@_1M@HPNHIDJI@?$AAj?$AAa?$AA?9?$AAJ?$AAP?$AA?$AA@ 000000018003c378     libcpmt:winapinls.obj
 0002:00004388       ??_C@_1M@JLOOOEGK@?$AAk?$AAo?$AA?9?$AAK?$AAR?$AA?$AA@ 000000018003c388     libcpmt:winapinls.obj
 0002:00004398       ??_C@_1M@IHBJJGG@?$AAn?$AAl?$AA?9?$AAN?$AAL?$AA?$AA@ 000000018003c398     libcpmt:winapinls.obj
 0002:000043a8       ??_C@_1M@EANAGDL@?$AAn?$AAb?$AA?9?$AAN?$AAO?$AA?$AA@ 000000018003c3a8     libcpmt:winapinls.obj
 0002:000043b8       ??_C@_1M@NEIEMEGP@?$AAp?$AAl?$AA?9?$AAP?$AAL?$AA?$AA@ 000000018003c3b8     libcpmt:winapinls.obj
 0002:000043c8       ??_C@_1M@BOCFIGEP@?$AAp?$AAt?$AA?9?$AAB?$AAR?$AA?$AA@ 000000018003c3c8     libcpmt:winapinls.obj
 0002:000043d8       ??_C@_1M@IMPFOPBG@?$AAr?$AAo?$AA?9?$AAR?$AAO?$AA?$AA@ 000000018003c3d8     libcpmt:winapinls.obj
 0002:000043e8       ??_C@_1M@IDNNEJMM@?$AAr?$AAu?$AA?9?$AAR?$AAU?$AA?$AA@ 000000018003c3e8     libcpmt:winapinls.obj
 0002:000043f8       ??_C@_1M@LILEEOGM@?$AAh?$AAr?$AA?9?$AAH?$AAR?$AA?$AA@ 000000018003c3f8     libcpmt:winapinls.obj
 0002:00004408       ??_C@_1M@FKIFEHPB@?$AAs?$AAk?$AA?9?$AAS?$AAK?$AA?$AA@ 000000018003c408     libcpmt:winapinls.obj
 0002:00004418       ??_C@_1M@LJMAMNPJ@?$AAs?$AAq?$AA?9?$AAA?$AAL?$AA?$AA@ 000000018003c418     libcpmt:winapinls.obj
 0002:00004428       ??_C@_1M@GIAKDKJK@?$AAs?$AAv?$AA?9?$AAS?$AAE?$AA?$AA@ 000000018003c428     libcpmt:winapinls.obj
 0002:00004438       ??_C@_1M@MKJKIKCL@?$AAt?$AAh?$AA?9?$AAT?$AAH?$AA?$AA@ 000000018003c438     libcpmt:winapinls.obj
 0002:00004448       ??_C@_1M@MFLCCMPB@?$AAt?$AAr?$AA?9?$AAT?$AAR?$AA?$AA@ 000000018003c448     libcpmt:winapinls.obj
 0002:00004458       ??_C@_1M@OIJHDKJN@?$AAu?$AAr?$AA?9?$AAP?$AAK?$AA?$AA@ 000000018003c458     libcpmt:winapinls.obj
 0002:00004468       ??_C@_1M@LHIPCIEK@?$AAi?$AAd?$AA?9?$AAI?$AAD?$AA?$AA@ 000000018003c468     libcpmt:winapinls.obj
 0002:00004478       ??_C@_1M@MFMOBGI@?$AAu?$AAk?$AA?9?$AAU?$AAA?$AA?$AA@ 000000018003c478     libcpmt:winapinls.obj
 0002:00004488       ??_C@_1M@OBGLJIPL@?$AAb?$AAe?$AA?9?$AAB?$AAY?$AA?$AA@ 000000018003c488     libcpmt:winapinls.obj
 0002:00004498       ??_C@_1M@BCFAJEAD@?$AAs?$AAl?$AA?9?$AAS?$AAI?$AA?$AA@ 000000018003c498     libcpmt:winapinls.obj
 0002:000044a8       ??_C@_1M@FKFFEDDN@?$AAe?$AAt?$AA?9?$AAE?$AAE?$AA?$AA@ 000000018003c4a8     libcpmt:winapinls.obj
 0002:000044b8       ??_C@_1M@KGKKAACI@?$AAl?$AAv?$AA?9?$AAL?$AAV?$AA?$AA@ 000000018003c4b8     libcpmt:winapinls.obj
 0002:000044c8       ??_C@_1M@IFGBIJO@?$AAl?$AAt?$AA?9?$AAL?$AAT?$AA?$AA@ 000000018003c4c8     libcpmt:winapinls.obj
 0002:000044d8       ??_C@_1M@FGEAHEDM@?$AAf?$AAa?$AA?9?$AAI?$AAR?$AA?$AA@ 000000018003c4d8     libcpmt:winapinls.obj
 0002:000044e8       ??_C@_1M@KBMAIBFN@?$AAv?$AAi?$AA?9?$AAV?$AAN?$AA?$AA@ 000000018003c4e8     libcpmt:winapinls.obj
 0002:000044f8       ??_C@_1M@GPCBKDJK@?$AAh?$AAy?$AA?9?$AAA?$AAM?$AA?$AA@ 000000018003c4f8     libcpmt:winapinls.obj
 0002:00004508       ??_C@_1BG@BECMDDJB@?$AAa?$AAz?$AA?9?$AAA?$AAZ?$AA?9?$AAL?$AAa?$AAt?$AAn?$AA?$AA@ 000000018003c508     libcpmt:winapinls.obj
 0002:00004520       ??_C@_1M@MAOFCAEA@?$AAe?$AAu?$AA?9?$AAE?$AAS?$AA?$AA@ 000000018003c520     libcpmt:winapinls.obj
 0002:00004530       ??_C@_1M@IGHABKPI@?$AAm?$AAk?$AA?9?$AAM?$AAK?$AA?$AA@ 000000018003c530     libcpmt:winapinls.obj
 0002:00004540       ??_C@_1M@IAIGNEJG@?$AAt?$AAn?$AA?9?$AAZ?$AAA?$AA?$AA@ 000000018003c540     libcpmt:winapinls.obj
 0002:00004550       ??_C@_1M@IIJCOJFA@?$AAx?$AAh?$AA?9?$AAZ?$AAA?$AA?$AA@ 000000018003c550     libcpmt:winapinls.obj
 0002:00004560       ??_C@_1M@LGPJHNJH@?$AAz?$AAu?$AA?9?$AAZ?$AAA?$AA?$AA@ 000000018003c560     libcpmt:winapinls.obj
 0002:00004570       ??_C@_1M@HOKAOIO@?$AAa?$AAf?$AA?9?$AAZ?$AAA?$AA?$AA@ 000000018003c570     libcpmt:winapinls.obj
 0002:00004580       ??_C@_1M@DPCLHLIE@?$AAk?$AAa?$AA?9?$AAG?$AAE?$AA?$AA@ 000000018003c580     libcpmt:winapinls.obj
 0002:00004590       ??_C@_1M@BLKMHJBI@?$AAf?$AAo?$AA?9?$AAF?$AAO?$AA?$AA@ 000000018003c590     libcpmt:winapinls.obj
 0002:000045a0       ??_C@_1M@LGGJAPPB@?$AAh?$AAi?$AA?9?$AAI?$AAN?$AA?$AA@ 000000018003c5a0     libcpmt:winapinls.obj
 0002:000045b0       ??_C@_1M@FIKPIHFE@?$AAm?$AAt?$AA?9?$AAM?$AAT?$AA?$AA@ 000000018003c5b0     libcpmt:winapinls.obj
 0002:000045c0       ??_C@_1M@HEGGPBFA@?$AAs?$AAe?$AA?9?$AAN?$AAO?$AA?$AA@ 000000018003c5c0     libcpmt:winapinls.obj
 0002:000045d0       ??_C@_1M@EIBJEEPA@?$AAm?$AAs?$AA?9?$AAM?$AAY?$AA?$AA@ 000000018003c5d0     libcpmt:winapinls.obj
 0002:000045e0       ??_C@_1M@FHLBGMPP@?$AAk?$AAk?$AA?9?$AAK?$AAZ?$AA?$AA@ 000000018003c5e0     libcpmt:winapinls.obj
 0002:000045f0       ??_C@_1M@NGJJLCGI@?$AAk?$AAy?$AA?9?$AAK?$AAG?$AA?$AA@ 000000018003c5f0     libcpmt:winapinls.obj
 0002:00004600       ??_C@_1M@GIENNBFC@?$AAs?$AAw?$AA?9?$AAK?$AAE?$AA?$AA@ 000000018003c600     libcpmt:winapinls.obj
 0002:00004610       ??_C@_1BG@NDGMJIMJ@?$AAu?$AAz?$AA?9?$AAU?$AAZ?$AA?9?$AAL?$AAa?$AAt?$AAn?$AA?$AA@ 000000018003c610     libcpmt:winapinls.obj
 0002:00004628       ??_C@_1M@IDCCIHBC@?$AAt?$AAt?$AA?9?$AAR?$AAU?$AA?$AA@ 000000018003c628     libcpmt:winapinls.obj
 0002:00004638       ??_C@_1M@LOICPMOJ@?$AAb?$AAn?$AA?9?$AAI?$AAN?$AA?$AA@ 000000018003c638     libcpmt:winapinls.obj
 0002:00004648       ??_C@_1M@KPKKNEAH@?$AAp?$AAa?$AA?9?$AAI?$AAN?$AA?$AA@ 000000018003c648     libcpmt:winapinls.obj
 0002:00004658       ??_C@_1M@PJGPPBOG@?$AAg?$AAu?$AA?9?$AAI?$AAN?$AA?$AA@ 000000018003c658     libcpmt:winapinls.obj
 0002:00004668       ??_C@_1M@KMKMOPHI@?$AAt?$AAa?$AA?9?$AAI?$AAN?$AA?$AA@ 000000018003c668     libcpmt:winapinls.obj
 0002:00004678       ??_C@_1M@KFEHEPAC@?$AAt?$AAe?$AA?9?$AAI?$AAN?$AA?$AA@ 000000018003c678     libcpmt:winapinls.obj
 0002:00004688       ??_C@_1M@CDCLMGHI@?$AAk?$AAn?$AA?9?$AAI?$AAN?$AA?$AA@ 000000018003c688     libcpmt:winapinls.obj
 0002:00004698       ??_C@_1M@MIODLDKF@?$AAm?$AAl?$AA?9?$AAI?$AAN?$AA?$AA@ 000000018003c698     libcpmt:winapinls.obj
 0002:000046a8       ??_C@_1M@PBIEACPO@?$AAm?$AAr?$AA?9?$AAI?$AAN?$AA?$AA@ 000000018003c6a8     libcpmt:winapinls.obj
 0002:000046b8       ??_C@_1M@NIDEAGPH@?$AAs?$AAa?$AA?9?$AAI?$AAN?$AA?$AA@ 000000018003c6b8     libcpmt:winapinls.obj
 0002:000046c8       ??_C@_1M@FHIHCBIO@?$AAm?$AAn?$AA?9?$AAM?$AAN?$AA?$AA@ 000000018003c6c8     libcpmt:winapinls.obj
 0002:000046d8       ??_C@_1M@JAIJPENP@?$AAc?$AAy?$AA?9?$AAG?$AAB?$AA?$AA@ 000000018003c6d8     libcpmt:winapinls.obj
 0002:000046e8       ??_C@_1M@PHGFBEPN@?$AAg?$AAl?$AA?9?$AAE?$AAS?$AA?$AA@ 000000018003c6e8     libcpmt:winapinls.obj
 0002:000046f8       ??_C@_1O@KPIPDNCP@?$AAk?$AAo?$AAk?$AA?9?$AAI?$AAN?$AA?$AA@ 000000018003c6f8     libcpmt:winapinls.obj
 0002:00004708       ??_C@_1O@KNHJLDJA@?$AAs?$AAy?$AAr?$AA?9?$AAS?$AAY?$AA?$AA@ 000000018003c708     libcpmt:winapinls.obj
 0002:00004718       ??_C@_1O@MKEKBLAH@?$AAd?$AAi?$AAv?$AA?9?$AAM?$AAV?$AA?$AA@ 000000018003c718     libcpmt:winapinls.obj
 0002:00004728       ??_C@_1O@OHDCKDDF@?$AAq?$AAu?$AAz?$AA?9?$AAB?$AAO?$AA?$AA@ 000000018003c728     libcpmt:winapinls.obj
 0002:00004738       ??_C@_1M@LEPJNLFD@?$AAn?$AAs?$AA?9?$AAZ?$AAA?$AA?$AA@ 000000018003c738     libcpmt:winapinls.obj
 0002:00004748       ??_C@_1M@OMLEIIJB@?$AAm?$AAi?$AA?9?$AAN?$AAZ?$AA?$AA@ 000000018003c748     libcpmt:winapinls.obj
 0002:00004758       ??_C@_1M@PMPEAILG@?$AAa?$AAr?$AA?9?$AAI?$AAQ?$AA?$AA@ 000000018003c758     libcpmt:winapinls.obj
 0002:00004768       ??_C@_1M@BIBDDEMK@?$AAz?$AAh?$AA?9?$AAC?$AAN?$AA?$AA@ 000000018003c768     libcpmt:winapinls.obj
 0002:00004778       ??_C@_1M@CNKPNOEE@?$AAd?$AAe?$AA?9?$AAC?$AAH?$AA?$AA@ 000000018003c778     libcpmt:winapinls.obj
 0002:00004788       ??_C@_1M@LKMGMLKO@?$AAe?$AAn?$AA?9?$AAG?$AAB?$AA?$AA@ 000000018003c788     libcpmt:winapinls.obj
 0002:00004798       ??_C@_1M@PGKJFFGL@?$AAe?$AAs?$AA?9?$AAM?$AAX?$AA?$AA@ 000000018003c798     libcpmt:winapinls.obj
 0002:000047a8       ??_C@_1M@DNNANBDC@?$AAf?$AAr?$AA?9?$AAB?$AAE?$AA?$AA@ 000000018003c7a8     libcpmt:winapinls.obj
 0002:000047b8       ??_C@_1M@HLGMDFHM@?$AAi?$AAt?$AA?9?$AAC?$AAH?$AA?$AA@ 000000018003c7b8     libcpmt:winapinls.obj
 0002:000047c8       ??_C@_1M@CLLBGJH@?$AAn?$AAl?$AA?9?$AAB?$AAE?$AA?$AA@ 000000018003c7c8     libcpmt:winapinls.obj
 0002:000047d8       ??_C@_1M@BODBOGLF@?$AAn?$AAn?$AA?9?$AAN?$AAO?$AA?$AA@ 000000018003c7d8     libcpmt:winapinls.obj
 0002:000047e8       ??_C@_1M@HFFAHKAD@?$AAp?$AAt?$AA?9?$AAP?$AAT?$AA?$AA@ 000000018003c7e8     libcpmt:winapinls.obj
 0002:000047f8       ??_C@_1BG@LNOAKHIE@?$AAs?$AAr?$AA?9?$AAS?$AAP?$AA?9?$AAL?$AAa?$AAt?$AAn?$AA?$AA@ 000000018003c7f8     libcpmt:winapinls.obj
 0002:00004810       ??_C@_1M@HBMHBGAK@?$AAs?$AAv?$AA?9?$AAF?$AAI?$AA?$AA@ 000000018003c810     libcpmt:winapinls.obj
 0002:00004820       ??_C@_1BG@DGCJGJBE@?$AAa?$AAz?$AA?9?$AAA?$AAZ?$AA?9?$AAC?$AAy?$AAr?$AAl?$AA?$AA@ 000000018003c820     libcpmt:winapinls.obj
 0002:00004838       ??_C@_1M@KEJDAAHB@?$AAs?$AAe?$AA?9?$AAS?$AAE?$AA?$AA@ 000000018003c838     libcpmt:winapinls.obj
 0002:00004848       ??_C@_1M@HEIBJJAD@?$AAm?$AAs?$AA?9?$AAB?$AAN?$AA?$AA@ 000000018003c848     libcpmt:winapinls.obj
 0002:00004858       ??_C@_1BG@PBGJMCEM@?$AAu?$AAz?$AA?9?$AAU?$AAZ?$AA?9?$AAC?$AAy?$AAr?$AAl?$AA?$AA@ 000000018003c858     libcpmt:winapinls.obj
 0002:00004870       ??_C@_1O@LAOBCMDF@?$AAq?$AAu?$AAz?$AA?9?$AAE?$AAC?$AA?$AA@ 000000018003c870     libcpmt:winapinls.obj
 0002:00004880       ??_C@_1M@POEEMAIO@?$AAa?$AAr?$AA?9?$AAE?$AAG?$AA?$AA@ 000000018003c880     libcpmt:winapinls.obj
 0002:00004890       ??_C@_1M@EFAKDEDL@?$AAz?$AAh?$AA?9?$AAH?$AAK?$AA?$AA@ 000000018003c890     libcpmt:winapinls.obj
 0002:000048a0       ??_C@_1M@HKKIJHGI@?$AAd?$AAe?$AA?9?$AAA?$AAT?$AA?$AA@ 000000018003c8a0     libcpmt:winapinls.obj
 0002:000048b0       ??_C@_1M@KBFBEHJF@?$AAe?$AAn?$AA?9?$AAA?$AAU?$AA?$AA@ 000000018003c8b0     libcpmt:winapinls.obj
 0002:000048c0       ??_C@_1M@MNPLFAAH@?$AAe?$AAs?$AA?9?$AAE?$AAS?$AA?$AA@ 000000018003c8c0     libcpmt:winapinls.obj
 0002:000048d0       ??_C@_1M@HJOOJFMA@?$AAf?$AAr?$AA?9?$AAC?$AAA?$AA?$AA@ 000000018003c8d0     libcpmt:winapinls.obj
 0002:000048e0       ??_C@_1BG@JPOFPNAB@?$AAs?$AAr?$AA?9?$AAS?$AAP?$AA?9?$AAC?$AAy?$AAr?$AAl?$AA?$AA@ 000000018003c8e0     libcpmt:winapinls.obj
 0002:000048f8       ??_C@_1M@LNFOCMOB@?$AAs?$AAe?$AA?9?$AAF?$AAI?$AA?$AA@ 000000018003c8f8     libcpmt:winapinls.obj
 0002:00004908       ??_C@_1O@MGJBOAMB@?$AAq?$AAu?$AAz?$AA?9?$AAP?$AAE?$AA?$AA@ 000000018003c908     libcpmt:winapinls.obj
 0002:00004918       ??_C@_1M@GJINLBOK@?$AAa?$AAr?$AA?9?$AAL?$AAY?$AA?$AA@ 000000018003c918     libcpmt:winapinls.obj
 0002:00004928       ??_C@_1M@GGMNHJNL@?$AAz?$AAh?$AA?9?$AAS?$AAG?$AA?$AA@ 000000018003c928     libcpmt:winapinls.obj
 0002:00004938       ??_C@_1M@HOIKODND@?$AAd?$AAe?$AA?9?$AAL?$AAU?$AA?$AA@ 000000018003c938     libcpmt:winapinls.obj
 0002:00004948       ??_C@_1M@DDOCCGFG@?$AAe?$AAn?$AA?9?$AAC?$AAA?$AA?$AA@ 000000018003c948     libcpmt:winapinls.obj
 0002:00004958       ??_C@_1M@BNOEMJLF@?$AAe?$AAs?$AA?9?$AAG?$AAT?$AA?$AA@ 000000018003c958     libcpmt:winapinls.obj
 0002:00004968       ??_C@_1M@EOGNKEK@?$AAf?$AAr?$AA?9?$AAC?$AAH?$AA?$AA@ 000000018003c968     libcpmt:winapinls.obj
 0002:00004978       ??_C@_1M@FLIDJFHL@?$AAh?$AAr?$AA?9?$AAB?$AAA?$AA?$AA@ 000000018003c978     libcpmt:winapinls.obj
 0002:00004988       ??_C@_1O@FMCELNAJ@?$AAs?$AAm?$AAj?$AA?9?$AAN?$AAO?$AA?$AA@ 000000018003c988     libcpmt:winapinls.obj
 0002:00004998       ??_C@_1M@JHGLJMGJ@?$AAa?$AAr?$AA?9?$AAD?$AAZ?$AA?$AA@ 000000018003c998     libcpmt:winapinls.obj
 0002:000049a8       ??_C@_1M@JKKFDCNP@?$AAz?$AAh?$AA?9?$AAM?$AAO?$AA?$AA@ 000000018003c9a8     libcpmt:winapinls.obj
 0002:000049b8       ??_C@_1M@GEEFALPE@?$AAd?$AAe?$AA?9?$AAL?$AAI?$AA?$AA@ 000000018003c9b8     libcpmt:winapinls.obj
 0002:000049c8       ??_C@_1M@IGEOFBG@?$AAe?$AAn?$AA?9?$AAN?$AAZ?$AA?$AA@ 000000018003c9c8     libcpmt:winapinls.obj
 0002:000049d8       ??_C@_1M@KDBONEHP@?$AAe?$AAs?$AA?9?$AAC?$AAR?$AA?$AA@ 000000018003c9d8     libcpmt:winapinls.obj
 0002:000049e8       ??_C@_1M@FHMDOHNN@?$AAf?$AAr?$AA?9?$AAL?$AAU?$AA?$AA@ 000000018003c9e8     libcpmt:winapinls.obj
 0002:000049f8       ??_C@_1BG@NFKKMAFG@?$AAb?$AAs?$AA?9?$AAB?$AAA?$AA?9?$AAL?$AAa?$AAt?$AAn?$AA?$AA@ 000000018003c9f8     libcpmt:winapinls.obj
 0002:00004a10       ??_C@_1O@IMNBEMCI@?$AAs?$AAm?$AAj?$AA?9?$AAS?$AAE?$AA?$AA@ 000000018003ca10     libcpmt:winapinls.obj
 0002:00004a20       ??_C@_1M@DHHMBNDP@?$AAa?$AAr?$AA?9?$AAM?$AAA?$AA?$AA@ 000000018003ca20     libcpmt:winapinls.obj
 0002:00004a30       ??_C@_1M@BNBLJCGH@?$AAe?$AAn?$AA?9?$AAI?$AAE?$AA?$AA@ 000000018003ca30     libcpmt:winapinls.obj
 0002:00004a40       ??_C@_1M@GEPAFMDL@?$AAe?$AAs?$AA?9?$AAP?$AAA?$AA?$AA@ 000000018003ca40     libcpmt:winapinls.obj
 0002:00004a50       ??_C@_1M@OJONDMDL@?$AAf?$AAr?$AA?9?$AAM?$AAC?$AA?$AA@ 000000018003ca50     libcpmt:winapinls.obj
 0002:00004a60       ??_C@_1BG@OBCNFJB@?$AAs?$AAr?$AA?9?$AAB?$AAA?$AA?9?$AAL?$AAa?$AAt?$AAn?$AA?$AA@ 000000018003ca60     libcpmt:winapinls.obj
 0002:00004a78       ??_C@_1O@KEMEEGPO@?$AAs?$AAm?$AAa?$AA?9?$AAN?$AAO?$AA?$AA@ 000000018003ca78     libcpmt:winapinls.obj
 0002:00004a88       ??_C@_1M@ELMGFODK@?$AAa?$AAr?$AA?9?$AAT?$AAN?$AA?$AA@ 000000018003ca88     libcpmt:winapinls.obj
 0002:00004a98       ??_C@_1M@BHDLHFAF@?$AAe?$AAn?$AA?9?$AAZ?$AAA?$AA?$AA@ 000000018003ca98     libcpmt:winapinls.obj
 0002:00004aa8       ??_C@_1M@BMGIGLIF@?$AAe?$AAs?$AA?9?$AAD?$AAO?$AA?$AA@ 000000018003caa8     libcpmt:winapinls.obj
 0002:00004ab8       ??_C@_1BG@CMBHIPBE@?$AAs?$AAr?$AA?9?$AAB?$AAA?$AA?9?$AAC?$AAy?$AAr?$AAl?$AA?$AA@ 000000018003cab8     libcpmt:winapinls.obj
 0002:00004ad0       ??_C@_1O@HEDBLHNP@?$AAs?$AAm?$AAa?$AA?9?$AAS?$AAE?$AA?$AA@ 000000018003cad0     libcpmt:winapinls.obj
 0002:00004ae0       ??_C@_1M@DAGCADIM@?$AAa?$AAr?$AA?9?$AAO?$AAM?$AA?$AA@ 000000018003cae0     libcpmt:winapinls.obj
 0002:00004af0       ??_C@_1M@FODLMICG@?$AAe?$AAn?$AA?9?$AAJ?$AAM?$AA?$AA@ 000000018003caf0     libcpmt:winapinls.obj
 0002:00004b00       ??_C@_1M@DNMLCIHB@?$AAe?$AAs?$AA?9?$AAV?$AAE?$AA?$AA@ 000000018003cb00     libcpmt:winapinls.obj
 0002:00004b10       ??_C@_1O@EOKHMKJK@?$AAs?$AAm?$AAs?$AA?9?$AAF?$AAI?$AA?$AA@ 000000018003cb10     libcpmt:winapinls.obj
 0002:00004b20       ??_C@_1M@CAFJMKOF@?$AAa?$AAr?$AA?9?$AAY?$AAE?$AA?$AA@ 000000018003cb20     libcpmt:winapinls.obj
 0002:00004b30       ??_C@_1M@CBFHIJLI@?$AAe?$AAn?$AA?9?$AAC?$AAB?$AA?$AA@ 000000018003cb30     libcpmt:winapinls.obj
 0002:00004b40       ??_C@_1M@BGNFLDN@?$AAe?$AAs?$AA?9?$AAC?$AAO?$AA?$AA@ 000000018003cb40     libcpmt:winapinls.obj
 0002:00004b50       ??_C@_1O@JMPHMAMC@?$AAs?$AAm?$AAn?$AA?9?$AAF?$AAI?$AA?$AA@ 000000018003cb50     libcpmt:winapinls.obj
 0002:00004b60       ??_C@_1M@JLANABKE@?$AAa?$AAr?$AA?9?$AAS?$AAY?$AA?$AA@ 000000018003cb60     libcpmt:winapinls.obj
 0002:00004b70       ??_C@_1M@HPKGCFGN@?$AAe?$AAn?$AA?9?$AAB?$AAZ?$AA?$AA@ 000000018003cb70     libcpmt:winapinls.obj
 0002:00004b80       ??_C@_1M@OLJCMLGM@?$AAe?$AAs?$AA?9?$AAP?$AAE?$AA?$AA@ 000000018003cb80     libcpmt:winapinls.obj
 0002:00004b90       ??_C@_1M@MKKGFKLE@?$AAa?$AAr?$AA?9?$AAJ?$AAO?$AA?$AA@ 000000018003cb90     libcpmt:winapinls.obj
 0002:00004ba0       ??_C@_1M@EKPGLDNI@?$AAe?$AAn?$AA?9?$AAT?$AAT?$AA?$AA@ 000000018003cba0     libcpmt:winapinls.obj
 0002:00004bb0       ??_C@_1M@OONGHFHE@?$AAe?$AAs?$AA?9?$AAA?$AAR?$AA?$AA@ 000000018003cbb0     libcpmt:winapinls.obj
 0002:00004bc0       ??_C@_1M@OOJFGBHE@?$AAa?$AAr?$AA?9?$AAL?$AAB?$AA?$AA@ 000000018003cbc0     libcpmt:winapinls.obj
 0002:00004bd0       ??_C@_1M@GCEJHNEG@?$AAe?$AAn?$AA?9?$AAZ?$AAW?$AA?$AA@ 000000018003cbd0     libcpmt:winapinls.obj
 0002:00004be0       ??_C@_1M@JNOCAHJI@?$AAe?$AAs?$AA?9?$AAE?$AAC?$AA?$AA@ 000000018003cbe0     libcpmt:winapinls.obj
 0002:00004bf0       ??_C@_1M@JEFHPGGB@?$AAa?$AAr?$AA?9?$AAK?$AAW?$AA?$AA@ 000000018003cbf0     libcpmt:winapinls.obj
 0002:00004c00       ??_C@_1M@MLKIBJOJ@?$AAe?$AAn?$AA?9?$AAP?$AAH?$AA?$AA@ 000000018003cc00     libcpmt:winapinls.obj
 0002:00004c10       ??_C@_1M@BDNIPEND@?$AAe?$AAs?$AA?9?$AAC?$AAL?$AA?$AA@ 000000018003cc10     libcpmt:winapinls.obj
 0002:00004c20       ??_C@_1M@MPNMEKBD@?$AAa?$AAr?$AA?9?$AAA?$AAE?$AA?$AA@ 000000018003cc20     libcpmt:winapinls.obj
 0002:00004c30       ??_C@_1M@KBJALCPI@?$AAe?$AAs?$AA?9?$AAU?$AAY?$AA?$AA@ 000000018003cc30     libcpmt:winapinls.obj
 0002:00004c40       ??_C@_1M@LLCCOAGA@?$AAa?$AAr?$AA?9?$AAB?$AAH?$AA?$AA@ 000000018003cc40     libcpmt:winapinls.obj
 0002:00004c50       ??_C@_1M@PBFNCDEL@?$AAe?$AAs?$AA?9?$AAP?$AAY?$AA?$AA@ 000000018003cc50     libcpmt:winapinls.obj
 0002:00004c60       ??_C@_1M@EDGINPNP@?$AAa?$AAr?$AA?9?$AAQ?$AAA?$AA?$AA@ 000000018003cc60     libcpmt:winapinls.obj
 0002:00004c70       ??_C@_1M@MKDBIIJI@?$AAe?$AAs?$AA?9?$AAB?$AAO?$AA?$AA@ 000000018003cc70     libcpmt:winapinls.obj
 0002:00004c80       ??_C@_1M@CPKKEBLD@?$AAe?$AAs?$AA?9?$AAS?$AAV?$AA?$AA@ 000000018003cc80     libcpmt:winapinls.obj
 0002:00004c90       ??_C@_1M@NDBGMMJL@?$AAe?$AAs?$AA?9?$AAH?$AAN?$AA?$AA@ 000000018003cc90     libcpmt:winapinls.obj
 0002:00004ca0       ??_C@_1M@JIJIBHDP@?$AAe?$AAs?$AA?9?$AAN?$AAI?$AA?$AA@ 000000018003cca0     libcpmt:winapinls.obj
 0002:00004cb0       ??_C@_1M@CGFMKEEK@?$AAe?$AAs?$AA?9?$AAP?$AAR?$AA?$AA@ 000000018003ccb0     libcpmt:winapinls.obj
 0002:00004cc0       ??_C@_1O@ICJHKIIK@?$AAz?$AAh?$AA?9?$AAC?$AAH?$AAT?$AA?$AA@ 000000018003ccc0     libcpmt:winapinls.obj
 0002:00004cd0       ??_C@_15CLNEJCE@?$AAs?$AAr?$AA?$AA@ 000000018003ccd0     libcpmt:winapinls.obj
 0002:00004cd8       ??_C@_1M@KAHEKEIG@?$AAa?$AAf?$AA?9?$AAz?$AAa?$AA?$AA@ 000000018003ccd8     libcpmt:winapinls.obj
 0002:00004ce8       ??_C@_1M@GIECOABL@?$AAa?$AAr?$AA?9?$AAa?$AAe?$AA?$AA@ 000000018003cce8     libcpmt:winapinls.obj
 0002:00004cf8       ??_C@_1M@BMLMEKGI@?$AAa?$AAr?$AA?9?$AAb?$AAh?$AA?$AA@ 000000018003ccf8     libcpmt:winapinls.obj
 0002:00004d08       ??_C@_1M@DAPFDGGB@?$AAa?$AAr?$AA?9?$AAd?$AAz?$AA?$AA@ 000000018003cd08     libcpmt:winapinls.obj
 0002:00004d18       ??_C@_1M@FJNKGKIG@?$AAa?$AAr?$AA?9?$AAe?$AAg?$AA?$AA@ 000000018003cd18     libcpmt:winapinls.obj
 0002:00004d28       ??_C@_1M@FLGKKCLO@?$AAa?$AAr?$AA?9?$AAi?$AAq?$AA?$AA@ 000000018003cd28     libcpmt:winapinls.obj
 0002:00004d38       ??_C@_1M@GNDIPALM@?$AAa?$AAr?$AA?9?$AAj?$AAo?$AA?$AA@ 000000018003cd38     libcpmt:winapinls.obj
 0002:00004d48       ??_C@_1M@DDMJFMGJ@?$AAa?$AAr?$AA?9?$AAk?$AAw?$AA?$AA@ 000000018003cd48     libcpmt:winapinls.obj
 0002:00004d58       ??_C@_1M@EJALMLHM@?$AAa?$AAr?$AA?9?$AAl?$AAb?$AA?$AA@ 000000018003cd58     libcpmt:winapinls.obj
 0002:00004d68       ??_C@_1M@MOBDBLOC@?$AAa?$AAr?$AA?9?$AAl?$AAy?$AA?$AA@ 000000018003cd68     libcpmt:winapinls.obj
 0002:00004d78       ??_C@_1M@JAOCLHDH@?$AAa?$AAr?$AA?9?$AAm?$AAa?$AA?$AA@ 000000018003cd78     libcpmt:winapinls.obj
 0002:00004d88       ??_C@_1M@JHPMKJIE@?$AAa?$AAr?$AA?9?$AAo?$AAm?$AA?$AA@ 000000018003cd88     libcpmt:winapinls.obj
 0002:00004d98       ??_C@_1M@OEPGHFNH@?$AAa?$AAr?$AA?9?$AAq?$AAa?$AA?$AA@ 000000018003cd98     libcpmt:winapinls.obj
 0002:00004da8       ??_C@_1M@KJDONENM@?$AAa?$AAr?$AA?9?$AAs?$AAa?$AA?$AA@ 000000018003cda8     libcpmt:winapinls.obj
 0002:00004db8       ??_C@_1M@DMJDKLKM@?$AAa?$AAr?$AA?9?$AAs?$AAy?$AA?$AA@ 000000018003cdb8     libcpmt:winapinls.obj
 0002:00004dc8       ??_C@_1M@OMFIPEDC@?$AAa?$AAr?$AA?9?$AAt?$AAn?$AA?$AA@ 000000018003cdc8     libcpmt:winapinls.obj
 0002:00004dd8       ??_C@_1M@IHMHGAON@?$AAa?$AAr?$AA?9?$AAy?$AAe?$AA?$AA@ 000000018003cdd8     libcpmt:winapinls.obj
 0002:00004de8       ??_C@_1BG@KDCPGJGB@?$AAa?$AAz?$AA?9?$AAa?$AAz?$AA?9?$AAc?$AAy?$AAr?$AAl?$AA?$AA@ 000000018003cde8     libcpmt:winapinls.obj
 0002:00004e00       ??_C@_1BG@IBCKDDOE@?$AAa?$AAz?$AA?9?$AAa?$AAz?$AA?9?$AAl?$AAa?$AAt?$AAn?$AA?$AA@ 000000018003ce00     libcpmt:winapinls.obj
 0002:00004e18       ??_C@_1M@EGPFDCPD@?$AAb?$AAe?$AA?9?$AAb?$AAy?$AA?$AA@ 000000018003ce18     libcpmt:winapinls.obj
 0002:00004e28       ??_C@_1M@PCMGMCGC@?$AAb?$AAg?$AA?9?$AAb?$AAg?$AA?$AA@ 000000018003ce28     libcpmt:winapinls.obj
 0002:00004e38       ??_C@_1M@BJBMFGOB@?$AAb?$AAn?$AA?9?$AAi?$AAn?$AA?$AA@ 000000018003ce38     libcpmt:winapinls.obj
 0002:00004e48       ??_C@_1BG@EAKMMACD@?$AAb?$AAs?$AA?9?$AAb?$AAa?$AA?9?$AAl?$AAa?$AAt?$AAn?$AA?$AA@ 000000018003ce48     libcpmt:winapinls.obj
 0002:00004e60       ??_C@_1M@KGADAODK@?$AAc?$AAa?$AA?9?$AAe?$AAs?$AA?$AA@ 000000018003ce60     libcpmt:winapinls.obj
 0002:00004e70       ??_C@_1M@COAJPDHI@?$AAc?$AAs?$AA?9?$AAc?$AAz?$AA?$AA@ 000000018003ce70     libcpmt:winapinls.obj
 0002:00004e80       ??_C@_1M@DHBHFONH@?$AAc?$AAy?$AA?9?$AAg?$AAb?$AA?$AA@ 000000018003ce80     libcpmt:winapinls.obj
 0002:00004e90       ??_C@_1M@IMGKELGA@?$AAd?$AAa?$AA?9?$AAd?$AAk?$AA?$AA@ 000000018003ce90     libcpmt:winapinls.obj
 0002:00004ea0       ??_C@_1M@NNDGDNGA@?$AAd?$AAe?$AA?9?$AAa?$AAt?$AA?$AA@ 000000018003cea0     libcpmt:winapinls.obj
 0002:00004eb0       ??_C@_1M@IKDBHEEM@?$AAd?$AAe?$AA?9?$AAc?$AAh?$AA?$AA@ 000000018003ceb0     libcpmt:winapinls.obj
 0002:00004ec0       ??_C@_1M@GFFOJMCJ@?$AAd?$AAe?$AA?9?$AAd?$AAe?$AA?$AA@ 000000018003cec0     libcpmt:winapinls.obj
 0002:00004ed0       ??_C@_1M@MDNLKBPM@?$AAd?$AAe?$AA?9?$AAl?$AAi?$AA?$AA@ 000000018003ced0     libcpmt:winapinls.obj
 0002:00004ee0       ??_C@_1M@NJBEEJNL@?$AAd?$AAe?$AA?9?$AAl?$AAu?$AA?$AA@ 000000018003cee0     libcpmt:winapinls.obj
 0002:00004ef0       ??_C@_1O@GNNELBAP@?$AAd?$AAi?$AAv?$AA?9?$AAm?$AAv?$AA?$AA@ 000000018003cef0     libcpmt:winapinls.obj
 0002:00004f00       ??_C@_1M@EJLEOGAE@?$AAe?$AAl?$AA?9?$AAg?$AAr?$AA?$AA@ 000000018003cf00     libcpmt:winapinls.obj
 0002:00004f10       ??_C@_1M@GMPONJN@?$AAe?$AAn?$AA?9?$AAa?$AAu?$AA?$AA@ 000000018003cf10     libcpmt:winapinls.obj
 0002:00004f20       ??_C@_1M@NIDIIPGF@?$AAe?$AAn?$AA?9?$AAb?$AAz?$AA?$AA@ 000000018003cf20     libcpmt:winapinls.obj
 0002:00004f30       ??_C@_1M@JEHMIMFO@?$AAe?$AAn?$AA?9?$AAc?$AAa?$AA?$AA@ 000000018003cf30     libcpmt:winapinls.obj
 0002:00004f40       ??_C@_1M@IGMJCDLA@?$AAe?$AAn?$AA?9?$AAc?$AAb?$AA?$AA@ 000000018003cf40     libcpmt:winapinls.obj
 0002:00004f50       ??_C@_1M@BNFIGBKG@?$AAe?$AAn?$AA?9?$AAg?$AAb?$AA?$AA@ 000000018003cf50     libcpmt:winapinls.obj
 0002:00004f60       ??_C@_1M@LKIFDIGP@?$AAe?$AAn?$AA?9?$AAi?$AAe?$AA?$AA@ 000000018003cf60     libcpmt:winapinls.obj
 0002:00004f70       ??_C@_1M@PJKFGCCO@?$AAe?$AAn?$AA?9?$AAj?$AAm?$AA?$AA@ 000000018003cf70     libcpmt:winapinls.obj
 0002:00004f80       ??_C@_1M@KPPKEPBO@?$AAe?$AAn?$AA?9?$AAn?$AAz?$AA?$AA@ 000000018003cf80     libcpmt:winapinls.obj
 0002:00004f90       ??_C@_1M@GMDGLDOB@?$AAe?$AAn?$AA?9?$AAp?$AAh?$AA?$AA@ 000000018003cf90     libcpmt:winapinls.obj
 0002:00004fa0       ??_C@_1M@ONGIBJNA@?$AAe?$AAn?$AA?9?$AAt?$AAt?$AA?$AA@ 000000018003cfa0     libcpmt:winapinls.obj
 0002:00004fb0       ??_C@_1M@LLODPCMM@?$AAe?$AAn?$AA?9?$AAu?$AAs?$AA?$AA@ 000000018003cfb0     libcpmt:winapinls.obj
 0002:00004fc0       ??_C@_1M@LAKFNPAN@?$AAe?$AAn?$AA?9?$AAz?$AAa?$AA?$AA@ 000000018003cfc0     libcpmt:winapinls.obj
 0002:00004fd0       ??_C@_1M@MFNHNHEO@?$AAe?$AAn?$AA?9?$AAz?$AAw?$AA?$AA@ 000000018003cfd0     libcpmt:winapinls.obj
 0002:00004fe0       ??_C@_1M@EJEINPHM@?$AAe?$AAs?$AA?9?$AAa?$AAr?$AA?$AA@ 000000018003cfe0     libcpmt:winapinls.obj
 0002:00004ff0       ??_C@_1M@GNKPCCJA@?$AAe?$AAs?$AA?9?$AAb?$AAo?$AA?$AA@ 000000018003cff0     libcpmt:winapinls.obj
 0002:00005000       ??_C@_1M@LEEGFONL@?$AAe?$AAs?$AA?9?$AAc?$AAl?$AA?$AA@ 000000018003d000     libcpmt:winapinls.obj
 0002:00005010       ??_C@_1M@KGPDPBDF@?$AAe?$AAs?$AA?9?$AAc?$AAo?$AA?$AA@ 000000018003d010     libcpmt:winapinls.obj
 0002:00005020       ??_C@_1M@EIAHOHH@?$AAe?$AAs?$AA?9?$AAc?$AAr?$AA?$AA@ 000000018003d020     libcpmt:winapinls.obj
 0002:00005030       ??_C@_1M@LLPGMBIN@?$AAe?$AAs?$AA?9?$AAd?$AAo?$AA?$AA@ 000000018003d030     libcpmt:winapinls.obj
 0002:00005040       ??_C@_1M@DKHMKNJA@?$AAe?$AAs?$AA?9?$AAe?$AAc?$AA?$AA@ 000000018003d040     libcpmt:winapinls.obj
 0002:00005050       ??_C@_1M@GKGFPKAP@?$AAe?$AAs?$AA?9?$AAe?$AAs?$AA?$AA@ 000000018003d050     libcpmt:winapinls.obj
 0002:00005060       ??_C@_1M@LKHKGDLN@?$AAe?$AAs?$AA?9?$AAg?$AAt?$AA?$AA@ 000000018003d060     libcpmt:winapinls.obj
 0002:00005070       ??_C@_1M@HEIIGGJD@?$AAe?$AAs?$AA?9?$AAh?$AAn?$AA?$AA@ 000000018003d070     libcpmt:winapinls.obj
 0002:00005080       ??_C@_1M@FBDHPPGD@?$AAe?$AAs?$AA?9?$AAm?$AAx?$AA?$AA@ 000000018003d080     libcpmt:winapinls.obj
 0002:00005090       ??_C@_1M@DPAGLNDH@?$AAe?$AAs?$AA?9?$AAn?$AAi?$AA?$AA@ 000000018003d090     libcpmt:winapinls.obj
 0002:000050a0       ??_C@_1M@MDGOPGDD@?$AAe?$AAs?$AA?9?$AAp?$AAa?$AA?$AA@ 000000018003d0a0     libcpmt:winapinls.obj
 0002:000050b0       ??_C@_1M@EMAMGBGE@?$AAe?$AAs?$AA?9?$AAp?$AAe?$AA?$AA@ 000000018003d0b0     libcpmt:winapinls.obj
 0002:000050c0       ??_C@_1M@IBMCAOEC@?$AAe?$AAs?$AA?9?$AAp?$AAr?$AA?$AA@ 000000018003d0c0     libcpmt:winapinls.obj
 0002:000050d0       ??_C@_1M@FGMDIJED@?$AAe?$AAs?$AA?9?$AAp?$AAy?$AA?$AA@ 000000018003d0d0     libcpmt:winapinls.obj
 0002:000050e0       ??_C@_1M@IIDEOLLL@?$AAe?$AAs?$AA?9?$AAs?$AAv?$AA?$AA@ 000000018003d0e0     libcpmt:winapinls.obj
 0002:000050f0       ??_C@_1M@GAOBIPA@?$AAe?$AAs?$AA?9?$AAu?$AAy?$AA?$AA@ 000000018003d0f0     libcpmt:winapinls.obj
 0002:00005100       _pDefaultRawDllMain        000000018003d100     LIBCMT:dll_dllmain.obj
 0002:00005100       _pRawDllMain               000000018003d100     LIBCMT:dll_dllmain.obj
 0002:00005110       ??_7type_info@@6B@         000000018003d110     LIBCMT:std_type_info_static.obj
 0002:00005130       ??_7bad_array_new_length@std@@6B@ 000000018003d130     LIBCMT:throw_bad_alloc.obj
 0002:00005140       ??_C@_0BF@KINCDENJ@bad?5array?5new?5length?$AA@ 000000018003d140     LIBCMT:throw_bad_alloc.obj
 0002:00005158       _pDestructExceptionObject  000000018003d158     libvcruntime:frame.obj
 0002:00005168       ??_7bad_exception@std@@6B@ 000000018003d168     libvcruntime:frame.obj
 0002:00005178       ??_C@_0O@DPKOEFFH@bad?5exception?$AA@ 000000018003d178     libvcruntime:frame.obj
 0002:00005288       ??_C@_1BC@DNHGCMLG@?$AAa?$AAd?$AAv?$AAa?$AAp?$AAi?$AA3?$AA2?$AA?$AA@ 000000018003d288     libvcruntime:winapi_downlevel.obj
 0002:000052a0       ??_C@_1DM@KHCHBNEB@?$AAa?$AAp?$AAi?$AA?9?$AAm?$AAs?$AA?9?$AAw?$AAi?$AAn?$AA?9?$AAc?$AAo?$AAr?$AAe?$AA?9?$AAf?$AAi?$AAb?$AAe?$AAr?$AAs?$AA?9?$AAl?$AA1?$AA?9?$AA1?$AA?9?$AA1?$AA?$AA@ 000000018003d2a0     libvcruntime:winapi_downlevel.obj
 0002:000052e0       ??_C@_1DK@LPPGFMPP@?$AAa?$AAp?$AAi?$AA?9?$AAm?$AAs?$AA?9?$AAw?$AAi?$AAn?$AA?9?$AAc?$AAo?$AAr?$AAe?$AA?9?$AAs?$AAy?$AAn?$AAc?$AAh?$AA?9?$AAl?$AA1?$AA?9?$AA2?$AA?9?$AA0?$AA?$AA@ 000000018003d2e0     libvcruntime:winapi_downlevel.obj
 0002:00005320       ??_C@_1BC@GDMECMAK@?$AAk?$AAe?$AAr?$AAn?$AAe?$AAl?$AA3?$AA2?$AA?$AA@ 000000018003d320     libvcruntime:winapi_downlevel.obj
 0002:00005680       ??_C@_08EHJDFFNH@__based?$CI?$AA@ 000000018003d680     libvcruntime:undname.obj
 0002:00005690       ??_C@_07KOLFKCDI@__cdecl?$AA@ 000000018003d690     libvcruntime:undname.obj
 0002:00005698       ??_C@_08GHMPAG@__pascal?$AA@ 000000018003d698     libvcruntime:undname.obj
 0002:000056a8       ??_C@_09IFJBGAPI@__stdcall?$AA@ 000000018003d6a8     libvcruntime:undname.obj
 0002:000056b8       ??_C@_0L@NPHFGOKO@__thiscall?$AA@ 000000018003d6b8     libvcruntime:undname.obj
 0002:000056c8       ??_C@_0L@JMKHOMEK@__fastcall?$AA@ 000000018003d6c8     libvcruntime:undname.obj
 0002:000056d8       ??_C@_0N@BCKKPABJ@__vectorcall?$AA@ 000000018003d6d8     libvcruntime:undname.obj
 0002:000056e8       ??_C@_09HIJEGCPM@__clrcall?$AA@ 000000018003d6e8     libvcruntime:undname.obj
 0002:000056f4       ??_C@_06GHPCKEAG@__eabi?$AA@ 000000018003d6f4     libvcruntime:undname.obj
 0002:00005700       ??_C@_07JOMMBBKO@__ptr64?$AA@ 000000018003d700     libvcruntime:undname.obj
 0002:00005708       ??_C@_0L@PILCLIHE@__restrict?$AA@ 000000018003d708     libvcruntime:undname.obj
 0002:00005718       ??_C@_0M@GFIIJFMG@__unaligned?$AA@ 000000018003d718     libvcruntime:undname.obj
 0002:00005728       ??_C@_09DHDLOLLB@restrict?$CI?$AA@ 000000018003d728     libvcruntime:undname.obj
 0002:00005734       ??_C@_04NIHEBCM@?5new?$AA@ 000000018003d734     libvcruntime:undname.obj
 0002:00005740       ??_C@_07FPCDHGMM@?5delete?$AA@ 000000018003d740     libvcruntime:undname.obj
 0002:00005748       ??_C@_01NEMOKFLO@?$DN?$AA@ 000000018003d748     libvcruntime:undname.obj
 0002:0000574c       ??_C@_02GPIOPFAK@?$DO?$DO?$AA@ 000000018003d74c     libvcruntime:undname.obj
 0002:00005750       ??_C@_02FODMEDOG@?$DM?$DM?$AA@ 000000018003d750     libvcruntime:undname.obj
 0002:00005754       ??_C@_01DCLJPIOD@?$CB?$AA@ 000000018003d754     libvcruntime:undname.obj
 0002:00005758       ??_C@_02EGOFBIJA@?$DN?$DN?$AA@ 000000018003d758     libvcruntime:undname.obj
 0002:0000575c       ??_C@_02FDNJECIE@?$CB?$DN?$AA@ 000000018003d75c     libvcruntime:undname.obj
 0002:00005760       ??_C@_02GPECMEKF@?$FL?$FN?$AA@ 000000018003d760     libvcruntime:undname.obj
 0002:00005768       ??_C@_08LHJFAFGD@operator?$AA@ 000000018003d768     libvcruntime:undname.obj
 0002:00005774       ??_C@_02HBOOOICD@?9?$DO?$AA@ 000000018003d774     libvcruntime:undname.obj
 0002:00005778       ??_C@_02ECNGHCIF@?$CL?$CL?$AA@ 000000018003d778     libvcruntime:undname.obj
 0002:0000577c       ??_C@_02BAABKJLB@?9?9?$AA@ 000000018003d77c     libvcruntime:undname.obj
 0002:00005780       ??_C@_01MIFGBAGJ@?$CL?$AA@ 000000018003d780     libvcruntime:undname.obj
 0002:00005784       ??_C@_01HNPIGOCE@?$CG?$AA@ 000000018003d784     libvcruntime:undname.obj
 0002:00005788       ??_C@_03MNHNFDLC@?9?$DO?$CK?$AA@ 000000018003d788     libvcruntime:undname.obj
 0002:0000578c       ??_C@_01KMDKNFGN@?1?$AA@   000000018003d78c     libvcruntime:undname.obj
 0002:00005790       ??_C@_01FGNFDNOH@?$CF?$AA@ 000000018003d790     libvcruntime:undname.obj
 0002:00005794       ??_C@_01MNNFJEPP@?$DM?$AA@ 000000018003d794     libvcruntime:undname.obj
 0002:00005798       ??_C@_02EHCHHCKH@?$DM?$DN?$AA@ 000000018003d798     libvcruntime:undname.obj
 0002:0000579c       ??_C@_01PPODPGHN@?$DO?$AA@ 000000018003d79c     libvcruntime:undname.obj
 0002:000057a0       ??_C@_02EEKDKGMJ@?$DO?$DN?$AA@ 000000018003d7a0     libvcruntime:undname.obj
 0002:000057a4       ??_C@_02HCKGKOFO@?$CI?$CJ?$AA@ 000000018003d7a4     libvcruntime:undname.obj
 0002:000057a8       ??_C@_01PJKLJHI@?$HO?$AA@  000000018003d7a8     libvcruntime:undname.obj
 0002:000057ac       ??_C@_01JKBOJNNK@?$FO?$AA@ 000000018003d7ac     libvcruntime:undname.obj
 0002:000057b0       ??_C@_01DNKMNLPK@?$HM?$AA@ 000000018003d7b0     libvcruntime:undname.obj
 0002:000057b4       ??_C@_02PPKAJPJL@?$CG?$CG?$AA@ 000000018003d7b4     libvcruntime:undname.obj
 0002:000057b8       ??_C@_02NONPIBCD@?$HM?$HM?$AA@ 000000018003d7b8     libvcruntime:undname.obj
 0002:000057bc       ??_C@_02FPIMKNGF@?$CK?$DN?$AA@ 000000018003d7bc     libvcruntime:undname.obj
 0002:000057c0       ??_C@_02FOEOMHFC@?$CL?$DN?$AA@ 000000018003d7c0     libvcruntime:undname.obj
 0002:000057c4       ??_C@_02FKMDLLOA@?9?$DN?$AA@ 000000018003d7c4     libvcruntime:undname.obj
 0002:000057c8       ??_C@_02FJEHGPIO@?1?$DN?$AA@ 000000018003d7c8     libvcruntime:undname.obj
 0002:000057cc       ??_C@_02FENAOKFI@?$CF?$DN?$AA@ 000000018003d7cc     libvcruntime:undname.obj
 0002:000057d0       ??_C@_03IKFCCPFF@?$DO?$DO?$DN?$AA@ 000000018003d7d0     libvcruntime:undname.obj
 0002:000057d4       ??_C@_03CDNPDDLA@?$DM?$DM?$DN?$AA@ 000000018003d7d4     libvcruntime:undname.obj
 0002:000057d8       ??_C@_02FGJGFEAB@?$CG?$DN?$AA@ 000000018003d7d8     libvcruntime:undname.obj
 0002:000057dc       ??_C@_02DHLNPPGH@?$HM?$DN?$AA@ 000000018003d7dc     libvcruntime:undname.obj
 0002:000057e0       ??_C@_02MHEGNOJ@?$FO?$DN?$AA@ 000000018003d7e0     libvcruntime:undname.obj
 0002:000057e8       ??_C@_09IFPLHPGF@?$GAvftable?8?$AA@ 000000018003d7e8     libvcruntime:undname.obj
 0002:000057f8       ??_C@_09BLBHBJP@?$GAvbtable?8?$AA@ 000000018003d7f8     libvcruntime:undname.obj
 0002:00005808       ??_C@_07FEEIOKP@?$GAvcall?8?$AA@ 000000018003d808     libvcruntime:undname.obj
 0002:00005810       ??_C@_08LLFFHHDJ@?$GAtypeof?8?$AA@ 000000018003d810     libvcruntime:undname.obj
 0002:00005820       ??_C@_0BF@KDPPACIK@?$GAlocal?5static?5guard?8?$AA@ 000000018003d820     libvcruntime:undname.obj
 0002:00005838       ??_C@_08OBABFOLI@?$GAstring?8?$AA@ 000000018003d838     libvcruntime:undname.obj
 0002:00005848       ??_C@_0BD@JDLKDPAB@?$GAvbase?5destructor?8?$AA@ 000000018003d848     libvcruntime:undname.obj
 0002:00005860       ??_C@_0BN@DEGPLNFK@?$GAvector?5deleting?5destructor?8?$AA@ 000000018003d860     libvcruntime:undname.obj
 0002:00005880       ??_C@_0BO@OBMKPJIG@?$GAdefault?5constructor?5closure?8?$AA@ 000000018003d880     libvcruntime:undname.obj
 0002:000058a0       ??_C@_0BN@IMDCHIKM@?$GAscalar?5deleting?5destructor?8?$AA@ 000000018003d8a0     libvcruntime:undname.obj
 0002:000058c0       ??_C@_0BO@PFGOCPJJ@?$GAvector?5constructor?5iterator?8?$AA@ 000000018003d8c0     libvcruntime:undname.obj
 0002:000058e0       ??_C@_0BN@LFPFMEDL@?$GAvector?5destructor?5iterator?8?$AA@ 000000018003d8e0     libvcruntime:undname.obj
 0002:00005900       ??_C@_0CE@IKBNEHA@?$GAvector?5vbase?5constructor?5iterat@ 000000018003d900     libvcruntime:undname.obj
 0002:00005928       ??_C@_0BL@NILFHHPC@?$GAvirtual?5displacement?5map?8?$AA@ 000000018003d928     libvcruntime:undname.obj
 0002:00005948       ??_C@_0CB@JONCMFFK@?$GAeh?5vector?5constructor?5iterator?8@ 000000018003d948     libvcruntime:undname.obj
 0002:00005970       ??_C@_0CA@GCEOPDGL@?$GAeh?5vector?5destructor?5iterator?8?$AA@ 000000018003d970     libvcruntime:undname.obj
 0002:00005990       ??_C@_0CH@OOJPLCPH@?$GAeh?5vector?5vbase?5constructor?5ite@ 000000018003d990     libvcruntime:undname.obj
 0002:000059b8       ??_C@_0BL@LLKPOHJI@?$GAcopy?5constructor?5closure?8?$AA@ 000000018003d9b8     libvcruntime:undname.obj
 0002:000059d8       ??_C@_0BA@KBCDOMBN@?$GAudt?5returning?8?$AA@ 000000018003d9d8     libvcruntime:undname.obj
 0002:000059e8       ??_C@_03KLGMFNMG@?$GAEH?$AA@ 000000018003d9e8     libvcruntime:undname.obj
 0002:000059ec       ??_C@_05KHLCHHI@?$GARTTI?$AA@ 000000018003d9ec     libvcruntime:undname.obj
 0002:000059f8       ??_C@_0BA@KKLDJDLB@?$GAlocal?5vftable?8?$AA@ 000000018003d9f8     libvcruntime:undname.obj
 0002:00005a08       ??_C@_0CE@IIHCMGGL@?$GAlocal?5vftable?5constructor?5closu@ 000000018003da08     libvcruntime:undname.obj
 0002:00005a2c       ??_C@_06FHBGPFGH@?5new?$FL?$FN?$AA@ 000000018003da2c     libvcruntime:undname.obj
 0002:00005a38       ??_C@_09LBNFPBCA@?5delete?$FL?$FN?$AA@ 000000018003da38     libvcruntime:undname.obj
 0002:00005a48       ??_C@_0P@HJKNJFNN@?$GAomni?5callsig?8?$AA@ 000000018003da48     libvcruntime:undname.obj
 0002:00005a58       ??_C@_0BL@CNOONJFP@?$GAplacement?5delete?5closure?8?$AA@ 000000018003da58     libvcruntime:undname.obj
 0002:00005a78       ??_C@_0BN@CKNJLHMB@?$GAplacement?5delete?$FL?$FN?5closure?8?$AA@ 000000018003da78     libvcruntime:undname.obj
 0002:00005a98       ??_C@_0CG@CFDHKGGD@?$GAmanaged?5vector?5constructor?5iter@ 000000018003da98     libvcruntime:undname.obj
 0002:00005ac0       ??_C@_0CF@IMGKMJNO@?$GAmanaged?5vector?5destructor?5itera@ 000000018003dac0     libvcruntime:undname.obj
 0002:00005ae8       ??_C@_0CG@HLDDJMAG@?$GAeh?5vector?5copy?5constructor?5iter@ 000000018003dae8     libvcruntime:undname.obj
 0002:00005b10       ??_C@_0CM@FCBBDIGB@?$GAeh?5vector?5vbase?5copy?5constructo@ 000000018003db10     libvcruntime:undname.obj
 0002:00005b40       ??_C@_0BL@CLIPGLGB@?$GAdynamic?5initializer?5for?5?8?$AA@ 000000018003db40     libvcruntime:undname.obj
 0002:00005b60       ??_C@_0CB@PDBIFEP@?$GAdynamic?5atexit?5destructor?5for?5?8@ 000000018003db60     libvcruntime:undname.obj
 0002:00005b88       ??_C@_0CD@CGAJBKEJ@?$GAvector?5copy?5constructor?5iterato@ 000000018003db88     libvcruntime:undname.obj
 0002:00005bb0       ??_C@_0CJ@GJELGAMM@?$GAvector?5vbase?5copy?5constructor?5i@ 000000018003dbb0     libvcruntime:undname.obj
 0002:00005be0       ??_C@_0CL@FGIJHLCE@?$GAmanaged?5vector?5copy?5constructor@ 000000018003dbe0     libvcruntime:undname.obj
 0002:00005c10       ??_C@_0BM@PMGGMLDN@?$GAlocal?5static?5thread?5guard?8?$AA@ 000000018003dc10     libvcruntime:undname.obj
 0002:00005c30       ??_C@_0N@BDNMDMOL@operator?5?$CC?$CC?5?$AA@ 000000018003dc30     libvcruntime:undname.obj
 0002:00005c40       ??_C@_0BC@DAFEJGAK@?5Type?5Descriptor?8?$AA@ 000000018003dc40     libvcruntime:undname.obj
 0002:00005c58       ??_C@_0BM@LDKODKLH@?5Base?5Class?5Descriptor?5at?5?$CI?$AA@ 000000018003dc58     libvcruntime:undname.obj
 0002:00005c78       ??_C@_0BD@LGICGFMM@?5Base?5Class?5Array?8?$AA@ 000000018003dc78     libvcruntime:undname.obj
 0002:00005c90       ??_C@_0BN@MECKDCOJ@?5Class?5Hierarchy?5Descriptor?8?$AA@ 000000018003dc90     libvcruntime:undname.obj
 0002:00005cb0       ??_C@_0BK@CFCOFLF@?5Complete?5Object?5Locator?8?$AA@ 000000018003dcb0     libvcruntime:undname.obj
 0002:00005cd0       standard_lookup_table      000000018003dcd0     libucrt:output.obj
 0002:00005d30       format_validation_lookup_table 000000018003dd30     libucrt:output.obj
 0002:00005d8c       ??_C@_06OJHGLDPL@?$CInull?$CJ?$AA@ 000000018003dd8c     libucrt:output.obj
 0002:00005d98       ??_C@_1O@CEDCILHN@?$AA?$CI?$AAn?$AAu?$AAl?$AAl?$AA?$CJ?$AA?$AA@ 000000018003dd98     libucrt:output.obj
 0002:00005f18       __real@0000000000000000    000000018003df18     libucrt:frexp.obj
 0002:00005f20       __real@3ff0000000000000    000000018003df20     libucrt:frexp.obj
 0002:00005f28       __real@8000000000000000    000000018003df28     libucrt:frexp.obj
 0002:00005f30       ??_C@_1EK@MBDPDCGA@?$AAM?$AAi?$AAc?$AAr?$AAo?$AAs?$AAo?$AAf?$AAt?$AA?5?$AAV?$AAi?$AAs?$AAu?$AAa?$AAl?$AA?5?$AAC?$AA?$CL?$AA?$CL?$AA?5?$AAR?$AAu?$AAn?$AAt?$AAi?$AAm?$AAe?$AA?5?$AAL?$AAi?$AAb@ 000000018003df30     libucrt:assert.obj
 0002:00005f80       ??_C@_1FE@LHBLIKM@?$AAA?$AAs?$AAs?$AAe?$AAr?$AAt?$AAi?$AAo?$AAn?$AA?5?$AAf?$AAa?$AAi?$AAl?$AAe?$AAd?$AA?3?$AA?5?$AA?$CF?$AAT?$AAs?$AA?0?$AA?5?$AAf?$AAi?$AAl?$AAe?$AA?5?$AA?$CF?$AAT?$AAs?$AA?0@ 000000018003df80     libucrt:assert.obj
 0002:00005fd8       ??_C@_1CE@OJBNHDMO@?$AAA?$AAs?$AAs?$AAe?$AAr?$AAt?$AAi?$AAo?$AAn?$AA?5?$AAf?$AAa?$AAi?$AAl?$AAe?$AAd?$AA?$CB?$AA?$AA@ 000000018003dfd8     libucrt:assert.obj
 0002:00006000       ??_C@_1BE@PHKBBGE@?$AAP?$AAr?$AAo?$AAg?$AAr?$AAa?$AAm?$AA?3?$AA?5?$AA?$AA@ 000000018003e000     libucrt:assert.obj
 0002:00006018       ??_C@_1O@HEMHKNDC@?$AAF?$AAi?$AAl?$AAe?$AA?3?$AA?5?$AA?$AA@ 000000018003e018     libucrt:assert.obj
 0002:00006028       ??_C@_1O@KCAFKHJE@?$AAL?$AAi?$AAn?$AAe?$AA?3?$AA?5?$AA?$AA@ 000000018003e028     libucrt:assert.obj
 0002:00006038       ??_C@_1BK@PEDCIPMA@?$AAE?$AAx?$AAp?$AAr?$AAe?$AAs?$AAs?$AAi?$AAo?$AAn?$AA?3?$AA?5?$AA?$AA@ 000000018003e038     libucrt:assert.obj
 0002:00006060       ??_C@_1OA@EGMLFBHJ@?$AAF?$AAo?$AAr?$AA?5?$AAi?$AAn?$AAf?$AAo?$AAr?$AAm?$AAa?$AAt?$AAi?$AAo?$AAn?$AA?5?$AAo?$AAn?$AA?5?$AAh?$AAo?$AAw?$AA?5?$AAy?$AAo?$AAu?$AAr?$AA?5?$AAp?$AAr?$AAo?$AAg@ 000000018003e060     libucrt:assert.obj
 0002:00006140       ??_C@_1HK@POCJMFGK@?$AA?$CI?$AAP?$AAr?$AAe?$AAs?$AAs?$AA?5?$AAR?$AAe?$AAt?$AAr?$AAy?$AA?5?$AAt?$AAo?$AA?5?$AAd?$AAe?$AAb?$AAu?$AAg?$AA?5?$AAt?$AAh?$AAe?$AA?5?$AAa?$AAp?$AAp?$AAl?$AAi?$AAc@ 000000018003e140     libucrt:assert.obj
 0002:000061c0       ??_C@_17LGKOMLJ@?$AA?4?$AA?4?$AA?4?$AA?$AA@ 000000018003e1c0     libucrt:assert.obj
 0002:000061c8       ??_C@_13LBAGMAIH@?$AA?6?$AA?$AA@ 000000018003e1c8     libucrt:assert.obj
 0002:000061cc       ??_C@_15IABLJNFO@?$AA?6?$AA?6?$AA?$AA@ 000000018003e1cc     libucrt:assert.obj
 0002:000061d8       ??_C@_1CO@EAEJAADC@?$AA?$DM?$AAp?$AAr?$AAo?$AAg?$AAr?$AAa?$AAm?$AA?5?$AAn?$AAa?$AAm?$AAe?$AA?5?$AAu?$AAn?$AAk?$AAn?$AAo?$AAw?$AAn?$AA?$DO?$AA?$AA@ 000000018003e1d8     libucrt:assert.obj
 0002:00006208       ??_C@_1BI@BGOHAHKC@?$AAm?$AAs?$AAc?$AAo?$AAr?$AAe?$AAe?$AA?4?$AAd?$AAl?$AAl?$AA?$AA@ 000000018003e208     libucrt:exit.obj
 0002:00006220       ??_C@_0P@MIGLKIOC@CorExitProcess?$AA@ 000000018003e220     libucrt:exit.obj
 0002:00006230       ?large_power_data@?1??multiply_by_power_of_ten@__crt_strtox@@YA_NAEAUbig_integer@2@I@Z@4QBIB 000000018003e230     libucrt:input.obj
 0002:00006b40       ?large_power_indices@?1??multiply_by_power_of_ten@__crt_strtox@@YA_NAEAUbig_integer@2@I@Z@4QBUunpack_index@?1??12@YA_N0I@Z@B 000000018003eb40     libucrt:input.obj
 0002:00006bd8       ?small_powers_of_ten@?6??multiply_by_power_of_ten@__crt_strtox@@YA_NAEAUbig_integer@2@I@Z@4QBIB 000000018003ebd8     libucrt:input.obj
 0002:00006c00       ??_C@_1GE@DPGDJKLM@?$AAm?$AAi?$AAn?$AAk?$AAe?$AAr?$AAn?$AAe?$AAl?$AA?2?$AAc?$AAr?$AAt?$AAs?$AA?2?$AAu?$AAc?$AAr?$AAt?$AA?2?$AAi?$AAn?$AAc?$AA?2?$AAc?$AAo?$AAr?$AAe?$AAc?$AAr?$AAt?$AA_@ 000000018003ec00     libucrt:input.obj
 0002:00006c70       ??_C@_1FM@FELNCOBF@?$AA_?$AA_?$AAc?$AAr?$AAt?$AA_?$AAs?$AAt?$AAr?$AAt?$AAo?$AAx?$AA?3?$AA?3?$AAf?$AAl?$AAo?$AAa?$AAt?$AAi?$AAn?$AAg?$AA_?$AAp?$AAo?$AAi?$AAn?$AAt?$AA_?$AAv?$AAa?$AAl@ 000000018003ec70     libucrt:input.obj
 0002:00006cd0       ??_C@_1BG@GEMHBGAF@?$AA_?$AAi?$AAs?$AA_?$AAd?$AAo?$AAu?$AAb?$AAl?$AAe?$AA?$AA@ 000000018003ecd0     libucrt:input.obj
 0002:00006cf0       ??_C@_1FK@JOJELFFO@?$AA_?$AA_?$AAc?$AAr?$AAt?$AA_?$AAs?$AAt?$AAr?$AAt?$AAo?$AAx?$AA?3?$AA?3?$AAf?$AAl?$AAo?$AAa?$AAt?$AAi?$AAn?$AAg?$AA_?$AAp?$AAo?$AAi?$AAn?$AAt?$AA_?$AAv?$AAa?$AAl@ 000000018003ecf0     libucrt:input.obj
 0002:00006d50       ??_C@_1BI@BANMPGJI@?$AA?$CB?$AA_?$AAi?$AAs?$AA_?$AAd?$AAo?$AAu?$AAb?$AAl?$AAe?$AA?$AA@ 000000018003ed50     libucrt:input.obj
 0002:00006d70       ?constraints@?1??is_length_valid@__crt_stdio_input@@YA_NW4conversion_mode@2@W4length_modifier@2@@Z@4QAY0M@$$CBEA 000000018003ed70     libucrt:input.obj
 0002:00006de8       ?inf_uppercase@?2???$parse_floating_point_possible_infinity@DV?$input_adapter_character_source@V?$string_input_adapter@D@__crt_stdio_input@@@__crt_strtox@@_K@__crt_strtox@@YA?AW4floating_point_parse_result@1@AEADAEAV?$input_adapter_character_source@V?$string_input_adapter@D@__crt_stdio_input@@@1@_K@Z@4QBDB 000000018003ede8     libucrt:input.obj
 0002:00006dec       ?inf_lowercase@?2???$parse_floating_point_possible_infinity@DV?$input_adapter_character_source@V?$string_input_adapter@D@__crt_stdio_input@@@__crt_strtox@@_K@__crt_strtox@@YA?AW4floating_point_parse_result@1@AEADAEAV?$input_adapter_character_source@V?$string_input_adapter@D@__crt_stdio_input@@@1@_K@Z@4QBDB 000000018003edec     libucrt:input.obj
 0002:00006df0       ?inity_uppercase@?5???$parse_floating_point_possible_infinity@DV?$input_adapter_character_source@V?$string_input_adapter@D@__crt_stdio_input@@@__crt_strtox@@_K@__crt_strtox@@YA?AW4floating_point_parse_result@1@AEADAEAV?$input_adapter_character_source@V?$string_input_adapter@D@__crt_stdio_input@@@1@_K@Z@4QBDB 000000018003edf0     libucrt:input.obj
 0002:00006df8       ?inity_lowercase@?5???$parse_floating_point_possible_infinity@DV?$input_adapter_character_source@V?$string_input_adapter@D@__crt_stdio_input@@@__crt_strtox@@_K@__crt_strtox@@YA?AW4floating_point_parse_result@1@AEADAEAV?$input_adapter_character_source@V?$string_input_adapter@D@__crt_stdio_input@@@1@_K@Z@4QBDB 000000018003edf8     libucrt:input.obj
 0002:00006e00       ?uppercase@?2???$parse_floating_point_possible_nan@DV?$input_adapter_character_source@V?$string_input_adapter@D@__crt_stdio_input@@@__crt_strtox@@_K@__crt_strtox@@YA?AW4floating_point_parse_result@1@AEADAEAV?$input_adapter_character_source@V?$string_input_adapter@D@__crt_stdio_input@@@1@_K@Z@4QBDB 000000018003ee00     libucrt:input.obj
 0002:00006e04       ?lowercase@?2???$parse_floating_point_possible_nan@DV?$input_adapter_character_source@V?$string_input_adapter@D@__crt_stdio_input@@@__crt_strtox@@_K@__crt_strtox@@YA?AW4floating_point_parse_result@1@AEADAEAV?$input_adapter_character_source@V?$string_input_adapter@D@__crt_stdio_input@@@1@_K@Z@4QBDB 000000018003ee04     libucrt:input.obj
 0002:00006e08       ?uppercase@?1???$parse_floating_point_possible_nan_is_snan@DV?$input_adapter_character_source@V?$string_input_adapter@D@__crt_stdio_input@@@__crt_strtox@@@__crt_strtox@@YA_NAEADAEAV?$input_adapter_character_source@V?$string_input_adapter@D@__crt_stdio_input@@@1@@Z@4QBDB 000000018003ee08     libucrt:input.obj
 0002:00006e10       ?lowercase@?1???$parse_floating_point_possible_nan_is_snan@DV?$input_adapter_character_source@V?$string_input_adapter@D@__crt_stdio_input@@@__crt_strtox@@@__crt_strtox@@YA_NAEADAEAV?$input_adapter_character_source@V?$string_input_adapter@D@__crt_stdio_input@@@1@@Z@4QBDB 000000018003ee10     libucrt:input.obj
 0002:00006e18       ?uppercase@?1???$parse_floating_point_possible_nan_is_ind@DV?$input_adapter_character_source@V?$string_input_adapter@D@__crt_stdio_input@@@__crt_strtox@@@__crt_strtox@@YA_NAEADAEAV?$input_adapter_character_source@V?$string_input_adapter@D@__crt_stdio_input@@@1@@Z@4QBDB 000000018003ee18     libucrt:input.obj
 0002:00006e1c       ?lowercase@?1???$parse_floating_point_possible_nan_is_ind@DV?$input_adapter_character_source@V?$string_input_adapter@D@__crt_stdio_input@@@__crt_strtox@@@__crt_strtox@@YA_NAEADAEAV?$input_adapter_character_source@V?$string_input_adapter@D@__crt_stdio_input@@@1@@Z@4QBDB 000000018003ee1c     libucrt:input.obj
 0002:00006e20       __newctype                 000000018003ee20     libucrt:ctype.obj
 0002:00007120       __newclmap                 000000018003f120     libucrt:ctype.obj
 0002:000072a0       __newcumap                 000000018003f2a0     libucrt:ctype.obj
 0002:00007420       _wctype                    000000018003f420     libucrt:ctype.obj
 0002:000092e0       __acrt_exception_action_table 00000001800412e0     libucrt:exception_filter.obj
 0002:000093a0       __acrt_signal_action_table_count 00000001800413a0     libucrt:exception_filter.obj
 0002:000093a8       __acrt_signal_action_first_fpe_index 00000001800413a8     libucrt:exception_filter.obj
 0002:000093b0       __acrt_signal_action_fpe_count 00000001800413b0     libucrt:exception_filter.obj
 0002:000094b0       ??_C@_03OEIAHPBN@INF?$AA@  00000001800414b0     libucrt:cvt.obj
 0002:000094b4       ??_C@_03OJHLLCGB@inf?$AA@  00000001800414b4     libucrt:cvt.obj
 0002:000094b8       ??_C@_03LKNCIKJB@NAN?$AA@  00000001800414b8     libucrt:cvt.obj
 0002:000094bc       ??_C@_03LHCJEHON@nan?$AA@  00000001800414bc     libucrt:cvt.obj
 0002:000094c0       ??_C@_09OFJJIMPC@NAN?$CISNAN?$CJ?$AA@ 00000001800414c0     libucrt:cvt.obj
 0002:000094d0       ??_C@_09IPFBKMDL@nan?$CIsnan?$CJ?$AA@ 00000001800414d0     libucrt:cvt.obj
 0002:000094e0       ??_C@_08IKHNHAJ@NAN?$CIIND?$CJ?$AA@ 00000001800414e0     libucrt:cvt.obj
 0002:000094f0       ??_C@_08OFCDMILK@nan?$CIind?$CJ?$AA@ 00000001800414f0     libucrt:cvt.obj
 0002:000094fc       ??_C@_05KLBDPFGC@e?$CL000?$AA@ 00000001800414fc     libucrt:cvt.obj
 0002:00009510       __lc_category              0000000180041510     libucrt:wsetlocale.obj
 0002:000095a0       ??_C@_1O@GIFLHMA@?$AAL?$AAC?$AA_?$AAA?$AAL?$AAL?$AA?$AA@ 00000001800415a0     libucrt:wsetlocale.obj
 0002:000095b0       ??_C@_1BG@PPOMIBNJ@?$AAL?$AAC?$AA_?$AAC?$AAO?$AAL?$AAL?$AAA?$AAT?$AAE?$AA?$AA@ 00000001800415b0     libucrt:wsetlocale.obj
 0002:000095c8       ??_C@_1BC@FFJGAPJM@?$AAL?$AAC?$AA_?$AAC?$AAT?$AAY?$AAP?$AAE?$AA?$AA@ 00000001800415c8     libucrt:wsetlocale.obj
 0002:000095e0       ??_C@_1BI@PCKFNJFB@?$AAL?$AAC?$AA_?$AAM?$AAO?$AAN?$AAE?$AAT?$AAA?$AAR?$AAY?$AA?$AA@ 00000001800415e0     libucrt:wsetlocale.obj
 0002:000095f8       ??_C@_1BG@ENIEDKID@?$AAL?$AAC?$AA_?$AAN?$AAU?$AAM?$AAE?$AAR?$AAI?$AAC?$AA?$AA@ 00000001800415f8     libucrt:wsetlocale.obj
 0002:00009610       ??_C@_1BA@HAAOMIIG@?$AAL?$AAC?$AA_?$AAT?$AAI?$AAM?$AAE?$AA?$AA@ 0000000180041610     libucrt:wsetlocale.obj
 0002:000096a0       ??_C@_15NBPDDFIP@?$AA?$DN?$AA?$DL?$AA?$AA@ 00000001800416a0     libucrt:wsetlocale.obj
 0002:000096a8       ??_C@_13PJJBFPED@?$AA?$DL?$AA?$AA@ 00000001800416a8     libucrt:wsetlocale.obj
 0002:000096ac       ??_C@_13NMPKAAJP@?$AA?$DN?$AA?$AA@ 00000001800416ac     libucrt:wsetlocale.obj
 0002:000096b0       ??_C@_13FHBKNHDA@?$AAC?$AA?$AA@ 00000001800416b0     libucrt:wsetlocale.obj
 0002:000096b8       ??_C@_17MBJJLFDM@?$AA_?$AA?4?$AA?0?$AA?$AA@ 00000001800416b8     libucrt:wsetlocale.obj
 0002:000096c0       ??_C@_13ENNFDPBH@?$AA_?$AA?$AA@ 00000001800416c0     libucrt:wsetlocale.obj
 0002:000096c4       ??_C@_13JOFGPIOO@?$AA?4?$AA?$AA@ 00000001800416c4     libucrt:wsetlocale.obj
 0002:000096d0       __lc_time_c                00000001800416d0     libucrt:nlsdata.obj
 0002:00009990       ??_C@_03KOEHGMDN@Sun?$AA@  0000000180041990     libucrt:nlsdata.obj
 0002:00009994       ??_C@_03PDAGKDH@Mon?$AA@   0000000180041994     libucrt:nlsdata.obj
 0002:00009998       ??_C@_03NAGEINEP@Tue?$AA@  0000000180041998     libucrt:nlsdata.obj
 0002:0000999c       ??_C@_03MHOMLAJA@Wed?$AA@  000000018004199c     libucrt:nlsdata.obj
 0002:000099a0       ??_C@_03IOFIKPDN@Thu?$AA@  00000001800419a0     libucrt:nlsdata.obj
 0002:000099a4       ??_C@_03IDIOELNC@Fri?$AA@  00000001800419a4     libucrt:nlsdata.obj
 0002:000099a8       ??_C@_03FEFJNEK@Sat?$AA@   00000001800419a8     libucrt:nlsdata.obj
 0002:000099ac       ??_C@_06OOPIFAJ@Sunday?$AA@ 00000001800419ac     libucrt:nlsdata.obj
 0002:000099b4       ??_C@_06JLEDEDGH@Monday?$AA@ 00000001800419b4     libucrt:nlsdata.obj
 0002:000099c0       ??_C@_07BAAGCFCM@Tuesday?$AA@ 00000001800419c0     libucrt:nlsdata.obj
 0002:000099c8       ??_C@_09DLIGFAKA@Wednesday?$AA@ 00000001800419c8     libucrt:nlsdata.obj
 0002:000099d8       ??_C@_08HACCIKIA@Thursday?$AA@ 00000001800419d8     libucrt:nlsdata.obj
 0002:000099e4       ??_C@_06JECMNKMI@Friday?$AA@ 00000001800419e4     libucrt:nlsdata.obj
 0002:000099f0       ??_C@_08INBOOONO@Saturday?$AA@ 00000001800419f0     libucrt:nlsdata.obj
 0002:000099fc       ??_C@_03JIHJHPIE@Jan?$AA@  00000001800419fc     libucrt:nlsdata.obj
 0002:00009a00       ??_C@_03HJBDCHOM@Feb?$AA@  0000000180041a00     libucrt:nlsdata.obj
 0002:00009a04       ??_C@_03ODNJBKGA@Mar?$AA@  0000000180041a04     libucrt:nlsdata.obj
 0002:00009a08       ??_C@_03LEOLGMJP@Apr?$AA@  0000000180041a08     libucrt:nlsdata.obj
 0002:00009a0c       ??_C@_03CNMDKL@May?$AA@    0000000180041a0c     libucrt:nlsdata.obj
 0002:00009a10       ??_C@_03IDFGHECI@Jun?$AA@  0000000180041a10     libucrt:nlsdata.obj
 0002:00009a14       ??_C@_03LBGABGKK@Jul?$AA@  0000000180041a14     libucrt:nlsdata.obj
 0002:00009a18       ??_C@_03IFJFEIGA@Aug?$AA@  0000000180041a18     libucrt:nlsdata.obj
 0002:00009a1c       ??_C@_03GGCAPAJC@Sep?$AA@  0000000180041a1c     libucrt:nlsdata.obj
 0002:00009a20       ??_C@_03BMAOKBAD@Oct?$AA@  0000000180041a20     libucrt:nlsdata.obj
 0002:00009a24       ??_C@_03JPJOFNIA@Nov?$AA@  0000000180041a24     libucrt:nlsdata.obj
 0002:00009a28       ??_C@_03MKABNOCG@Dec?$AA@  0000000180041a28     libucrt:nlsdata.obj
 0002:00009a30       ??_C@_07CGJPFGJA@January?$AA@ 0000000180041a30     libucrt:nlsdata.obj
 0002:00009a38       ??_C@_08GNJGEPFN@February?$AA@ 0000000180041a38     libucrt:nlsdata.obj
 0002:00009a44       ??_C@_05HPCKOFNC@March?$AA@ 0000000180041a44     libucrt:nlsdata.obj
 0002:00009a4c       ??_C@_05DMJDNLEJ@April?$AA@ 0000000180041a4c     libucrt:nlsdata.obj
 0002:00009a54       ??_C@_04CNLMGBGM@June?$AA@ 0000000180041a54     libucrt:nlsdata.obj
 0002:00009a5c       ??_C@_04MIEPOIFP@July?$AA@ 0000000180041a5c     libucrt:nlsdata.obj
 0002:00009a64       ??_C@_06LBBHFDDG@August?$AA@ 0000000180041a64     libucrt:nlsdata.obj
 0002:00009a70       ??_C@_09BHHEALKD@September?$AA@ 0000000180041a70     libucrt:nlsdata.obj
 0002:00009a80       ??_C@_07JJNFCEND@October?$AA@ 0000000180041a80     libucrt:nlsdata.obj
 0002:00009a88       ??_C@_08HCHEGEOA@November?$AA@ 0000000180041a88     libucrt:nlsdata.obj
 0002:00009a98       ??_C@_08EDHMEBNP@December?$AA@ 0000000180041a98     libucrt:nlsdata.obj
 0002:00009aa4       ??_C@_02DEDBPAFC@AM?$AA@   0000000180041aa4     libucrt:nlsdata.obj
 0002:00009aa8       ??_C@_02CJNFDJBF@PM?$AA@   0000000180041aa8     libucrt:nlsdata.obj
 0002:00009ab0       ??_C@_08BPBNCDIB@MM?1dd?1yy?$AA@ 0000000180041ab0     libucrt:nlsdata.obj
 0002:00009ac0       ??_C@_0BE@CKGJFCPC@dddd?0?5MMMM?5dd?0?5yyyy?$AA@ 0000000180041ac0     libucrt:nlsdata.obj
 0002:00009ad8       ??_C@_08JCCMCCIL@HH?3mm?3ss?$AA@ 0000000180041ad8     libucrt:nlsdata.obj
 0002:00009ae8       ??_C@_17MBGCMIPB@?$AAS?$AAu?$AAn?$AA?$AA@ 0000000180041ae8     libucrt:nlsdata.obj
 0002:00009af0       ??_C@_17KBOMKBF@?$AAM?$AAo?$AAn?$AA?$AA@ 0000000180041af0     libucrt:nlsdata.obj
 0002:00009af8       ??_C@_17BMKGEGOJ@?$AAT?$AAu?$AAe?$AA?$AA@ 0000000180041af8     libucrt:nlsdata.obj
 0002:00009b00       ??_C@_17CJEDCEPE@?$AAW?$AAe?$AAd?$AA?$AA@ 0000000180041b00     libucrt:nlsdata.obj
 0002:00009b08       ??_C@_17PDPHAADD@?$AAT?$AAh?$AAu?$AA?$AA@ 0000000180041b08     libucrt:nlsdata.obj
 0002:00009b10       ??_C@_17HFOLPPLP@?$AAF?$AAr?$AAi?$AA?$AA@ 0000000180041b10     libucrt:nlsdata.obj
 0002:00009b18       ??_C@_17GGIBDPIH@?$AAS?$AAa?$AAt?$AA?$AA@ 0000000180041b18     libucrt:nlsdata.obj
 0002:00009b20       ??_C@_1O@IHNHDHPB@?$AAS?$AAu?$AAn?$AAd?$AAa?$AAy?$AA?$AA@ 0000000180041b20     libucrt:nlsdata.obj
 0002:00009b30       ??_C@_1O@MMNBFLIA@?$AAM?$AAo?$AAn?$AAd?$AAa?$AAy?$AA?$AA@ 0000000180041b30     libucrt:nlsdata.obj
 0002:00009b40       ??_C@_1BA@ENFBFFEK@?$AAT?$AAu?$AAe?$AAs?$AAd?$AAa?$AAy?$AA?$AA@ 0000000180041b40     libucrt:nlsdata.obj
 0002:00009b50       ??_C@_1BE@EBOGMDOH@?$AAW?$AAe?$AAd?$AAn?$AAe?$AAs?$AAd?$AAa?$AAy?$AA?$AA@ 0000000180041b50     libucrt:nlsdata.obj
 0002:00009b68       ??_C@_1BC@HHMNLIHE@?$AAT?$AAh?$AAu?$AAr?$AAs?$AAd?$AAa?$AAy?$AA?$AA@ 0000000180041b68     libucrt:nlsdata.obj
 0002:00009b80       ??_C@_1O@PDICJHAG@?$AAF?$AAr?$AAi?$AAd?$AAa?$AAy?$AA?$AA@ 0000000180041b80     libucrt:nlsdata.obj
 0002:00009b90       ??_C@_1BC@ENMNNPAJ@?$AAS?$AAa?$AAt?$AAu?$AAr?$AAd?$AAa?$AAy?$AA?$AA@ 0000000180041b90     libucrt:nlsdata.obj
 0002:00009ba8       ??_C@_17DKNBKCHM@?$AAJ?$AAa?$AAn?$AA?$AA@ 0000000180041ba8     libucrt:nlsdata.obj
 0002:00009bb0       ??_C@_17LMDJEKJN@?$AAF?$AAe?$AAb?$AA?$AA@ 0000000180041bb0     libucrt:nlsdata.obj
 0002:00009bb8       ??_C@_17CKNLEDEC@?$AAM?$AAa?$AAr?$AA?$AA@ 0000000180041bb8     libucrt:nlsdata.obj
 0002:00009bc0       ??_C@_17LFPOIHDD@?$AAA?$AAp?$AAr?$AA?$AA@ 0000000180041bc0     libucrt:nlsdata.obj
 0002:00009bc8       ??_C@_17PNNKMEED@?$AAM?$AAa?$AAy?$AA?$AA@ 0000000180041bc8     libucrt:nlsdata.obj
 0002:00009bd0       ??_C@_17KCJGOCPB@?$AAJ?$AAu?$AAn?$AA?$AA@ 0000000180041bd0     libucrt:nlsdata.obj
 0002:00009bd8       ??_C@_17IJPCKHK@?$AAJ?$AAu?$AAl?$AA?$AA@ 0000000180041bd8     libucrt:nlsdata.obj
 0002:00009be0       ??_C@_17ICPELBCN@?$AAA?$AAu?$AAg?$AA?$AA@ 0000000180041be0     libucrt:nlsdata.obj
 0002:00009be8       ??_C@_17HCHCOKMG@?$AAS?$AAe?$AAp?$AA?$AA@ 0000000180041be8     libucrt:nlsdata.obj
 0002:00009bf0       ??_C@_17FNLKOI@?$AAO?$AAc?$AAt?$AA?$AA@ 0000000180041bf0     libucrt:nlsdata.obj
 0002:00009bf8       ??_C@_17BBDMLCIG@?$AAN?$AAo?$AAv?$AA?$AA@ 0000000180041bf8     libucrt:nlsdata.obj
 0002:00009c00       ??_C@_17EGKACKIF@?$AAD?$AAe?$AAc?$AA?$AA@ 0000000180041c00     libucrt:nlsdata.obj
 0002:00009c08       ??_C@_1BA@EFMEIEBA@?$AAJ?$AAa?$AAn?$AAu?$AAa?$AAr?$AAy?$AA?$AA@ 0000000180041c08     libucrt:nlsdata.obj
 0002:00009c18       ??_C@_1BC@JGDDFFAM@?$AAF?$AAe?$AAb?$AAr?$AAu?$AAa?$AAr?$AAy?$AA?$AA@ 0000000180041c18     libucrt:nlsdata.obj
 0002:00009c30       ??_C@_1M@IKEENEDF@?$AAM?$AAa?$AAr?$AAc?$AAh?$AA?$AA@ 0000000180041c30     libucrt:nlsdata.obj
 0002:00009c40       ??_C@_1M@GJNLMHFD@?$AAA?$AAp?$AAr?$AAi?$AAl?$AA?$AA@ 0000000180041c40     libucrt:nlsdata.obj
 0002:00009c50       ??_C@_19EPFLPGAP@?$AAJ?$AAu?$AAn?$AAe?$AA?$AA@ 0000000180041c50     libucrt:nlsdata.obj
 0002:00009c60       ??_C@_19BIFMLPCD@?$AAJ?$AAu?$AAl?$AAy?$AA?$AA@ 0000000180041c60     libucrt:nlsdata.obj
 0002:00009c70       ??_C@_1O@PAHLKOAC@?$AAA?$AAu?$AAg?$AAu?$AAs?$AAt?$AA?$AA@ 0000000180041c70     libucrt:nlsdata.obj
 0002:00009c80       ??_C@_1BE@DKAAMBJL@?$AAS?$AAe?$AAp?$AAt?$AAe?$AAm?$AAb?$AAe?$AAr?$AA?$AA@ 0000000180041c80     libucrt:nlsdata.obj
 0002:00009c98       ??_C@_1BA@EPANDLNG@?$AAO?$AAc?$AAt?$AAo?$AAb?$AAe?$AAr?$AA?$AA@ 0000000180041c98     libucrt:nlsdata.obj
 0002:00009ca8       ??_C@_1BC@BGLIFPF@?$AAN?$AAo?$AAv?$AAe?$AAm?$AAb?$AAe?$AAr?$AA?$AA@ 0000000180041ca8     libucrt:nlsdata.obj
 0002:00009cc0       ??_C@_1BC@FEMKIFH@?$AAD?$AAe?$AAc?$AAe?$AAm?$AAb?$AAe?$AAr?$AA?$AA@ 0000000180041cc0     libucrt:nlsdata.obj
 0002:00009cd4       ??_C@_15ODEHAHHF@?$AAA?$AAM?$AA?$AA@ 0000000180041cd4     libucrt:nlsdata.obj
 0002:00009cdc       ??_C@_15CLMNNGEL@?$AAP?$AAM?$AA?$AA@ 0000000180041cdc     libucrt:nlsdata.obj
 0002:00009ce8       ??_C@_1BC@IEBCMHCM@?$AAM?$AAM?$AA?1?$AAd?$AAd?$AA?1?$AAy?$AAy?$AA?$AA@ 0000000180041ce8     libucrt:nlsdata.obj
 0002:00009d00       ??_C@_1CI@KNAKOEBC@?$AAd?$AAd?$AAd?$AAd?$AA?0?$AA?5?$AAM?$AAM?$AAM?$AAM?$AA?5?$AAd?$AAd?$AA?0?$AA?5?$AAy?$AAy?$AAy?$AAy?$AA?$AA@ 0000000180041d00     libucrt:nlsdata.obj
 0002:00009d28       ??_C@_1BC@GDGBMEMK@?$AAH?$AAH?$AA?3?$AAm?$AAm?$AA?3?$AAs?$AAs?$AA?$AA@ 0000000180041d28     libucrt:nlsdata.obj
 0002:00009de0       ??_C@_1EG@CNNIPFIM@?$AAa?$AAp?$AAi?$AA?9?$AAm?$AAs?$AA?9?$AAw?$AAi?$AAn?$AA?9?$AAa?$AAp?$AAp?$AAm?$AAo?$AAd?$AAe?$AAl?$AA?9?$AAr?$AAu?$AAn?$AAt?$AAi?$AAm?$AAe?$AA?9?$AAl?$AA1?$AA?9?$AA1@ 0000000180041de0     libucrt:winapi_thunks.obj
 0002:00009e30       ??_C@_1EA@JGEFHKEI@?$AAa?$AAp?$AAi?$AA?9?$AAm?$AAs?$AA?9?$AAw?$AAi?$AAn?$AA?9?$AAc?$AAo?$AAr?$AAe?$AA?9?$AAd?$AAa?$AAt?$AAe?$AAt?$AAi?$AAm?$AAe?$AA?9?$AAl?$AA1?$AA?9?$AA1?$AA?9?$AA1?$AA?$AA@ 0000000180041e30     libucrt:winapi_thunks.obj
 0002:00009e70       ??_C@_1DI@GCIAAENM@?$AAa?$AAp?$AAi?$AA?9?$AAm?$AAs?$AA?9?$AAw?$AAi?$AAn?$AA?9?$AAc?$AAo?$AAr?$AAe?$AA?9?$AAf?$AAi?$AAl?$AAe?$AA?9?$AAl?$AA2?$AA?9?$AA1?$AA?9?$AA1?$AA?$AA@ 0000000180041e70     libucrt:winapi_thunks.obj
 0002:00009eb0       ??_C@_1EI@MPIAOHOC@?$AAa?$AAp?$AAi?$AA?9?$AAm?$AAs?$AA?9?$AAw?$AAi?$AAn?$AA?9?$AAc?$AAo?$AAr?$AAe?$AA?9?$AAl?$AAo?$AAc?$AAa?$AAl?$AAi?$AAz?$AAa?$AAt?$AAi?$AAo?$AAn?$AA?9?$AAl?$AA1?$AA?9@ 0000000180041eb0     libucrt:winapi_thunks.obj
 0002:00009f00       ??_C@_1FK@FPHCKFIE@?$AAa?$AAp?$AAi?$AA?9?$AAm?$AAs?$AA?9?$AAw?$AAi?$AAn?$AA?9?$AAc?$AAo?$AAr?$AAe?$AA?9?$AAl?$AAo?$AAc?$AAa?$AAl?$AAi?$AAz?$AAa?$AAt?$AAi?$AAo?$AAn?$AA?9?$AAo?$AAb?$AAs@ 0000000180041f00     libucrt:winapi_thunks.obj
 0002:00009f60       ??_C@_1EM@DILCGIIO@?$AAa?$AAp?$AAi?$AA?9?$AAm?$AAs?$AA?9?$AAw?$AAi?$AAn?$AA?9?$AAc?$AAo?$AAr?$AAe?$AA?9?$AAp?$AAr?$AAo?$AAc?$AAe?$AAs?$AAs?$AAt?$AAh?$AAr?$AAe?$AAa?$AAd?$AAs?$AA?9?$AAl@ 0000000180041f60     libucrt:winapi_thunks.obj
 0002:00009fb0       ??_C@_1DM@LNCGDDPN@?$AAa?$AAp?$AAi?$AA?9?$AAm?$AAs?$AA?9?$AAw?$AAi?$AAn?$AA?9?$AAc?$AAo?$AAr?$AAe?$AA?9?$AAs?$AAt?$AAr?$AAi?$AAn?$AAg?$AA?9?$AAl?$AA1?$AA?9?$AA1?$AA?9?$AA0?$AA?$AA@ 0000000180041fb0     libucrt:winapi_thunks.obj
 0002:00009ff0       ??_C@_1DO@FPAPJEMD@?$AAa?$AAp?$AAi?$AA?9?$AAm?$AAs?$AA?9?$AAw?$AAi?$AAn?$AA?9?$AAc?$AAo?$AAr?$AAe?$AA?9?$AAs?$AAy?$AAs?$AAi?$AAn?$AAf?$AAo?$AA?9?$AAl?$AA1?$AA?9?$AA2?$AA?9?$AA1?$AA?$AA@ 0000000180041ff0     libucrt:winapi_thunks.obj
 0002:0000a030       ??_C@_1DK@NDHNAHIO@?$AAa?$AAp?$AAi?$AA?9?$AAm?$AAs?$AA?9?$AAw?$AAi?$AAn?$AA?9?$AAc?$AAo?$AAr?$AAe?$AA?9?$AAw?$AAi?$AAn?$AAr?$AAt?$AA?9?$AAl?$AA1?$AA?9?$AA1?$AA?9?$AA0?$AA?$AA@ 0000000180042030     libucrt:winapi_thunks.obj
 0002:0000a070       ??_C@_1DM@KGHDGBCM@?$AAa?$AAp?$AAi?$AA?9?$AAm?$AAs?$AA?9?$AAw?$AAi?$AAn?$AA?9?$AAc?$AAo?$AAr?$AAe?$AA?9?$AAx?$AAs?$AAt?$AAa?$AAt?$AAe?$AA?9?$AAl?$AA2?$AA?9?$AA1?$AA?9?$AA0?$AA?$AA@ 0000000180042070     libucrt:winapi_thunks.obj
 0002:0000a0b0       ??_C@_1EO@IJIOEFOH@?$AAa?$AAp?$AAi?$AA?9?$AAm?$AAs?$AA?9?$AAw?$AAi?$AAn?$AA?9?$AAr?$AAt?$AAc?$AAo?$AAr?$AAe?$AA?9?$AAn?$AAt?$AAu?$AAs?$AAe?$AAr?$AA?9?$AAw?$AAi?$AAn?$AAd?$AAo?$AAw?$AA?9@ 00000001800420b0     libucrt:winapi_thunks.obj
 0002:0000a100       ??_C@_1FG@HHGEKANL@?$AAa?$AAp?$AAi?$AA?9?$AAm?$AAs?$AA?9?$AAw?$AAi?$AAn?$AA?9?$AAs?$AAe?$AAc?$AAu?$AAr?$AAi?$AAt?$AAy?$AA?9?$AAs?$AAy?$AAs?$AAt?$AAe?$AAm?$AAf?$AAu?$AAn?$AAc?$AAt?$AAi@ 0000000180042100     libucrt:winapi_thunks.obj
 0002:0000a160       ??_C@_1FG@NCKKOLKO@?$AAe?$AAx?$AAt?$AA?9?$AAm?$AAs?$AA?9?$AAw?$AAi?$AAn?$AA?9?$AAk?$AAe?$AAr?$AAn?$AAe?$AAl?$AA3?$AA2?$AA?9?$AAp?$AAa?$AAc?$AAk?$AAa?$AAg?$AAe?$AA?9?$AAc?$AAu?$AAr?$AAr@ 0000000180042160     libucrt:winapi_thunks.obj
 0002:0000a1c0       ??_C@_1EG@DBIOJECG@?$AAe?$AAx?$AAt?$AA?9?$AAm?$AAs?$AA?9?$AAw?$AAi?$AAn?$AA?9?$AAn?$AAt?$AAu?$AAs?$AAe?$AAr?$AA?9?$AAd?$AAi?$AAa?$AAl?$AAo?$AAg?$AAb?$AAo?$AAx?$AA?9?$AAl?$AA1?$AA?9?$AA1@ 00000001800421c0     libucrt:winapi_thunks.obj
 0002:0000a210       ??_C@_1EO@FIHMJCLF@?$AAe?$AAx?$AAt?$AA?9?$AAm?$AAs?$AA?9?$AAw?$AAi?$AAn?$AA?9?$AAn?$AAt?$AAu?$AAs?$AAe?$AAr?$AA?9?$AAw?$AAi?$AAn?$AAd?$AAo?$AAw?$AAs?$AAt?$AAa?$AAt?$AAi?$AAo?$AAn?$AA?9@ 0000000180042210     libucrt:winapi_thunks.obj
 0002:0000a260       ??_C@_1O@BCCLBEOE@?$AAu?$AAs?$AAe?$AAr?$AA3?$AA2?$AA?$AA@ 0000000180042260     libucrt:winapi_thunks.obj
 0002:0000a278       ??_C@_0BA@FHFNEAED@AreFileApisANSI?$AA@ 0000000180042278     libucrt:winapi_thunks.obj
 0002:0000a298       ??_C@_0BE@LJANKFHF@EnumSystemLocalesEx?$AA@ 0000000180042298     libucrt:winapi_thunks.obj
 0002:0000a2d8       ??_C@_0BA@HNOPNCHB@GetActiveWindow?$AA@ 00000001800422d8     libucrt:winapi_thunks.obj
 0002:0000a2f8       ??_C@_0BD@HHGDFDBJ@GetLastActivePopup?$AA@ 00000001800422f8     libucrt:winapi_thunks.obj
 0002:0000a320       ??_C@_0BI@DFKBFLJE@GetProcessWindowStation?$AA@ 0000000180042320     libucrt:winapi_thunks.obj
 0002:0000a348       ??_C@_0BJ@PBCCBIPI@GetUserDefaultLocaleName?$AA@ 0000000180042348     libucrt:winapi_thunks.obj
 0002:0000a370       ??_C@_0BK@DEKFELLI@GetUserObjectInformationW?$AA@ 0000000180042370     libucrt:winapi_thunks.obj
 0002:0000a3a0       ??_C@_0BC@CELBKLLA@IsValidLocaleName?$AA@ 00000001800423a0     libucrt:winapi_thunks.obj
 0002:0000a3c8       ??_C@_0BB@CDHDDLLP@LCIDToLocaleName?$AA@ 00000001800423c8     libucrt:winapi_thunks.obj
 0002:0000a3e8       ??_C@_0BB@HBDEELFH@LocaleNameToLCID?$AA@ 00000001800423e8     libucrt:winapi_thunks.obj
 0002:0000a408       ??_C@_0M@CHKKJDAI@MessageBoxA?$AA@ 0000000180042408     libucrt:winapi_thunks.obj
 0002:0000a420       ??_C@_0M@DLDCCGNP@MessageBoxW?$AA@ 0000000180042420     libucrt:winapi_thunks.obj
 0002:0000a600       ??_C@_03KHJOGHMM@exp?$AA@  0000000180042600     libucrt:fpexcept.obj
 0002:0000a604       ??_C@_03JGHBODFD@pow?$AA@  0000000180042604     libucrt:fpexcept.obj
 0002:0000a608       ??_C@_03MGHMBJCF@log?$AA@  0000000180042608     libucrt:fpexcept.obj
 0002:0000a60c       ??_C@_05HGHHAHAP@log10?$AA@ 000000018004260c     libucrt:fpexcept.obj
 0002:0000a614       ??_C@_04COOMCNPB@sinh?$AA@ 0000000180042614     libucrt:fpexcept.obj
 0002:0000a61c       ??_C@_04HPJJNFIM@cosh?$AA@ 000000018004261c     libucrt:fpexcept.obj
 0002:0000a624       ??_C@_04FJHINJAO@tanh?$AA@ 0000000180042624     libucrt:fpexcept.obj
 0002:0000a62c       ??_C@_04FIHNOPOL@asin?$AA@ 000000018004262c     libucrt:fpexcept.obj
 0002:0000a634       ??_C@_04PDIFKINK@acos?$AA@ 0000000180042634     libucrt:fpexcept.obj
 0002:0000a63c       ??_C@_04MLLJIGOK@atan?$AA@ 000000018004263c     libucrt:fpexcept.obj
 0002:0000a644       ??_C@_05KNGEOGJB@atan2?$AA@ 0000000180042644     libucrt:fpexcept.obj
 0002:0000a64c       ??_C@_04EIAKFFMI@sqrt?$AA@ 000000018004264c     libucrt:fpexcept.obj
 0002:0000a654       ??_C@_03BLEJJJBH@sin?$AA@  0000000180042654     libucrt:fpexcept.obj
 0002:0000a658       ??_C@_03LALBNOCG@cos?$AA@  0000000180042658     libucrt:fpexcept.obj
 0002:0000a65c       ??_C@_03IIINPABG@tan?$AA@  000000018004265c     libucrt:fpexcept.obj
 0002:0000a660       ??_C@_04GFPJNGEK@ceil?$AA@ 0000000180042660     libucrt:fpexcept.obj
 0002:0000a668       ??_C@_05PBJFFIGL@floor?$AA@ 0000000180042668     libucrt:fpexcept.obj
 0002:0000a670       ??_C@_04ODHECPBC@fabs?$AA@ 0000000180042670     libucrt:fpexcept.obj
 0002:0000a678       ??_C@_04EHEDPDJG@modf?$AA@ 0000000180042678     libucrt:fpexcept.obj
 0002:0000a680       ??_C@_05CEJMAHNP@ldexp?$AA@ 0000000180042680     libucrt:fpexcept.obj
 0002:0000a688       ??_C@_05KBKMEMPO@_cabs?$AA@ 0000000180042688     libucrt:fpexcept.obj
 0002:0000a690       ??_C@_06MEIMCGCF@_hypot?$AA@ 0000000180042690     libucrt:fpexcept.obj
 0002:0000a698       ??_C@_04KEPJIHGP@fmod?$AA@ 0000000180042698     libucrt:fpexcept.obj
 0002:0000a6a0       ??_C@_05GKKHEGJL@frexp?$AA@ 00000001800426a0     libucrt:fpexcept.obj
 0002:0000a6a8       ??_C@_03MJLDFKDL@_y0?$AA@  00000001800426a8     libucrt:fpexcept.obj
 0002:0000a6ac       ??_C@_03NAKIGLHK@_y1?$AA@  00000001800426ac     libucrt:fpexcept.obj
 0002:0000a6b0       ??_C@_03ONILCKOB@_yn?$AA@  00000001800426b0     libucrt:fpexcept.obj
 0002:0000a6b4       ??_C@_05JGDBENOH@_logb?$AA@ 00000001800426b4     libucrt:fpexcept.obj
 0002:0000a6c0       ??_C@_0L@KDOEJCKC@_nextafter?$AA@ 00000001800426c0     libucrt:fpexcept.obj
 0002:0000a6d0       _d_inf                     00000001800426d0     libucrt:util.obj
 0002:0000a6d8       _d_max                     00000001800426d8     libucrt:util.obj
 0002:0000a6e0       ?ccs@?BL@???$__acrt_stdio_parse_mode@D@@YA?AU__acrt_stdio_stream_mode@@QEBD@Z@4QBDB 00000001800426e0     libucrt:openfile.obj
 0002:0000a6e4       ?utf8_encoding@?BL@???$__acrt_stdio_parse_mode@D@@YA?AU__acrt_stdio_stream_mode@@QEBD@Z@4QBDB 00000001800426e4     libucrt:openfile.obj
 0002:0000a6f0       ?utf16_encoding@?BL@???$__acrt_stdio_parse_mode@D@@YA?AU__acrt_stdio_stream_mode@@QEBD@Z@4QBDB 00000001800426f0     libucrt:openfile.obj
 0002:0000a6f8       ?unicode_encoding@?BL@???$__acrt_stdio_parse_mode@D@@YA?AU__acrt_stdio_stream_mode@@QEBD@Z@4QBDB 00000001800426f8     libucrt:openfile.obj
 0002:0000a700       __log_256_lead             0000000180042700     libucrt:log_256_lead_tail_table.obj
 0002:0000af10       __log_256_tail             0000000180042f10     libucrt:log_256_lead_tail_table.obj
 0002:0000b720       __two_to_jby64_head_table  0000000180043720     libucrt:two_to_jby64_head_tail_table.obj
 0002:0000b920       __two_to_jby64_tail_table  0000000180043920     libucrt:two_to_jby64_head_tail_table.obj
 0002:0000bb20       ??_C@_04MBFDLNIM@powf?$AA@ 0000000180043b20     libucrt:pow_special.obj
 0002:0000bb30       __two_to_jby64_table       0000000180043b30     libucrt:two_to_jby64_table.obj
 0002:0000bd30       __log_F_inv_qword          0000000180043d30     libucrt:log_f_inv_qword_table.obj
 0002:0000c560       ??_C@_01GBGANLPD@0?$AA@    0000000180044560     libucrt:cfout.obj
 0002:0000c564       ??_C@_05DNEBIAHO@1?$CDINF?$AA@ 0000000180044564     libucrt:cfout.obj
 0002:0000c56c       ??_C@_06IMKFLFPG@1?$CDQNAN?$AA@ 000000018004456c     libucrt:cfout.obj
 0002:0000c574       ??_C@_06PGGFOGJG@1?$CDSNAN?$AA@ 0000000180044574     libucrt:cfout.obj
 0002:0000c57c       ??_C@_05PHHOCPM@1?$CDIND?$AA@ 000000018004457c     libucrt:cfout.obj
 0002:0000c590       __acrt_rg_language         0000000180044590     libucrt:get_qualified_locale.obj
 0002:0000c9a0       __acrt_rg_language_count   00000001800449a0     libucrt:get_qualified_locale.obj
 0002:0000c9b0       __acrt_rg_country          00000001800449b0     libucrt:get_qualified_locale.obj
 0002:0000cb20       __acrt_rg_country_count    0000000180044b20     libucrt:get_qualified_locale.obj
 0002:0000cb28       ??_C@_1BC@LLOKLNP@?$AAa?$AAm?$AAe?$AAr?$AAi?$AAc?$AAa?$AAn?$AA?$AA@ 0000000180044b28     libucrt:get_qualified_locale.obj
 0002:0000cb40       ??_C@_1CC@HEIGCDGG@?$AAa?$AAm?$AAe?$AAr?$AAi?$AAc?$AAa?$AAn?$AA?5?$AAe?$AAn?$AAg?$AAl?$AAi?$AAs?$AAh?$AA?$AA@ 0000000180044b40     libucrt:get_qualified_locale.obj
 0002:0000cb68       ??_C@_1CC@IHCNOMIN@?$AAa?$AAm?$AAe?$AAr?$AAi?$AAc?$AAa?$AAn?$AA?9?$AAe?$AAn?$AAg?$AAl?$AAi?$AAs?$AAh?$AA?$AA@ 0000000180044b68     libucrt:get_qualified_locale.obj
 0002:0000cb90       ??_C@_1BG@GKAGPCGG@?$AAa?$AAu?$AAs?$AAt?$AAr?$AAa?$AAl?$AAi?$AAa?$AAn?$AA?$AA@ 0000000180044b90     libucrt:get_qualified_locale.obj
 0002:0000cba8       ??_C@_1BA@GMENCENF@?$AAb?$AAe?$AAl?$AAg?$AAi?$AAa?$AAn?$AA?$AA@ 0000000180044ba8     libucrt:get_qualified_locale.obj
 0002:0000cbb8       ??_C@_1BC@PJMIIAAN@?$AAc?$AAa?$AAn?$AAa?$AAd?$AAi?$AAa?$AAn?$AA?$AA@ 0000000180044bb8     libucrt:get_qualified_locale.obj
 0002:0000cbd0       ??_C@_17NOIMNFBF@?$AAc?$AAh?$AAh?$AA?$AA@ 0000000180044bd0     libucrt:get_qualified_locale.obj
 0002:0000cbd8       ??_C@_17GGDALCHA@?$AAc?$AAh?$AAi?$AA?$AA@ 0000000180044bd8     libucrt:get_qualified_locale.obj
 0002:0000cbe0       ??_C@_1BA@NPNJKIBL@?$AAc?$AAh?$AAi?$AAn?$AAe?$AAs?$AAe?$AA?$AA@ 0000000180044be0     libucrt:get_qualified_locale.obj
 0002:0000cbf0       ??_C@_1CC@DINBAMMJ@?$AAc?$AAh?$AAi?$AAn?$AAe?$AAs?$AAe?$AA?9?$AAh?$AAo?$AAn?$AAg?$AAk?$AAo?$AAn?$AAg?$AA?$AA@ 0000000180044bf0     libucrt:get_qualified_locale.obj
 0002:0000cc18       ??_C@_1CG@IOBJPACO@?$AAc?$AAh?$AAi?$AAn?$AAe?$AAs?$AAe?$AA?9?$AAs?$AAi?$AAm?$AAp?$AAl?$AAi?$AAf?$AAi?$AAe?$AAd?$AA?$AA@ 0000000180044c18     libucrt:get_qualified_locale.obj
 0002:0000cc40       ??_C@_1CE@GAJNDCKG@?$AAc?$AAh?$AAi?$AAn?$AAe?$AAs?$AAe?$AA?9?$AAs?$AAi?$AAn?$AAg?$AAa?$AAp?$AAo?$AAr?$AAe?$AA?$AA@ 0000000180044c40     libucrt:get_qualified_locale.obj
 0002:0000cc68       ??_C@_1CI@PAJPIOOD@?$AAc?$AAh?$AAi?$AAn?$AAe?$AAs?$AAe?$AA?9?$AAt?$AAr?$AAa?$AAd?$AAi?$AAt?$AAi?$AAo?$AAn?$AAa?$AAl?$AA?$AA@ 0000000180044c68     libucrt:get_qualified_locale.obj
 0002:0000cc90       ??_C@_1BM@NILJBMMD@?$AAd?$AAu?$AAt?$AAc?$AAh?$AA?9?$AAb?$AAe?$AAl?$AAg?$AAi?$AAa?$AAn?$AA?$AA@ 0000000180044c90     libucrt:get_qualified_locale.obj
 0002:0000ccb0       ??_C@_1CC@OOJPJNEJ@?$AAe?$AAn?$AAg?$AAl?$AAi?$AAs?$AAh?$AA?9?$AAa?$AAm?$AAe?$AAr?$AAi?$AAc?$AAa?$AAn?$AA?$AA@ 0000000180044cb0     libucrt:get_qualified_locale.obj
 0002:0000ccd8       ??_C@_1BI@IOLFEEM@?$AAe?$AAn?$AAg?$AAl?$AAi?$AAs?$AAh?$AA?9?$AAa?$AAu?$AAs?$AA?$AA@ 0000000180044cd8     libucrt:get_qualified_locale.obj
 0002:0000ccf0       ??_C@_1BO@HFFNLENJ@?$AAe?$AAn?$AAg?$AAl?$AAi?$AAs?$AAh?$AA?9?$AAb?$AAe?$AAl?$AAi?$AAz?$AAe?$AA?$AA@ 0000000180044cf0     libucrt:get_qualified_locale.obj
 0002:0000cd10       ??_C@_1BI@HAPKJMPO@?$AAe?$AAn?$AAg?$AAl?$AAi?$AAs?$AAh?$AA?9?$AAc?$AAa?$AAn?$AA?$AA@ 0000000180044d10     libucrt:get_qualified_locale.obj
 0002:0000cd28       ??_C@_1CE@HLNDMIOJ@?$AAe?$AAn?$AAg?$AAl?$AAi?$AAs?$AAh?$AA?9?$AAc?$AAa?$AAr?$AAi?$AAb?$AAb?$AAe?$AAa?$AAn?$AA?$AA@ 0000000180044d28     libucrt:get_qualified_locale.obj
 0002:0000cd50       ??_C@_1BI@LDHJHHAC@?$AAe?$AAn?$AAg?$AAl?$AAi?$AAs?$AAh?$AA?9?$AAi?$AAr?$AAe?$AA?$AA@ 0000000180044d50     libucrt:get_qualified_locale.obj
 0002:0000cd68       ??_C@_1CA@NJMMCFOC@?$AAe?$AAn?$AAg?$AAl?$AAi?$AAs?$AAh?$AA?9?$AAj?$AAa?$AAm?$AAa?$AAi?$AAc?$AAa?$AA?$AA@ 0000000180044d68     libucrt:get_qualified_locale.obj
 0002:0000cd88       ??_C@_1BG@BHJEBBGG@?$AAe?$AAn?$AAg?$AAl?$AAi?$AAs?$AAh?$AA?9?$AAn?$AAz?$AA?$AA@ 0000000180044d88     libucrt:get_qualified_locale.obj
 0002:0000cda0       ??_C@_1CK@FGOEJJCO@?$AAe?$AAn?$AAg?$AAl?$AAi?$AAs?$AAh?$AA?9?$AAs?$AAo?$AAu?$AAt?$AAh?$AA?5?$AAa?$AAf?$AAr?$AAi?$AAc?$AAa?$AA?$AA@ 0000000180044da0     libucrt:get_qualified_locale.obj
 0002:0000cdd0       ??_C@_1DE@PDBJPCJ@?$AAe?$AAn?$AAg?$AAl?$AAi?$AAs?$AAh?$AA?9?$AAt?$AAr?$AAi?$AAn?$AAi?$AAd?$AAa?$AAd?$AA?5?$AAy?$AA?5?$AAt?$AAo?$AAb?$AAa?$AAg?$AAo?$AA?$AA@ 0000000180044dd0     libucrt:get_qualified_locale.obj
 0002:0000ce08       ??_C@_1BG@JGCANDME@?$AAe?$AAn?$AAg?$AAl?$AAi?$AAs?$AAh?$AA?9?$AAu?$AAk?$AA?$AA@ 0000000180044e08     libucrt:get_qualified_locale.obj
 0002:0000ce20       ??_C@_1BG@DINKMLE@?$AAe?$AAn?$AAg?$AAl?$AAi?$AAs?$AAh?$AA?9?$AAu?$AAs?$AA?$AA@ 0000000180044e20     libucrt:get_qualified_locale.obj
 0002:0000ce38       ??_C@_1BI@NMFDBHJE@?$AAe?$AAn?$AAg?$AAl?$AAi?$AAs?$AAh?$AA?9?$AAu?$AAs?$AAa?$AA?$AA@ 0000000180044e38     libucrt:get_qualified_locale.obj
 0002:0000ce50       ??_C@_1BO@OIHKJKII@?$AAf?$AAr?$AAe?$AAn?$AAc?$AAh?$AA?9?$AAb?$AAe?$AAl?$AAg?$AAi?$AAa?$AAn?$AA?$AA@ 0000000180044e50     libucrt:get_qualified_locale.obj
 0002:0000ce70       ??_C@_1CA@NKAELJKI@?$AAf?$AAr?$AAe?$AAn?$AAc?$AAh?$AA?9?$AAc?$AAa?$AAn?$AAa?$AAd?$AAi?$AAa?$AAn?$AA?$AA@ 0000000180044e70     libucrt:get_qualified_locale.obj
 0002:0000ce90       ??_C@_1CE@MGKCNLGN@?$AAf?$AAr?$AAe?$AAn?$AAc?$AAh?$AA?9?$AAl?$AAu?$AAx?$AAe?$AAm?$AAb?$AAo?$AAu?$AAr?$AAg?$AA?$AA@ 0000000180044e90     libucrt:get_qualified_locale.obj
 0002:0000ceb8       ??_C@_1BK@CEGEAILM@?$AAf?$AAr?$AAe?$AAn?$AAc?$AAh?$AA?9?$AAs?$AAw?$AAi?$AAs?$AAs?$AA?$AA@ 0000000180044eb8     libucrt:get_qualified_locale.obj
 0002:0000ced8       ??_C@_1CA@PAFKEOCC@?$AAg?$AAe?$AAr?$AAm?$AAa?$AAn?$AA?9?$AAa?$AAu?$AAs?$AAt?$AAr?$AAi?$AAa?$AAn?$AA?$AA@ 0000000180044ed8     libucrt:get_qualified_locale.obj
 0002:0000cef8       ??_C@_1CI@HCFHGOFD@?$AAg?$AAe?$AAr?$AAm?$AAa?$AAn?$AA?9?$AAl?$AAi?$AAc?$AAh?$AAt?$AAe?$AAn?$AAs?$AAt?$AAe?$AAi?$AAn?$AA?$AA@ 0000000180044ef8     libucrt:get_qualified_locale.obj
 0002:0000cf20       ??_C@_1CE@FEDDNPDG@?$AAg?$AAe?$AAr?$AAm?$AAa?$AAn?$AA?9?$AAl?$AAu?$AAx?$AAe?$AAm?$AAb?$AAo?$AAu?$AAr?$AAg?$AA?$AA@ 0000000180044f20     libucrt:get_qualified_locale.obj
 0002:0000cf48       ??_C@_1BK@LIMINNMN@?$AAg?$AAe?$AAr?$AAm?$AAa?$AAn?$AA?9?$AAs?$AAw?$AAi?$AAs?$AAs?$AA?$AA@ 0000000180044f48     libucrt:get_qualified_locale.obj
 0002:0000cf68       ??_C@_1BM@LGMDBEPD@?$AAi?$AAr?$AAi?$AAs?$AAh?$AA?9?$AAe?$AAn?$AAg?$AAl?$AAi?$AAs?$AAh?$AA?$AA@ 0000000180044f68     libucrt:get_qualified_locale.obj
 0002:0000cf88       ??_C@_1BM@NNCFBAEE@?$AAi?$AAt?$AAa?$AAl?$AAi?$AAa?$AAn?$AA?9?$AAs?$AAw?$AAi?$AAs?$AAs?$AA?$AA@ 0000000180044f88     libucrt:get_qualified_locale.obj
 0002:0000cfa8       ??_C@_1BE@FEDJNPIB@?$AAn?$AAo?$AAr?$AAw?$AAe?$AAg?$AAi?$AAa?$AAn?$AA?$AA@ 0000000180044fa8     libucrt:get_qualified_locale.obj
 0002:0000cfc0       ??_C@_1CC@CILKDEIE@?$AAn?$AAo?$AAr?$AAw?$AAe?$AAg?$AAi?$AAa?$AAn?$AA?9?$AAb?$AAo?$AAk?$AAm?$AAa?$AAl?$AA?$AA@ 0000000180044fc0     libucrt:get_qualified_locale.obj
 0002:0000cfe8       ??_C@_1CE@DHMMHEPL@?$AAn?$AAo?$AAr?$AAw?$AAe?$AAg?$AAi?$AAa?$AAn?$AA?9?$AAn?$AAy?$AAn?$AAo?$AAr?$AAs?$AAk?$AA?$AA@ 0000000180044fe8     libucrt:get_qualified_locale.obj
 0002:0000d010       ??_C@_1CK@OPNMHECD@?$AAp?$AAo?$AAr?$AAt?$AAu?$AAg?$AAu?$AAe?$AAs?$AAe?$AA?9?$AAb?$AAr?$AAa?$AAz?$AAi?$AAl?$AAi?$AAa?$AAn?$AA?$AA@ 0000000180045010     libucrt:get_qualified_locale.obj
 0002:0000d040       ??_C@_1CE@KEEHCDB@?$AAs?$AAp?$AAa?$AAn?$AAi?$AAs?$AAh?$AA?9?$AAa?$AAr?$AAg?$AAe?$AAn?$AAt?$AAi?$AAn?$AAa?$AA?$AA@ 0000000180045040     libucrt:get_qualified_locale.obj
 0002:0000d068       ??_C@_1CA@GIAOLHJD@?$AAs?$AAp?$AAa?$AAn?$AAi?$AAs?$AAh?$AA?9?$AAb?$AAo?$AAl?$AAi?$AAv?$AAi?$AAa?$AA?$AA@ 0000000180045068     libucrt:get_qualified_locale.obj
 0002:0000d088       ??_C@_1BM@OJNDFNPD@?$AAs?$AAp?$AAa?$AAn?$AAi?$AAs?$AAh?$AA?9?$AAc?$AAh?$AAi?$AAl?$AAe?$AA?$AA@ 0000000180045088     libucrt:get_qualified_locale.obj
 0002:0000d0a8       ??_C@_1CC@OCOLPALL@?$AAs?$AAp?$AAa?$AAn?$AAi?$AAs?$AAh?$AA?9?$AAc?$AAo?$AAl?$AAo?$AAm?$AAb?$AAi?$AAa?$AA?$AA@ 00000001800450a8     libucrt:get_qualified_locale.obj
 0002:0000d0d0       ??_C@_1CG@BPOFMKBB@?$AAs?$AAp?$AAa?$AAn?$AAi?$AAs?$AAh?$AA?9?$AAc?$AAo?$AAs?$AAt?$AAa?$AA?5?$AAr?$AAi?$AAc?$AAa?$AA?$AA@ 00000001800450d0     libucrt:get_qualified_locale.obj
 0002:0000d0f8       ??_C@_1DG@IGOBAPBB@?$AAs?$AAp?$AAa?$AAn?$AAi?$AAs?$AAh?$AA?9?$AAd?$AAo?$AAm?$AAi?$AAn?$AAi?$AAc?$AAa?$AAn?$AA?5?$AAr?$AAe?$AAp?$AAu?$AAb?$AAl?$AAi?$AAc?$AA?$AA@ 00000001800450f8     libucrt:get_qualified_locale.obj
 0002:0000d130       ??_C@_1CA@JHAPGEGI@?$AAs?$AAp?$AAa?$AAn?$AAi?$AAs?$AAh?$AA?9?$AAe?$AAc?$AAu?$AAa?$AAd?$AAo?$AAr?$AA?$AA@ 0000000180045130     libucrt:get_qualified_locale.obj
 0002:0000d150       ??_C@_1CI@LAPALJPP@?$AAs?$AAp?$AAa?$AAn?$AAi?$AAs?$AAh?$AA?9?$AAe?$AAl?$AA?5?$AAs?$AAa?$AAl?$AAv?$AAa?$AAd?$AAo?$AAr?$AA?$AA@ 0000000180045150     libucrt:get_qualified_locale.obj
 0002:0000d178       ??_C@_1CE@PDGBOFOM@?$AAs?$AAp?$AAa?$AAn?$AAi?$AAs?$AAh?$AA?9?$AAg?$AAu?$AAa?$AAt?$AAe?$AAm?$AAa?$AAl?$AAa?$AA?$AA@ 0000000180045178     libucrt:get_qualified_locale.obj
 0002:0000d1a0       ??_C@_1CC@NBEBAODI@?$AAs?$AAp?$AAa?$AAn?$AAi?$AAs?$AAh?$AA?9?$AAh?$AAo?$AAn?$AAd?$AAu?$AAr?$AAa?$AAs?$AA?$AA@ 00000001800451a0     libucrt:get_qualified_locale.obj
 0002:0000d1c8       ??_C@_1CA@LLKGHBMF@?$AAs?$AAp?$AAa?$AAn?$AAi?$AAs?$AAh?$AA?9?$AAm?$AAe?$AAx?$AAi?$AAc?$AAa?$AAn?$AA?$AA@ 00000001800451c8     libucrt:get_qualified_locale.obj
 0002:0000d1e8       ??_C@_1BO@LKNDOIGD@?$AAs?$AAp?$AAa?$AAn?$AAi?$AAs?$AAh?$AA?9?$AAm?$AAo?$AAd?$AAe?$AAr?$AAn?$AA?$AA@ 00000001800451e8     libucrt:get_qualified_locale.obj
 0002:0000d208       ??_C@_1CE@NMDMOEEB@?$AAs?$AAp?$AAa?$AAn?$AAi?$AAs?$AAh?$AA?9?$AAn?$AAi?$AAc?$AAa?$AAr?$AAa?$AAg?$AAu?$AAa?$AA?$AA@ 0000000180045208     libucrt:get_qualified_locale.obj
 0002:0000d230       ??_C@_1BO@LLCBEJGB@?$AAs?$AAp?$AAa?$AAn?$AAi?$AAs?$AAh?$AA?9?$AAp?$AAa?$AAn?$AAa?$AAm?$AAa?$AA?$AA@ 0000000180045230     libucrt:get_qualified_locale.obj
 0002:0000d250       ??_C@_1CC@FKPGGIHO@?$AAs?$AAp?$AAa?$AAn?$AAi?$AAs?$AAh?$AA?9?$AAp?$AAa?$AAr?$AAa?$AAg?$AAu?$AAa?$AAy?$AA?$AA@ 0000000180045250     libucrt:get_qualified_locale.obj
 0002:0000d278       ??_C@_1BK@CDEIHOOP@?$AAs?$AAp?$AAa?$AAn?$AAi?$AAs?$AAh?$AA?9?$AAp?$AAe?$AAr?$AAu?$AA?$AA@ 0000000180045278     libucrt:get_qualified_locale.obj
 0002:0000d298       ??_C@_1CI@GAHAKKGP@?$AAs?$AAp?$AAa?$AAn?$AAi?$AAs?$AAh?$AA?9?$AAp?$AAu?$AAe?$AAr?$AAt?$AAo?$AA?5?$AAr?$AAi?$AAc?$AAo?$AA?$AA@ 0000000180045298     libucrt:get_qualified_locale.obj
 0002:0000d2c0       ??_C@_1CA@NKJBCAGP@?$AAs?$AAp?$AAa?$AAn?$AAi?$AAs?$AAh?$AA?9?$AAu?$AAr?$AAu?$AAg?$AAu?$AAa?$AAy?$AA?$AA@ 00000001800452c0     libucrt:get_qualified_locale.obj
 0002:0000d2e0       ??_C@_1CE@ODILCONM@?$AAs?$AAp?$AAa?$AAn?$AAi?$AAs?$AAh?$AA?9?$AAv?$AAe?$AAn?$AAe?$AAz?$AAu?$AAe?$AAl?$AAa?$AA?$AA@ 00000001800452e0     libucrt:get_qualified_locale.obj
 0002:0000d308       ??_C@_1CA@OBNMCGFO@?$AAs?$AAw?$AAe?$AAd?$AAi?$AAs?$AAh?$AA?9?$AAf?$AAi?$AAn?$AAl?$AAa?$AAn?$AAd?$AA?$AA@ 0000000180045308     libucrt:get_qualified_locale.obj
 0002:0000d328       ??_C@_1M@PIPDDPPI@?$AAs?$AAw?$AAi?$AAs?$AAs?$AA?$AA@ 0000000180045328     libucrt:get_qualified_locale.obj
 0002:0000d334       ??_C@_15GMFIMNFM@?$AAu?$AAs?$AA?$AA@ 0000000180045334     libucrt:get_qualified_locale.obj
 0002:0000d340       ??_C@_17HAEBFAGL@?$AAu?$AAs?$AAa?$AA?$AA@ 0000000180045340     libucrt:get_qualified_locale.obj
 0002:0000d348       ??_C@_1BA@DPFJEPHB@?$AAa?$AAm?$AAe?$AAr?$AAi?$AAc?$AAa?$AA?$AA@ 0000000180045348     libucrt:get_qualified_locale.obj
 0002:0000d358       ??_C@_1BA@ELOGGFK@?$AAb?$AAr?$AAi?$AAt?$AAa?$AAi?$AAn?$AA?$AA@ 0000000180045358     libucrt:get_qualified_locale.obj
 0002:0000d368       ??_C@_1M@GHBGIGDA@?$AAc?$AAh?$AAi?$AAn?$AAa?$AA?$AA@ 0000000180045368     libucrt:get_qualified_locale.obj
 0002:0000d378       ??_C@_1M@NCHEJOPO@?$AAc?$AAz?$AAe?$AAc?$AAh?$AA?$AA@ 0000000180045378     libucrt:get_qualified_locale.obj
 0002:0000d388       ??_C@_1BA@BKPAPBLA@?$AAe?$AAn?$AAg?$AAl?$AAa?$AAn?$AAd?$AA?$AA@ 0000000180045388     libucrt:get_qualified_locale.obj
 0002:0000d398       ??_C@_1BM@HKBCKIPC@?$AAg?$AAr?$AAe?$AAa?$AAt?$AA?5?$AAb?$AAr?$AAi?$AAt?$AAa?$AAi?$AAn?$AA?$AA@ 0000000180045398     libucrt:get_qualified_locale.obj
 0002:0000d3b8       ??_C@_1BA@PPCHPGJB@?$AAh?$AAo?$AAl?$AAl?$AAa?$AAn?$AAd?$AA?$AA@ 00000001800453b8     libucrt:get_qualified_locale.obj
 0002:0000d3c8       ??_C@_1BE@JBMPEGDG@?$AAh?$AAo?$AAn?$AAg?$AA?9?$AAk?$AAo?$AAn?$AAg?$AA?$AA@ 00000001800453c8     libucrt:get_qualified_locale.obj
 0002:0000d3e0       ??_C@_1BI@KOELBBPJ@?$AAn?$AAe?$AAw?$AA?9?$AAz?$AAe?$AAa?$AAl?$AAa?$AAn?$AAd?$AA?$AA@ 00000001800453e0     libucrt:get_qualified_locale.obj
 0002:0000d3f8       ??_C@_15HIEBHAIO@?$AAn?$AAz?$AA?$AA@ 00000001800453f8     libucrt:get_qualified_locale.obj
 0002:0000d400       ??_C@_1BC@CHBCPFPI@?$AAp?$AAr?$AA?5?$AAc?$AAh?$AAi?$AAn?$AAa?$AA?$AA@ 0000000180045400     libucrt:get_qualified_locale.obj
 0002:0000d418       ??_C@_1BC@JAOIIFKD@?$AAp?$AAr?$AA?9?$AAc?$AAh?$AAi?$AAn?$AAa?$AA?$AA@ 0000000180045418     libucrt:get_qualified_locale.obj
 0002:0000d430       ??_C@_1BI@BEHPPHKC@?$AAp?$AAu?$AAe?$AAr?$AAt?$AAo?$AA?9?$AAr?$AAi?$AAc?$AAo?$AA?$AA@ 0000000180045430     libucrt:get_qualified_locale.obj
 0002:0000d448       ??_C@_1O@PAEOFKDI@?$AAs?$AAl?$AAo?$AAv?$AAa?$AAk?$AA?$AA@ 0000000180045448     libucrt:get_qualified_locale.obj
 0002:0000d458       ??_C@_1BK@FIHMCKAM@?$AAs?$AAo?$AAu?$AAt?$AAh?$AA?5?$AAa?$AAf?$AAr?$AAi?$AAc?$AAa?$AA?$AA@ 0000000180045458     libucrt:get_qualified_locale.obj
 0002:0000d478       ??_C@_1BI@NAEOODKB@?$AAs?$AAo?$AAu?$AAt?$AAh?$AA?5?$AAk?$AAo?$AAr?$AAe?$AAa?$AA?$AA@ 0000000180045478     libucrt:get_qualified_locale.obj
 0002:0000d490       ??_C@_1BK@FBDGGIFF@?$AAs?$AAo?$AAu?$AAt?$AAh?$AA?9?$AAa?$AAf?$AAr?$AAi?$AAc?$AAa?$AA?$AA@ 0000000180045490     libucrt:get_qualified_locale.obj
 0002:0000d4b0       ??_C@_1BI@GHLEJDPK@?$AAs?$AAo?$AAu?$AAt?$AAh?$AA?9?$AAk?$AAo?$AAr?$AAe?$AAa?$AA?$AA@ 00000001800454b0     libucrt:get_qualified_locale.obj
 0002:0000d4c8       ??_C@_1CE@PLHLOMJF@?$AAt?$AAr?$AAi?$AAn?$AAi?$AAd?$AAa?$AAd?$AA?5?$AA?$CG?$AA?5?$AAt?$AAo?$AAb?$AAa?$AAg?$AAo?$AA?$AA@ 00000001800454c8     libucrt:get_qualified_locale.obj
 0002:0000d4f0       ??_C@_1BO@MODIMHHI@?$AAu?$AAn?$AAi?$AAt?$AAe?$AAd?$AA?9?$AAk?$AAi?$AAn?$AAg?$AAd?$AAo?$AAm?$AA?$AA@ 00000001800454f0     libucrt:get_qualified_locale.obj
 0002:0000d510       ??_C@_1BM@FFHJONBJ@?$AAu?$AAn?$AAi?$AAt?$AAe?$AAd?$AA?9?$AAs?$AAt?$AAa?$AAt?$AAe?$AAs?$AA?$AA@ 0000000180045510     libucrt:get_qualified_locale.obj
 0002:0000d530       ??_C@_17DNCLJFIF@?$AAA?$AAC?$AAP?$AA?$AA@ 0000000180045530     libucrt:get_qualified_locale.obj
 0002:0000d538       ??_C@_17CIKBIHLH@?$AAO?$AAC?$AAP?$AA?$AA@ 0000000180045538     libucrt:get_qualified_locale.obj
 0002:0000d540       __rglangidNotDefault       0000000180045540     libucrt:getqloc_downlevel.obj
 0002:0000f1f0       ??_C@_1BA@BALFACEM@?$AAC?$AAO?$AAN?$AAO?$AAU?$AAT?$AA$?$AA?$AA@ 00000001800471f0     libucrt:initcon.obj
 0002:0000f450       __log10_256_lead           0000000180047450     libucrt:log10_256_lead_tail_table.obj
 0002:0000fc60       __log10_256_tail           0000000180047c60     libucrt:log10_256_lead_tail_table.obj
 0002:00010468       ??_C@_1BK@DBDEIDLH@?$AAK?$AAE?$AAR?$AAN?$AAE?$AAL?$AA3?$AA2?$AA?4?$AAD?$AAL?$AAL?$AA?$AA@ 0000000180048468     DelayImp:delayhlp.obj
 0002:00010488       __pfnDliFailureHook2       0000000180048488     DelayImp:delayhk1.obj
 0002:00010490       _load_config_used          0000000180048490     LIBCMT:loadcfg.obj
 0002:00010528       ??_C@_0BC@BDKFLDHL@unknown?5exception?$AA@ 0000000180048528     node_report.obj
 0002:00010540       ??_C@_0BA@ELKIONDK@bad?5locale?5name?$AA@ 0000000180048540     node_report.obj
 0002:00010550       ??_C@_05LAPONLG@false?$AA@ 0000000180048550     node_report.obj
 0002:00010558       ??_C@_04LOAJBDKD@true?$AA@ 0000000180048558     node_report.obj
 0002:0001055d       ??_C@_00CNPNBAHC@?$AA@     000000018004855d     node_report.obj
 0002:00010560       ??_C@_02LMMGGCAJ@?3?5?$AA@ 0000000180048560     node_report.obj
 0002:00010568       ??_C@_08LLGCOLLL@iostream?$AA@ 0000000180048568     node_report.obj
 0002:00010578       ??_C@_0BG@PADBLCHM@iostream?5stream?5error?$AA@ 0000000180048578     node_report.obj
 0002:00010590       ??_C@_0BF@PHHKMMFD@ios_base?3?3badbit?5set?$AA@ 0000000180048590     node_report.obj
 0002:000105a8       ??_C@_0BG@FMKFHCIL@ios_base?3?3failbit?5set?$AA@ 00000001800485a8     node_report.obj
 0002:000105c0       ??_C@_0BF@OOHOMBOF@ios_base?3?3eofbit?5set?$AA@ 00000001800485c0     node_report.obj
 0002:000105d8       ??_C@_0BA@JFNIOLAK@string?5too?5long?$AA@ 00000001800485d8     node_report.obj
 0002:000105f0       ??_C@_1HA@PLGICFFO@?$AAC?$AA?3?$AA?2?$AAU?$AAs?$AAe?$AAr?$AAs?$AA?2?$AAr?$AAs?$AAh?$AAe?$AAr?$AA?2?$AAP?$AAr?$AAo?$AAj?$AAe?$AAc?$AAt?$AAs?$AA?2?$AAm?$AAc?$AAn?$AA_?$AA3?$AA0?$AA0?$AA1@ 00000001800485f0     node_report.obj
 0002:00010660       ??_C@_1BO@OPFMAOCA@?$AAl?$AAe?$AAn?$AA?5?$AA?$DM?$AA?$DN?$AA?5?$AAI?$AAN?$AAT?$AA_?$AAM?$AAA?$AAX?$AA?$AA@ 0000000180048660     node_report.obj
 0002:00010680       ??_C@_1BE@CKDJNAPC@?$AAs?$AAt?$AAr?$AA_?$AA?5?$AA?$CB?$AA?$DN?$AA?5?$AA0?$AA?$AA@ 0000000180048680     node_report.obj
 0002:00010694       ??_C@_02OMCFCAGM@JS?$AA@   0000000180048694     node_report.obj
 0002:00010698       ??_C@_02KODPKBGO@GC?$AA@   0000000180048698     node_report.obj
 0002:000106a0       ??_C@_08FNPLLFNM@COMPILER?$AA@ 00000001800486a0     node_report.obj
 0002:000106ac       ??_C@_05NNNMIPMB@OTHER?$AA@ 00000001800486ac     node_report.obj
 0002:000106b8       ??_C@_08JHLDEHEK@EXTERNAL?$AA@ 00000001800486b8     node_report.obj
 0002:000106c4       ??_C@_04IMMGDCFE@IDLE?$AA@ 00000001800486c4     node_report.obj
 0002:000106d0       ??_C@_0CF@HEOPLEAN@Unable?5to?5determine?5Node?4js?5vers@ 00000001800486d0     node_report.obj
 0002:000106f8       ??_C@_02DKCKIIND@?$CFs?$AA@ 00000001800486f8     node_report.obj
 0002:00010700       ??_C@_0M@IPJBKLKD@node?9report?$AA@ 0000000180048700     node_report.obj
 0002:00010710       ??_C@_0CG@PGKJOHKO@?4?$CF4d?$CF02d?$CF02d?4?$CF02d?$CF02d?$CF02d?4?$CFd?4?$CF03@ 0000000180048710     node_report.obj
 0002:00010738       ??_C@_06DJDOIFHB@stdout?$AA@ 0000000180048738     node_report.obj
 0002:00010740       ??_C@_06FJGNEBG@stderr?$AA@ 0000000180048740     node_report.obj
 0002:00010748       ??_C@_01KICIPPFI@?2?$AA@   0000000180048748     node_report.obj
 0002:0001074c       ??_C@_06DIJPEION@?$CFs?$CFs?$CFs?$AA@ 000000018004874c     node_report.obj
 0002:00010754       ??_C@_02MNMNLDAI@?$CJ?6?$AA@ 0000000180048754     node_report.obj
 0002:00010758       ??_C@_09DGCIBNGI@?5?$CIerrno?3?5?$AA@ 0000000180048758     node_report.obj
 0002:00010768       ??_C@_0N@DBMMGKLO@?5directory?3?5?$AA@ 0000000180048768     node_report.obj
 0002:00010778       ??_C@_0CG@EIAHAPDI@?6Failed?5to?5open?5Node?4js?5report?5f@ 0000000180048778     node_report.obj
 0002:000107a0       ??_C@_01EEMJAFIK@?6?$AA@   00000001800487a0     node_report.obj
 0002:000107a8       ??_C@_0CC@BHHOFAIH@?6Writing?5Node?4js?5report?5to?5file?3@ 00000001800487a8     node_report.obj
 0002:000107d0       ??_C@_0BK@DPPPKHJK@Node?4js?5report?5completed?6?$AA@ 00000001800487d0     node_report.obj
 0002:000107f0       ??_C@_0FC@DFPGEJCJ@?$DN?$DN?$DN?$DN?$DN?$DN?$DN?$DN?$DN?$DN?$DN?$DN?$DN?$DN?$DN?$DN?$DN?$DN?$DN?$DN?$DN?$DN?$DN?$DN?$DN?$DN?$DN?$DN?$DN?$DN?$DN?$DN@ 00000001800487f0     node_report.obj
 0002:00010850       ??_C@_0FC@NPCOMBKL@?$DN?$DN?$DN?$DN?5Node?5Report?5?$DN?$DN?$DN?$DN?$DN?$DN?$DN?$DN?$DN?$DN?$DN?$DN?$DN?$DN?$DN@ 0000000180048850     node_report.obj
 0002:000108a4       ??_C@_02MBJIFMOJ@?$CC?6?$AA@ 00000001800488a4     node_report.obj
 0002:000108a8       ??_C@_0O@MOKLHCB@?0?5location?3?5?$CC?$AA@ 00000001800488a8     node_report.obj
 0002:000108b8       ??_C@_08EEADGMLN@?6Event?3?5?$AA@ 00000001800488b8     node_report.obj
 0002:000108c8       ??_C@_0L@GMCIHFAE@Filename?3?5?$AA@ 00000001800488c8     node_report.obj
 0002:000108d8       ??_C@_0BN@LCJKOJNH@?$CF4d?1?$CF02d?1?$CF02d?5?$CF02d?3?$CF02d?3?$CF02d?$AA@ 00000001800488d8     node_report.obj
 0002:000108f8       ??_C@_0BD@KGEBBAHG@Dump?5event?5time?3?5?5?$AA@ 00000001800488f8     node_report.obj
 0002:00010910       ??_C@_0BD@JJCPLKID@Module?5load?5time?3?5?$AA@ 0000000180048910     node_report.obj
 0002:00010928       ??_C@_0N@NLGGGAEE@Process?5ID?3?5?$AA@ 0000000180048928     node_report.obj
 0002:00010940       ??_C@_0FC@NGEIDAKI@?6?$DN?$DN?$DN?$DN?$DN?$DN?$DN?$DN?$DN?$DN?$DN?$DN?$DN?$DN?$DN?$DN?$DN?$DN?$DN?$DN?$DN?$DN?$DN?$DN?$DN?$DN?$DN?$DN?$DN?$DN?$DN@ 0000000180048940     node_report.obj
 0002:000109a0       ??_C@_0FD@LANJJNAL@?6?$DN?$DN?$DN?$DN?5Node?4js?5libuv?5Handle?5Summa@ 00000001800489a0     node_report.obj
 0002:000109f8       ??_C@_0BL@KMKHMCOA@?6?$CIFlags?3?5R?$DNRef?0?5A?$DNActive?$CJ?6?$AA@ 00000001800489f8     node_report.obj
 0002:00010a18       ??_C@_07NJJEDOBB@Details?$AA@ 0000000180048a18     node_report.obj
 0002:00010a20       ??_C@_07EODJIPPN@Address?$AA@ 0000000180048a20     node_report.obj
 0002:00010a28       ??_C@_04KOACHJEN@Type?$AA@ 0000000180048a28     node_report.obj
 0002:00010a30       ??_C@_05BOOEKJH@Flags?$AA@ 0000000180048a30     node_report.obj
 0002:00010a40       ??_C@_0FD@CCDEILGA@?6?$DN?$DN?$DN?$DN?$DN?$DN?$DN?$DN?$DN?$DN?$DN?$DN?$DN?$DN?$DN?$DN?$DN?$DN?$DN?$DN?$DN?$DN?$DN?$DN?$DN?$DN?$DN?$DN?$DN?$DN?$DN@ 0000000180048a40     node_report.obj
 0002:00010a98       ??_C@_0P@IFCDDMDK@Command?5line?3?5?$AA@ 0000000180048a98     node_report.obj
 0002:00010aa8       ??_C@_06MPMMJOJL@8?411?42?$AA@ 0000000180048aa8     node_report.obj
 0002:00010ab0       ??_C@_0BK@IBLAKANN@?5?$CIbuilt?5against?5Node?4js?5v?$AA@ 0000000180048ab0     node_report.obj
 0002:00010acc       ??_C@_05OFOEFHGP@2?42?43?$AA@ 0000000180048acc     node_report.obj
 0002:00010ad8       ??_C@_0BG@LCDIBLPF@node?9report?5version?3?5?$AA@ 0000000180048ad8     node_report.obj
 0002:00010af0       ??_C@_01PKGAHCOL@?$CJ?$AA@ 0000000180048af0     node_report.obj
 0002:00010af4       ??_C@_04GFGGFEDD@?5bit?$AA@ 0000000180048af4     node_report.obj
 0002:00010afc       ??_C@_02KEGNLNML@?0?5?$AA@ 0000000180048afc     node_report.obj
 0002:00010b00       ??_C@_0N@MEKDBOKB@Windows?52000?$AA@ 0000000180048b00     node_report.obj
 0002:00010b10       ??_C@_0BE@IEOLCCDL@Windows?5Server?52003?$AA@ 0000000180048b10     node_report.obj
 0002:00010b28       ??_C@_0L@IFICELHB@Windows?5XP?$AA@ 0000000180048b28     node_report.obj
 0002:00010b38       ??_C@_0BE@GHBPPLPA@Windows?5Server?52008?$AA@ 0000000180048b38     node_report.obj
 0002:00010b50       ??_C@_0O@IFKHFILP@Windows?5Vista?$AA@ 0000000180048b50     node_report.obj
 0002:00010b60       ??_C@_0BH@ONPOEHKF@Windows?5Server?52008?5R2?$AA@ 0000000180048b60     node_report.obj
 0002:00010b78       ??_C@_09GOHFIPMO@Windows?57?$AA@ 0000000180048b78     node_report.obj
 0002:00010b88       ??_C@_0BE@JMDCHJEN@Windows?5Server?52012?$AA@ 0000000180048b88     node_report.obj
 0002:00010ba0       ??_C@_09OJONJDAB@Windows?58?$AA@ 0000000180048ba0     node_report.obj
 0002:00010bb0       ??_C@_0BH@GMBCIMKB@Windows?5Server?52012?5R2?$AA@ 0000000180048bb0     node_report.obj
 0002:00010bc8       ??_C@_0M@IEJDHGAK@Windows?58?41?$AA@ 0000000180048bc8     node_report.obj
 0002:00010bd8       ??_C@_0P@PDMILEAK@Windows?5Server?$AA@ 0000000180048bd8     node_report.obj
 0002:00010be8       ??_C@_0P@LMIKGPIJ@Windows?5Client?$AA@ 0000000180048be8     node_report.obj
 0002:00010bf8       ??_C@_0BE@PIFOLMEJ@Windows?5Server?52016?$AA@ 0000000180048bf8     node_report.obj
 0002:00010c10       ??_C@_0L@KHHJNAHJ@Windows?510?$AA@ 0000000180048c10     node_report.obj
 0002:00010c20       ??_C@_0O@CGLJAIKD@?6OS?5version?3?5?$AA@ 0000000180048c20     node_report.obj
 0002:00010c30       ??_C@_01CLKCMJKC@?5?$AA@   0000000180048c30     node_report.obj
 0002:00010c38       ??_C@_0L@JMPHONB@?6Machine?3?5?$AA@ 0000000180048c38     node_report.obj
 0002:00010c48       ??_C@_0BG@LEMAJNPA@?6OS?5version?3?5Windows?6?$AA@ 0000000180048c48     node_report.obj
 0002:00010c60       ??_C@_0FE@LBCIEJPI@?6?$DN?$DN?$DN?$DN?5JavaScript?5Stack?5Trace?5?$DN?$DN?$DN@ 0000000180048c60     node_report.obj
 0002:00010cb8       ??_C@_0BK@MGPMKDBM@No?5stack?5trace?5available?6?$AA@ 0000000180048cb8     node_report.obj
 0002:00010ce0       ??_C@_0FE@BLEAOGEP@?6?$DN?$DN?$DN?$DN?5JavaScript?5Exception?5Detai@ 0000000180048ce0     node_report.obj
 0002:00010d34       ??_C@_02PHMGELLB@?6?6?$AA@ 0000000180048d34     node_report.obj
 0002:00010d38       ??_C@_0DK@MJHBDHGP@No?5stack?5trace?5available?5from?5Ex@ 0000000180048d38     node_report.obj
 0002:00010d78       ??_C@_0BG@IHIFFABF@JavaScript?5VM?5state?3?5?$AA@ 0000000180048d78     node_report.obj
 0002:00010d90       ??_C@_0CB@PDPBBBJC@JavaScript?5VM?5state?3?5?$DMunknown?$DO?6?6@ 0000000180048d90     node_report.obj
 0002:00010dc0       ??_C@_0EA@JBJHOPOD@Signal?5received?5when?5event?5loop?5@ 0000000180048dc0     node_report.obj
 0002:00010e00       ??_C@_0EA@CPHILHDD@?6No?5stack?5trace?5available?5from?5S@ 0000000180048e00     node_report.obj
 0002:00010e40       ??_C@_0BA@KAHJMFCA@?$CF2d?3?5?$FLpc?$DN0x?$CFp?$FN?5?$AA@ 0000000180048e40     node_report.obj
 0002:00010e50       ??_C@_01JLIPDDHJ@?3?$AA@   0000000180048e50     node_report.obj
 0002:00010e58       ??_C@_0L@OAKHLHHI@at?5?$FLeval?$FN?3?$AA@ 0000000180048e58     node_report.obj
 0002:00010e68       ??_C@_0M@BCNCNGLF@at?5?$FLeval?$FN?5?$CI?$AA@ 0000000180048e68     node_report.obj
 0002:00010e78       ??_C@_0BB@MCANNOPF@?5?$FLconstructor?$FN?5?$CI?$AA@ 0000000180048e78     node_report.obj
 0002:00010e8c       ??_C@_02GFKOMOKH@?5?$CI?$AA@ 0000000180048e8c     node_report.obj
 0002:00010e90       ??_C@_0FE@MBNHCNHL@?6?$DN?$DN?$DN?$DN?5Native?5Stack?5Trace?5?$DN?$DN?$DN?$DN?$DN?$DN?$DN@ 0000000180048e90     node_report.obj
 0002:00010ee8       ??_C@_0P@EIEJHICI@?$CF2d?3?5?$FLpc?$DN0x?$CFp?$FN?$AA@ 0000000180048ee8     node_report.obj
 0002:00010ef8       ??_C@_03GIBALDOF@?5?$FL?$CL?$AA@ 0000000180048ef8     node_report.obj
 0002:00010f00       ??_C@_08KOPADBLB@?3?5line?3?5?$AA@ 0000000180048f00     node_report.obj
 0002:00010f0c       ??_C@_05KOAPBAHA@?$FN?5in?5?$AA@ 0000000180048f0c     node_report.obj
 0002:00010f14       ??_C@_02JODFHDIE@?$FN?6?$AA@ 0000000180048f14     node_report.obj
 0002:00010f18       ??_C@_0BA@MPBCAJAI@?$CF2d?3?5?$FLpc?$DN0x?$CFp?$FN?6?$AA@ 0000000180048f18     node_report.obj
 0002:00010f30       ??_C@_0FD@CMCBJDC@?6?$DN?$DN?$DN?$DN?5JavaScript?5Heap?5and?5Garbag@ 0000000180048f30     node_report.obj
 0002:00010f88       ??_C@_0BD@IABLCMIO@?6Heap?5space?5name?3?5?$AA@ 0000000180048f88     node_report.obj
 0002:00010fa0       ??_C@_0BD@ICOAGONA@?6?5?5?5?5Memory?5size?3?5?$AA@ 0000000180048fa0     node_report.obj
 0002:00010fb8       ??_C@_0BL@MCFPINLG@?5bytes?0?5committed?5memory?3?5?$AA@ 0000000180048fb8     node_report.obj
 0002:00010fd8       ??_C@_0BG@HOOLGJPA@?5bytes?6?5?5?5?5Capacity?3?5?$AA@ 0000000180048fd8     node_report.obj
 0002:00010ff0       ??_C@_0P@BMDBAOIL@?5bytes?0?5used?3?5?$AA@ 0000000180048ff0     node_report.obj
 0002:00011000       ??_C@_0BE@LLJBOKOC@?5bytes?0?5available?3?5?$AA@ 0000000180049000     node_report.obj
 0002:00011014       ??_C@_06LCIDCBMH@?5bytes?$AA@ 0000000180049014     node_report.obj
 0002:00011020       ??_C@_0BL@LNEHMLKA@?6?6Total?5heap?5memory?5size?3?5?$AA@ 0000000180049020     node_report.obj
 0002:00011040       ??_C@_0CF@DJJIEJPL@?5bytes?6Total?5heap?5committed?5memo@ 0000000180049040     node_report.obj
 0002:00011068       ??_C@_0CA@MCOADDLN@?5bytes?6Total?5used?5heap?5memory?3?5?$AA@ 0000000180049068     node_report.obj
 0002:00011088       ??_C@_0CF@PNPJAFMG@?5bytes?6Total?5available?5heap?5memo@ 0000000180049088     node_report.obj
 0002:000110b0       ??_C@_0BM@ILJCNJOG@?5bytes?6?6Heap?5memory?5limit?3?5?$AA@ 00000001800490b0     node_report.obj
 0002:000110d0       ??_C@_0FD@NLNAGMKD@?6?$DN?$DN?$DN?$DN?5System?5Information?5?$DN?$DN?$DN?$DN?$DN?$DN?$DN@ 00000001800490d0     node_report.obj
 0002:00011128       ??_C@_0BI@KPJNJCCG@?6Environment?5variables?6?$AA@ 0000000180049128     node_report.obj
 0002:00011140       ??_C@_02KNHHEEKP@?5?5?$AA@ 0000000180049140     node_report.obj
 0002:00011148       ??_C@_0BD@HOOKCFCI@?6Loaded?5libraries?6?$AA@ 0000000180049148     node_report.obj
 0002:00011160       ??_C@_0CC@COEBCMKJ@No?5library?5information?5available@ 0000000180049160     node_report.obj
 0002:00011184       ??_C@_02BBAHNLBA@?$CFp?$AA@ 0000000180049184     node_report.obj
 0002:00011188       ??_C@_02MDKMJEGG@eE?$AA@   0000000180049188     node_report.obj
 0002:0001118c       ??_C@_02OOPEBDOJ@pP?$AA@   000000018004918c     node_report.obj
 0002:00011190       ??_C@_0BI@CFPLBAOH@invalid?5string?5position?$AA@ 0000000180049190     node_report.obj
 0002:000111a8       ??_7?$basic_ofstream@DU?$char_traits@D@std@@@std@@6B@ 00000001800491a8     node_report.obj
 0002:000111b0       ??_8?$basic_ofstream@DU?$char_traits@D@std@@@std@@7B@ 00000001800491b0     node_report.obj
 0002:000111b8       ??_7exception@stdext@@6B@  00000001800491b8     node_report.obj
 0002:000111d0       ??_8?$basic_ostream@DU?$char_traits@D@std@@@std@@7B@ 00000001800491d0     node_report.obj
 0002:000111e0       ??_C@_1JM@DLABFNNE@?$AAc?$AA?3?$AA?2?$AAu?$AAs?$AAe?$AAr?$AAs?$AA?2?$AAr?$AAs?$AAh?$AAe?$AAr?$AA?2?$AAp?$AAr?$AAo?$AAj?$AAe?$AAc?$AAt?$AAs?$AA?2?$AAm?$AAc?$AAn?$AA_?$AA3?$AA0?$AA0?$AA1@ 00000001800491e0     module.obj
 0002:00011280       ??_C@_1FK@CBGIJHDF@?$AAv?$AAa?$AAl?$AAu?$AAe?$AA?4?$AAs?$AAi?$AAz?$AAe?$AA?$CI?$AA?$CJ?$AA?5?$AA?$DM?$AA?$DN?$AA?5?$AAI?$AAN?$AAT?$AA_?$AAM?$AAA?$AAX?$AA?5?$AA?$CG?$AA?$CG?$AA?5?$AA?$CC?$AAs?$AAt?$AAr?$AAi@ 0000000180049280     module.obj
 0002:000112e0       ??_C@_0CM@JILANFFM@node?9report?3?5filename?5parameter?5@ 00000001800492e0     module.obj
 0002:00011310       ??_C@_0O@KHCHPCHN@TriggerReport?$AA@ 0000000180049310     module.obj
 0002:00011320       ??_C@_0P@CECEBGNL@JavaScript?5API?$AA@ 0000000180049320     module.obj
 0002:00011330       ??_C@_09DEDPLBPA@GetReport?$AA@ 0000000180049330     module.obj
 0002:00011340       ??_C@_0BO@EJLBFEPO@?9?9abort_on_uncaught_exception?$AA@ 0000000180049340     module.obj
 0002:00011360       ??_C@_0BE@LDBGBAAI@FATAL?5ERROR?3?5?$CFs?5?$CFs?6?$AA@ 0000000180049360     module.obj
 0002:00011378       ??_C@_0BB@PGBIBHBM@FATAL?5ERROR?3?5?$CFs?6?$AA@ 0000000180049378     module.obj
 0002:00011390       ??_C@_0BE@NPKFBHHP@OnUncaughtException?$AA@ 0000000180049390     module.obj
 0002:000113a8       ??_C@_09BOIBMEBJ@exception?$AA@ 00000001800493a8     module.obj
 0002:000113b8       ??_C@_0BM@NJFEPABI@abort?9on?9uncaught?9exception?$AA@ 00000001800493b8     module.obj
 0002:000113d8       ??_C@_0BM@JBNNHGJD@abort_on_uncaught_exception?$AA@ 00000001800493d8     module.obj
 0002:000113f4       ??_C@_05KBEOJPB@?$CFd?4?$CFd?$AA@ 00000001800493f4     module.obj
 0002:00011400       ??_C@_0BJ@FPNJFNLO@?6Uncaught?5exception?5at?3?6?$AA@ 0000000180049400     module.obj
 0002:00011420       ??_C@_0BB@EPCCAFBD@at?5?$FLeval?$FN?3?$CFi?3?$CFi?6?$AA@ 0000000180049420     module.obj
 0002:00011438       ??_C@_0BG@GCDEBPNN@at?5?$FLeval?$FN?5?$CI?$CFs?3?$CFi?3?$CFi?$CJ?6?$AA@ 0000000180049438     module.obj
 0002:00011450       ??_C@_09BLMIEABP@?$CFs?3?$CFi?3?$CFi?6?$AA@ 0000000180049450     module.obj
 0002:00011460       ??_C@_0P@HBKMJHPF@?$CFs?5?$CI?$CFs?3?$CFi?3?$CFi?$CJ?6?$AA@ 0000000180049460     module.obj
 0002:00011470       ??_C@_0BD@JJCLAPMG@NODEREPORT_VERBOSE?$AA@ 0000000180049470     module.obj
 0002:00011488       ??_C@_0BC@HPPJIHMB@NODEREPORT_EVENTS?$AA@ 0000000180049488     module.obj
 0002:000114a0       ??_C@_0BC@CEAAKCBO@NODEREPORT_SIGNAL?$AA@ 00000001800494a0     module.obj
 0002:000114b8       ??_C@_0BE@OHHIJAMD@NODEREPORT_FILENAME?$AA@ 00000001800494b8     module.obj
 0002:000114d0       ??_C@_0BF@KDMJIIPB@NODEREPORT_DIRECTORY?$AA@ 00000001800494d0     module.obj
 0002:000114e8       ??_C@_0O@GKEDIKKF@triggerReport?$AA@ 00000001800494e8     module.obj
 0002:000114f8       ??_C@_09HLGCLCCA@getReport?$AA@ 00000001800494f8     module.obj
 0002:00011508       ??_C@_09CJGMNECF@setEvents?$AA@ 0000000180049508     module.obj
 0002:00011518       ??_C@_09HCJFPBPK@setSignal?$AA@ 0000000180049518     module.obj
 0002:00011528       ??_C@_0M@EDAALNLG@setFileName?$AA@ 0000000180049528     module.obj
 0002:00011538       ??_C@_0N@BBCKFEPL@setDirectory?$AA@ 0000000180049538     module.obj
 0002:00011548       ??_C@_0L@KLJOJIFG@setVerbose?$AA@ 0000000180049548     module.obj
 0002:00011558       ??_C@_0DI@CNMJLINK@node?9report?3?5initialization?5comp@ 0000000180049558     module.obj
 0002:00011590       ??_C@_0BB@ODPCJIBA@?4?4?2src?2module?4cc?$AA@ 0000000180049590     module.obj
 0002:000115a8       ??_C@_0L@IKMNIKBK@nodereport?$AA@ 00000001800495a8     module.obj
 0002:000115b8       ??_7?$basic_ostringstream@DU?$char_traits@D@std@@V?$allocator@D@2@@std@@6B@ 00000001800495b8     module.obj
 0002:000115c0       ??_7?$basic_stringbuf@DU?$char_traits@D@std@@V?$allocator@D@2@@std@@6B@ 00000001800495c0     module.obj
 0002:00011638       ??_8?$basic_ostringstream@DU?$char_traits@D@std@@V?$allocator@D@2@@std@@7B@ 0000000180049638     module.obj
 0002:00011640       ??_C@_07CIFAGBMG@unknown?$AA@ 0000000180049640     utilities.obj
 0002:00011648       ??_C@_0L@KLLLLLHD@fatalerror?$AA@ 0000000180049648     utilities.obj
 0002:00011654       ??_C@_06OAFOBKHE@signal?$AA@ 0000000180049654     utilities.obj
 0002:00011660       ??_C@_07JAICIFBO@apicall?$AA@ 0000000180049660     utilities.obj
 0002:00011668       ??_C@_0DG@GAIEDBJL@Unrecognised?5argument?5for?5node?9r@ 0000000180049668     utilities.obj
 0002:000116a0       ??_C@_0DC@NDAJENGH@Missing?5argument?5for?5node?9report@ 00000001800496a0     utilities.obj
 0002:000116d8       ??_C@_0O@HPCIDPIN@?5characters?$CJ?6?$AA@ 00000001800496d8     utilities.obj
 0002:000116e8       ??_C@_0CN@DKCPEJMI@Supplied?5node?9report?5filename?5to@ 00000001800496e8     utilities.obj
 0002:00011718       ??_C@_0DD@ENCLBKHD@Missing?5argument?5for?5node?9report@ 0000000180049718     utilities.obj
 0002:00011750       ??_C@_0DD@KAAFBLEN@Supplied?5node?9report?5directory?5p@ 0000000180049750     utilities.obj
 0002:00011788       ??_C@_0DI@NAKHGJGK@Missing?5argument?5for?5node?9report@ 0000000180049788     utilities.obj
 0002:000117c0       ??_C@_03ICICOMAL@yes?$AA@  00000001800497c0     utilities.obj
 0002:000117c4       ??_C@_02KAJCLHKP@no?$AA@   00000001800497c4     utilities.obj
 0002:000117c8       ??_C@_0DO@GNJOLDGP@Unrecognised?5argument?5for?5node?9r@ 00000001800497c8     utilities.obj
 0002:00011808       ??_C@_07DEBHDLBL@process?$AA@ 0000000180049808     utilities.obj
 0002:00011810       ??_C@_07CPCPJPKL@version?$AA@ 0000000180049810     utilities.obj
 0002:00011818       ??_C@_0BC@HILPFGKO@Node?4js?5version?3?5?$AA@ 0000000180049818     utilities.obj
 0002:00011830       ??_C@_08EFDJHPMK@versions?$AA@ 0000000180049830     utilities.obj
 0002:0001183c       ??_C@_01ODHLEDKK@?$CI?$AA@ 000000018004983c     utilities.obj
 0002:00011840       ??_C@_04CLMONKIF@node?$AA@ 0000000180049840     utilities.obj
 0002:00011848       ??_C@_0BD@EIHDOPMJ@Node?4js?5version?3?5v?$AA@ 0000000180049848     utilities.obj
 0002:0001185c       ??_C@_03KMEMJBBB@?0?6?5?$AA@ 000000018004985c     utilities.obj
 0002:00011860       ??_C@_0P@HJFFBGHG@?5connected?5to?5?$AA@ 0000000180049860     utilities.obj
 0002:00011870       ??_C@_0BB@IPCBJHMN@?5?$CInot?5connected?$CJ?$AA@ 0000000180049870     utilities.obj
 0002:00011888       ??_C@_0L@OKLEPKND@filename?3?5?$AA@ 0000000180049888     utilities.obj
 0002:00011894       ??_C@_05CJEJCJOE@async?$AA@ 0000000180049894     utilities.obj
 0002:0001189c       ??_C@_05KJHPNPAA@check?$AA@ 000000018004989c     utilities.obj
 0002:000118a8       ??_C@_08OKIEMKDN@fs_event?$AA@ 00000001800498a8     utilities.obj
 0002:000118b8       ??_C@_07LOBDOIEL@fs_poll?$AA@ 00000001800498b8     utilities.obj
 0002:000118c0       ??_C@_06NCGDPKCC@handle?$AA@ 00000001800498c0     utilities.obj
 0002:000118c8       ??_C@_04EAPMNACM@idle?$AA@ 00000001800498c8     utilities.obj
 0002:000118d0       ??_C@_04MKFKKHBG@pipe?$AA@ 00000001800498d0     utilities.obj
 0002:000118d8       ??_C@_04CLMPBJJH@poll?$AA@ 00000001800498d8     utilities.obj
 0002:000118e0       ??_C@_07CAPELNJI@prepare?$AA@ 00000001800498e0     utilities.obj
 0002:000118e8       ??_C@_05NJABGCBB@pid?3?5?$AA@ 00000001800498e8     utilities.obj
 0002:000118f0       ??_C@_06DJAMKFID@stream?$AA@ 00000001800498f0     utilities.obj
 0002:000118f8       ??_C@_03FPEIBLKH@tcp?$AA@  00000001800498f8     utilities.obj
 0002:000118fc       ??_C@_05NAPFDJNG@timer?$AA@ 00000001800498fc     utilities.obj
 0002:00011908       ??_C@_08BHIOMNMN@repeat?3?5?$AA@ 0000000180049908     utilities.obj
 0002:00011914       ??_C@_03DKJEPNJL@?5ms?$AA@ 0000000180049914     utilities.obj
 0002:00011918       ??_C@_0P@MAACLGFN@?0?5timeout?5in?3?5?$AA@ 0000000180049918     utilities.obj
 0002:00011928       ??_C@_07OJNKAFCF@?5ms?5ago?$AA@ 0000000180049928     utilities.obj
 0002:00011930       ??_C@_0BE@IDMIFMKB@?0?5timeout?5expired?3?5?$AA@ 0000000180049930     utilities.obj
 0002:00011944       ??_C@_03JHODBFBL@tty?$AA@  0000000180049944     utilities.obj
 0002:00011948       ??_C@_0L@NCKLKEMH@?0?5height?3?5?$AA@ 0000000180049948     utilities.obj
 0002:00011958       ??_C@_07PPLLCBGC@width?3?5?$AA@ 0000000180049958     utilities.obj
 0002:00011960       ??_C@_03OCLLGKEH@udp?$AA@  0000000180049960     utilities.obj
 0002:00011968       ??_C@_08CHJFLHBF@signum?3?5?$AA@ 0000000180049968     utilities.obj
 0002:00011974       ??_C@_04DAMGJPCA@file?$AA@ 0000000180049974     utilities.obj
 0002:0001197c       ??_C@_03LJAEFNNE@max?$AA@  000000018004997c     utilities.obj
 0002:00011980       ??_C@_0BF@HLNANMNN@?0?5recv?5buffer?5size?3?5?$AA@ 0000000180049980     utilities.obj
 0002:00011998       ??_C@_0BD@PODIJAJA@send?5buffer?5size?3?5?$AA@ 0000000180049998     utilities.obj
 0002:000119b0       ??_C@_0BF@KLCCJGEA@?0?5write?5queue?5size?3?5?$AA@ 00000001800499b0     utilities.obj
 0002:000119c8       ??_C@_0L@MPLDOCBA@?0?5writable?$AA@ 00000001800499c8     utilities.obj
 0002:000119d8       ??_C@_0L@MDGDNDJB@?0?5readable?$AA@ 00000001800499d8     utilities.obj
 0002:000119e4       ??_C@_04PEKFMOOE@?$FN?5?5?5?$AA@ 00000001800499e4     utilities.obj
 0002:000119ec       ??_C@_01OHGJGJJP@?$FL?$AA@ 00000001800499ec     utilities.obj
 0002:000119f0       ??_C@_04LELCIGEN@?$CF03u?$AA@ 00000001800499f0     utilities.obj
 0002:000119f8       ??_C@_01IHBHIGKO@?0?$AA@   00000001800499f8     utilities.obj
 0002:000119fc       ??_C@_06DMEGMNIL@SIGHUP?$AA@ 00000001800499fc     utilities.obj
 0002:00011a04       ??_C@_06PAOFCDHL@SIGINT?$AA@ 0000000180049a04     utilities.obj
 0002:00011a0c       ??_C@_06HBHKGPEM@SIGILL?$AA@ 0000000180049a0c     utilities.obj
 0002:00011a18       ??_C@_07GHNLFNAM@SIGABRT?$AA@ 0000000180049a18     utilities.obj
 0002:00011a20       ??_C@_06ONOHJOEH@SIGFPE?$AA@ 0000000180049a20     utilities.obj
 0002:00011a28       ??_C@_07GOMJNEIP@SIGKILL?$AA@ 0000000180049a28     utilities.obj
 0002:00011a30       ??_C@_07MIPHKCEO@SIGSEGV?$AA@ 0000000180049a30     utilities.obj
 0002:00011a38       ??_C@_07MJAMNEFP@SIGTERM?$AA@ 0000000180049a38     utilities.obj
 0002:00011a40       ??_C@_08CLALOKCJ@SIGBREAK?$AA@ 0000000180049a40     utilities.obj
 0002:00011a50       ??_C@_08JAIINPDO@SIGWINCH?$AA@ 0000000180049a50     utilities.obj
 0002:00011a60       ??_C@_08HCOMDCCD@iojs?4exe?$AA@ 0000000180049a60     win_delay_load_hook.obj
 0002:00011a70       ??_C@_08JDDNMFDB@node?4exe?$AA@ 0000000180049a70     win_delay_load_hook.obj
 0002:00011a80       __pfnDliNotifyHook2        0000000180049a80     win_delay_load_hook.obj
 0002:00011a88       __real@4202a05f20000000    0000000180049a88     node_report.obj
 0002:00011a90       __xmm@00000000000000000000000000000006 0000000180049a90     node_report.obj
 0002:00011aa0       __xmm@7fffffffffffffff7fffffffffffffff 0000000180049aa0     node_report.obj
 0002:00011b08       _tls_used                  0000000180049b08     LIBCMT:tlssup.obj
 0002:00011b30       ??_R4exception@std@@6B@    0000000180049b30     libcpmt:cout.obj
 0002:00011b58       ??_R3exception@std@@8      0000000180049b58     libcpmt:cout.obj
 0002:00011b70       ??_R2exception@std@@8      0000000180049b70     libcpmt:cout.obj
 0002:00011b80       ??_R1A@?0A@EA@exception@std@@8 0000000180049b80     libcpmt:cout.obj
 0002:00011ba8       ??_R4ios_base@std@@6B@     0000000180049ba8     libcpmt:cout.obj
 0002:00011bd0       ??_R3ios_base@std@@8       0000000180049bd0     libcpmt:cout.obj
 0002:00011be8       ??_R2ios_base@std@@8       0000000180049be8     libcpmt:cout.obj
 0002:00011c00       ??_R1A@?0A@EA@ios_base@std@@8 0000000180049c00     libcpmt:cout.obj
 0002:00011c28       ??_R17?0A@EA@?$_Iosb@H@std@@8 0000000180049c28     libcpmt:cout.obj
 0002:00011c50       ??_R3?$_Iosb@H@std@@8      0000000180049c50     libcpmt:cout.obj
 0002:00011c68       ??_R2?$_Iosb@H@std@@8      0000000180049c68     libcpmt:cout.obj
 0002:00011c78       ??_R1A@?0A@EA@?$_Iosb@H@std@@8 0000000180049c78     libcpmt:cout.obj
 0002:00011ca0       ??_R4?$basic_ios@DU?$char_traits@D@std@@@std@@6B@ 0000000180049ca0     libcpmt:cout.obj
 0002:00011cc8       ??_R3?$basic_ios@DU?$char_traits@D@std@@@std@@8 0000000180049cc8     libcpmt:cout.obj
 0002:00011ce0       ??_R2?$basic_ios@DU?$char_traits@D@std@@@std@@8 0000000180049ce0     libcpmt:cout.obj
 0002:00011d00       ??_R1A@?0A@EA@?$basic_ios@DU?$char_traits@D@std@@@std@@8 0000000180049d00     libcpmt:cout.obj
 0002:00011d28       ??_R4?$basic_streambuf@DU?$char_traits@D@std@@@std@@6B@ 0000000180049d28     libcpmt:cout.obj
 0002:00011d50       ??_R3?$basic_streambuf@DU?$char_traits@D@std@@@std@@8 0000000180049d50     libcpmt:cout.obj
 0002:00011d68       ??_R2?$basic_streambuf@DU?$char_traits@D@std@@@std@@8 0000000180049d68     libcpmt:cout.obj
 0002:00011d78       ??_R1A@?0A@EA@?$basic_streambuf@DU?$char_traits@D@std@@@std@@8 0000000180049d78     libcpmt:cout.obj
 0002:00011da0       ??_R1A@A@3FA@?$basic_ios@DU?$char_traits@D@std@@@std@@8 0000000180049da0     libcpmt:cout.obj
 0002:00011dc8       ??_R1A@A@3EA@ios_base@std@@8 0000000180049dc8     libcpmt:cout.obj
 0002:00011df0       ??_R17A@3EA@?$_Iosb@H@std@@8 0000000180049df0     libcpmt:cout.obj
 0002:00011e18       ??_R4?$basic_ostream@DU?$char_traits@D@std@@@std@@6B@ 0000000180049e18     libcpmt:cout.obj
 0002:00011e40       ??_R3?$basic_ostream@DU?$char_traits@D@std@@@std@@8 0000000180049e40     libcpmt:cout.obj
 0002:00011e58       ??_R2?$basic_ostream@DU?$char_traits@D@std@@@std@@8 0000000180049e58     libcpmt:cout.obj
 0002:00011e80       ??_R1A@?0A@EA@?$basic_ostream@DU?$char_traits@D@std@@@std@@8 0000000180049e80     libcpmt:cout.obj
 0002:00011ea8       ??_R4?$basic_filebuf@DU?$char_traits@D@std@@@std@@6B@ 0000000180049ea8     libcpmt:cout.obj
 0002:00011ed0       ??_R3?$basic_filebuf@DU?$char_traits@D@std@@@std@@8 0000000180049ed0     libcpmt:cout.obj
 0002:00011ee8       ??_R2?$basic_filebuf@DU?$char_traits@D@std@@@std@@8 0000000180049ee8     libcpmt:cout.obj
 0002:00011f00       ??_R1A@?0A@EA@?$basic_filebuf@DU?$char_traits@D@std@@@std@@8 0000000180049f00     libcpmt:cout.obj
 0002:00011f28       ??_R4runtime_error@std@@6B@ 0000000180049f28     libcpmt:cout.obj
 0002:00011f50       ??_R3runtime_error@std@@8  0000000180049f50     libcpmt:cout.obj
 0002:00011f68       ??_R2runtime_error@std@@8  0000000180049f68     libcpmt:cout.obj
 0002:00011f80       ??_R1A@?0A@EA@runtime_error@std@@8 0000000180049f80     libcpmt:cout.obj
 0002:00011fa8       ??_R4_Facet_base@std@@6B@  0000000180049fa8     libcpmt:cout.obj
 0002:00011fd0       ??_R3_Facet_base@std@@8    0000000180049fd0     libcpmt:cout.obj
 0002:00011fe8       ??_R2_Facet_base@std@@8    0000000180049fe8     libcpmt:cout.obj
 0002:00011ff8       ??_R1A@?0A@EA@_Facet_base@std@@8 0000000180049ff8     libcpmt:cout.obj
 0002:00012020       ??_R1A@?0A@EA@facet@locale@std@@8 000000018004a020     libcpmt:cout.obj
 0002:00012048       ??_R3facet@locale@std@@8   000000018004a048     libcpmt:cout.obj
 0002:00012060       ??_R2facet@locale@std@@8   000000018004a060     libcpmt:cout.obj
 0002:00012080       ??_R17?0A@EA@_Crt_new_delete@std@@8 000000018004a080     libcpmt:cout.obj
 0002:000120a8       ??_R3_Crt_new_delete@std@@8 000000018004a0a8     libcpmt:cout.obj
 0002:000120c0       ??_R2_Crt_new_delete@std@@8 000000018004a0c0     libcpmt:cout.obj
 0002:000120d0       ??_R1A@?0A@EA@_Crt_new_delete@std@@8 000000018004a0d0     libcpmt:cout.obj
 0002:000120f8       ??_R3codecvt_base@std@@8   000000018004a0f8     libcpmt:cout.obj
 0002:00012110       ??_R2codecvt_base@std@@8   000000018004a110     libcpmt:cout.obj
 0002:00012138       ??_R1A@?0A@EA@codecvt_base@std@@8 000000018004a138     libcpmt:cout.obj
 0002:00012160       ??_R3ctype_base@std@@8     000000018004a160     libcpmt:cout.obj
 0002:00012178       ??_R2ctype_base@std@@8     000000018004a178     libcpmt:cout.obj
 0002:000121a0       ??_R1A@?0A@EA@ctype_base@std@@8 000000018004a1a0     libcpmt:cout.obj
 0002:000121c8       ??_R4?$ctype@D@std@@6B@    000000018004a1c8     libcpmt:cout.obj
 0002:000121f0       ??_R3?$ctype@D@std@@8      000000018004a1f0     libcpmt:cout.obj
 0002:00012208       ??_R2?$ctype@D@std@@8      000000018004a208     libcpmt:cout.obj
 0002:00012238       ??_R1A@?0A@EA@?$ctype@D@std@@8 000000018004a238     libcpmt:cout.obj
 0002:00012260       ??_R4error_category@std@@6B@ 000000018004a260     libcpmt:cout.obj
 0002:00012288       ??_R3error_category@std@@8 000000018004a288     libcpmt:cout.obj
 0002:000122a0       ??_R2error_category@std@@8 000000018004a2a0     libcpmt:cout.obj
 0002:000122b0       ??_R1A@?0A@EA@error_category@std@@8 000000018004a2b0     libcpmt:cout.obj
 0002:000122d8       ??_R4_System_error@std@@6B@ 000000018004a2d8     libcpmt:cout.obj
 0002:00012300       ??_R3_System_error@std@@8  000000018004a300     libcpmt:cout.obj
 0002:00012318       ??_R2_System_error@std@@8  000000018004a318     libcpmt:cout.obj
 0002:00012338       ??_R1A@?0A@EA@_System_error@std@@8 000000018004a338     libcpmt:cout.obj
 0002:00012360       ??_R3system_error@std@@8   000000018004a360     libcpmt:cout.obj
 0002:00012378       ??_R2system_error@std@@8   000000018004a378     libcpmt:cout.obj
 0002:000123a0       ??_R1A@?0A@EA@system_error@std@@8 000000018004a3a0     libcpmt:cout.obj
 0002:000123c8       ??_R3_Generic_error_category@std@@8 000000018004a3c8     libcpmt:cout.obj
 0002:000123e0       ??_R2_Generic_error_category@std@@8 000000018004a3e0     libcpmt:cout.obj
 0002:000123f8       ??_R1A@?0A@EA@_Generic_error_category@std@@8 000000018004a3f8     libcpmt:cout.obj
 0002:00012420       ??_R4_Iostream_error_category@std@@6B@ 000000018004a420     libcpmt:cout.obj
 0002:00012448       ??_R3_Iostream_error_category@std@@8 000000018004a448     libcpmt:cout.obj
 0002:00012460       ??_R2_Iostream_error_category@std@@8 000000018004a460     libcpmt:cout.obj
 0002:00012480       ??_R1A@?0A@EA@_Iostream_error_category@std@@8 000000018004a480     libcpmt:cout.obj
 0002:000124a8       ??_R4failure@ios_base@std@@6B@ 000000018004a4a8     libcpmt:cout.obj
 0002:000124d0       ??_R3failure@ios_base@std@@8 000000018004a4d0     libcpmt:cout.obj
 0002:000124e8       ??_R2failure@ios_base@std@@8 000000018004a4e8     libcpmt:cout.obj
 0002:00012518       ??_R1A@?0A@EA@failure@ios_base@std@@8 000000018004a518     libcpmt:cout.obj
 0002:00012540       ??_R4?$codecvt@DDU_Mbstatet@@@std@@6B@ 000000018004a540     libcpmt:cout.obj
 0002:00012568       ??_R3?$codecvt@DDU_Mbstatet@@@std@@8 000000018004a568     libcpmt:cout.obj
 0002:00012580       ??_R2?$codecvt@DDU_Mbstatet@@@std@@8 000000018004a580     libcpmt:cout.obj
 0002:000125b0       ??_R1A@?0A@EA@?$codecvt@DDU_Mbstatet@@@std@@8 000000018004a5b0     libcpmt:cout.obj
 0002:000125d8       ??_R4_Locimp@locale@std@@6B@ 000000018004a5d8     libcpmt:locale0.obj
 0002:00012600       ??_R3_Locimp@locale@std@@8 000000018004a600     libcpmt:locale0.obj
 0002:00012618       ??_R2_Locimp@locale@std@@8 000000018004a618     libcpmt:locale0.obj
 0002:00012640       ??_R1A@?0A@EA@_Locimp@locale@std@@8 000000018004a640     libcpmt:locale0.obj
 0002:00012668       ??_R4bad_alloc@std@@6B@    000000018004a668     libcpmt:xthrow.obj
 0002:00012690       ??_R3bad_alloc@std@@8      000000018004a690     libcpmt:xthrow.obj
 0002:000126a8       ??_R2bad_alloc@std@@8      000000018004a6a8     libcpmt:xthrow.obj
 0002:000126c0       ??_R1A@?0A@EA@bad_alloc@std@@8 000000018004a6c0     libcpmt:xthrow.obj
 0002:000126e8       ??_R4logic_error@std@@6B@  000000018004a6e8     libcpmt:xthrow.obj
 0002:00012710       ??_R3logic_error@std@@8    000000018004a710     libcpmt:xthrow.obj
 0002:00012728       ??_R2logic_error@std@@8    000000018004a728     libcpmt:xthrow.obj
 0002:00012740       ??_R1A@?0A@EA@logic_error@std@@8 000000018004a740     libcpmt:xthrow.obj
 0002:00012768       ??_R4length_error@std@@6B@ 000000018004a768     libcpmt:xthrow.obj
 0002:00012790       ??_R3length_error@std@@8   000000018004a790     libcpmt:xthrow.obj
 0002:000127a8       ??_R2length_error@std@@8   000000018004a7a8     libcpmt:xthrow.obj
 0002:000127c8       ??_R1A@?0A@EA@length_error@std@@8 000000018004a7c8     libcpmt:xthrow.obj
 0002:000127f0       ??_R4out_of_range@std@@6B@ 000000018004a7f0     libcpmt:xthrow.obj
 0002:00012818       ??_R3out_of_range@std@@8   000000018004a818     libcpmt:xthrow.obj
 0002:00012830       ??_R2out_of_range@std@@8   000000018004a830     libcpmt:xthrow.obj
 0002:00012850       ??_R1A@?0A@EA@out_of_range@std@@8 000000018004a850     libcpmt:xthrow.obj
 0002:00012878       ??_R4?$num_put@DV?$ostreambuf_iterator@DU?$char_traits@D@std@@@std@@@std@@6B@ 000000018004a878     libcpmt:locale.obj
 0002:000128a0       ??_R3?$num_put@DV?$ostreambuf_iterator@DU?$char_traits@D@std@@@std@@@std@@8 000000018004a8a0     libcpmt:locale.obj
 0002:000128b8       ??_R2?$num_put@DV?$ostreambuf_iterator@DU?$char_traits@D@std@@@std@@@std@@8 000000018004a8b8     libcpmt:locale.obj
 0002:000128e0       ??_R1A@?0A@EA@?$num_put@DV?$ostreambuf_iterator@DU?$char_traits@D@std@@@std@@@std@@8 000000018004a8e0     libcpmt:locale.obj
 0002:00012908       ??_R4?$numpunct@D@std@@6B@ 000000018004a908     libcpmt:locale.obj
 0002:00012930       ??_R3?$numpunct@D@std@@8   000000018004a930     libcpmt:locale.obj
 0002:00012948       ??_R2?$numpunct@D@std@@8   000000018004a948     libcpmt:locale.obj
 0002:00012970       ??_R1A@?0A@EA@?$numpunct@D@std@@8 000000018004a970     libcpmt:locale.obj
 0002:00012998       ??_R4type_info@@6B@        000000018004a998     LIBCMT:std_type_info_static.obj
 0002:000129c0       ??_R3type_info@@8          000000018004a9c0     LIBCMT:std_type_info_static.obj
 0002:000129d8       ??_R2type_info@@8          000000018004a9d8     LIBCMT:std_type_info_static.obj
 0002:000129e8       ??_R1A@?0A@EA@type_info@@8 000000018004a9e8     LIBCMT:std_type_info_static.obj
 0002:00012a10       ??_R4bad_array_new_length@std@@6B@ 000000018004aa10     LIBCMT:throw_bad_alloc.obj
 0002:00012a38       ??_R3bad_array_new_length@std@@8 000000018004aa38     LIBCMT:throw_bad_alloc.obj
 0002:00012a50       ??_R2bad_array_new_length@std@@8 000000018004aa50     LIBCMT:throw_bad_alloc.obj
 0002:00012a70       ??_R1A@?0A@EA@bad_array_new_length@std@@8 000000018004aa70     LIBCMT:throw_bad_alloc.obj
 0002:00012a98       ??_R4bad_exception@std@@6B@ 000000018004aa98     libvcruntime:frame.obj
 0002:00012ac0       ??_R3bad_exception@std@@8  000000018004aac0     libvcruntime:frame.obj
 0002:00012ad8       ??_R2bad_exception@std@@8  000000018004aad8     libvcruntime:frame.obj
 0002:00012af0       ??_R1A@?0A@EA@bad_exception@std@@8 000000018004aaf0     libvcruntime:frame.obj
 0002:00012fb8       __rtc_iaa                  000000018004afb8     LIBCMT:_initsect_.obj
 0002:00012fc0       __rtc_izz                  000000018004afc0     LIBCMT:_initsect_.obj
 0002:00012fc8       __rtc_taa                  000000018004afc8     LIBCMT:_initsect_.obj
 0002:00012fd0       __rtc_tzz                  000000018004afd0     LIBCMT:_initsect_.obj
 0002:00015a68       _CT??_R0?AVexception@std@@@8??0exception@std@@QEAA@AEBV01@@Z24 000000018004da68     libcpmt:cout.obj
 0002:00015a90       _TI2?AVbad_alloc@std@@     000000018004da90     libcpmt:xthrow.obj
 0002:00015ab0       _CTA2?AVbad_alloc@std@@    000000018004dab0     libcpmt:xthrow.obj
 0002:00015ac8       _CT??_R0?AVbad_alloc@std@@@8??0bad_alloc@std@@QEAA@AEBV01@@Z24 000000018004dac8     libcpmt:xthrow.obj
 0002:00015af0       _CT??_R0?AVlogic_error@std@@@8??0logic_error@std@@QEAA@AEBV01@@Z24 000000018004daf0     libcpmt:xthrow.obj
 0002:00015b18       _TI3?AVlength_error@std@@  000000018004db18     libcpmt:xthrow.obj
 0002:00015b38       _CTA3?AVlength_error@std@@ 000000018004db38     libcpmt:xthrow.obj
 0002:00015b58       _CT??_R0?AVlength_error@std@@@8??0length_error@std@@QEAA@AEBV01@@Z24 000000018004db58     libcpmt:xthrow.obj
 0002:00015b80       _TI3?AVout_of_range@std@@  000000018004db80     libcpmt:xthrow.obj
 0002:00015ba0       _CTA3?AVout_of_range@std@@ 000000018004dba0     libcpmt:xthrow.obj
 0002:00015bc0       _CT??_R0?AVout_of_range@std@@@8??0out_of_range@std@@QEAA@AEBV01@@Z24 000000018004dbc0     libcpmt:xthrow.obj
 0002:00015be8       _TI3?AVbad_array_new_length@std@@ 000000018004dbe8     LIBCMT:throw_bad_alloc.obj
 0002:00015c08       _CTA3?AVbad_array_new_length@std@@ 000000018004dc08     LIBCMT:throw_bad_alloc.obj
 0002:00015c28       _CT??_R0?AVbad_array_new_length@std@@@8??0bad_array_new_length@std@@QEAA@AEBV01@@Z24 000000018004dc28     LIBCMT:throw_bad_alloc.obj
 0002:00015c50       _TI2?AVbad_exception@std@@ 000000018004dc50     libvcruntime:frame.obj
 0002:00015c70       _CTA2?AVbad_exception@std@@ 000000018004dc70     libvcruntime:frame.obj
 0002:00015c88       _CT??_R0?AVbad_exception@std@@@8??0bad_exception@std@@QEAA@AEBV01@@Z24 000000018004dc88     libvcruntime:frame.obj
 0002:00015cac       __DELAY_IMPORT_DESCRIPTOR_node_exe 000000018004dcac     node:node.exe
 0002:00015ccc       __NULL_DELAY_IMPORT_DESCRIPTOR 000000018004dccc     node:node.exe
 0002:00015f60       \177node_NULL_THUNK_DATA_DLN 000000018004df60     node:node.exe
 0002:00016f20       \177node_NULL_THUNK_DATA_DLB 000000018004ef20     node:node.exe
 0002:000171e4       __IMPORT_DESCRIPTOR_KERNEL32 000000018004f1e4     kernel32:KERNEL32.dll
 0002:000171f8       __IMPORT_DESCRIPTOR_dbghelp 000000018004f1f8     dbghelp:dbghelp.dll
 0002:0001720c       __IMPORT_DESCRIPTOR_NETAPI32 000000018004f20c     Netapi32:NETAPI32.dll
 0002:00017220       __IMPORT_DESCRIPTOR_PSAPI  000000018004f220     PsApi:PSAPI.DLL
 0002:00017234       __IMPORT_DESCRIPTOR_WS2_32 000000018004f234     Ws2_32:WS2_32.dll
 0002:00017248       __NULL_IMPORT_DESCRIPTOR   000000018004f248     kernel32:KERNEL32.dll
 0003:00000004       ?_Sync@ios_base@std@@0_NA  0000000180050004     libcpmt:ios.obj
 0003:00000020       ?_PJP_CPP_Copyright@@3PADA 0000000180050020     libcpmt:iosptrs.obj
 0003:00000080       _Init_global_epoch         0000000180050080     LIBCMT:thread_safe_statics.obj
 0003:00000084       __scrt_native_dllmain_reason 0000000180050084     LIBCMT:utility.obj
 0003:00000088       __security_cookie          0000000180050088     LIBCMT:gs_cookie.obj
 0003:00000090       __security_cookie_complement 0000000180050090     LIBCMT:gs_cookie.obj
 0003:00000098       _fltused                   0000000180050098     LIBCMT:fltused.obj
 0003:000000a0       __isa_available            00000001800500a0     LIBCMT:_cpu_disp_.obj
 0003:000000a4       __isa_enabled              00000001800500a4     LIBCMT:_cpu_disp_.obj
 0003:000000a8       __memcpy_nt_iters          00000001800500a8     LIBCMT:_cpu_disp_.obj
 0003:000000c0       __abort_behavior           00000001800500c0     libucrt:abort.obj
 0003:000000d0       _iob                       00000001800500d0     libucrt:_file.obj
 0003:000001e0       __acrt_lconv_c             00000001800501e0     libucrt:localeconv.obj
 0003:00000278       __acrt_lconv               0000000180050278     libucrt:localeconv.obj
 0003:00000280       __acrt_lconv_static_decimal 0000000180050280     libucrt:localeconv.obj
 0003:00000284       __acrt_lconv_static_W_decimal 0000000180050284     libucrt:localeconv.obj
 0003:00000298       _pctype                    0000000180050298     libucrt:ctype.obj
 0003:000002a0       _pwctype                   00000001800502a0     libucrt:ctype.obj
 0003:000002b0       __badioinfo                00000001800502b0     libucrt:ioinit.obj
 0003:00000300       __acrt_initial_locale_data 0000000180050300     libucrt:nlsdata.obj
 0003:00000458       __acrt_initial_locale_pointers 0000000180050458     libucrt:nlsdata.obj
 0003:00000468       __acrt_wide_c_locale_string 0000000180050468     libucrt:nlsdata.obj
 0003:0000046c       __mb_cur_max               000000018005046c     libucrt:nlsdata.obj
 0003:00000474       __globallocalestatus       0000000180050474     libucrt:glstatus.obj
 0003:00000510       __acrt_initial_multibyte_data 0000000180050510     libucrt:mbctype.obj
 0003:00000738       __acrt_current_multibyte_data 0000000180050738     libucrt:mbctype.obj
 0003:00000840       _mbctype                   0000000180050840     libucrt:mbctype.obj
 0003:00000950       _mbcasemap                 0000000180050950     libucrt:mbctype.obj
 0003:00000a50       _lookuptrailbytes          0000000180050a50     libucrt:read.obj
 0003:00000b50       __dcrt_lowio_console_output_handle 0000000180050b50     libucrt:initcon.obj
 0003:00000b70       ?v8_states@nodereport@@3PAPEBDA 0000000180050b70     node_report.obj
 0003:00000bf0       ??_R0?AVruntime_error@std@@@8 0000000180050bf0     libcpmt:cout.obj
 0003:00000c18       ??_R0?AVexception@std@@@8  0000000180050c18     libcpmt:cout.obj
 0003:00000c40       ??_R0?AVfailure@ios_base@std@@@8 0000000180050c40     libcpmt:cout.obj
 0003:00000c70       ??_R0?AVsystem_error@std@@@8 0000000180050c70     libcpmt:cout.obj
 0003:00000c98       ??_R0?AV_System_error@std@@@8 0000000180050c98     libcpmt:cout.obj
 0003:00000cc0       ??_R0?AVios_base@std@@@8   0000000180050cc0     libcpmt:cout.obj
 0003:00000ce8       ??_R0?AV?$_Iosb@H@std@@@8  0000000180050ce8     libcpmt:cout.obj
 0003:00000d10       ??_R0?AV?$basic_ios@DU?$char_traits@D@std@@@std@@@8 0000000180050d10     libcpmt:cout.obj
 0003:00000d50       ??_R0?AV?$basic_streambuf@DU?$char_traits@D@std@@@std@@@8 0000000180050d50     libcpmt:cout.obj
 0003:00000da0       ??_R0?AV?$basic_ostream@DU?$char_traits@D@std@@@std@@@8 0000000180050da0     libcpmt:cout.obj
 0003:00000df0       ??_R0?AV?$basic_filebuf@DU?$char_traits@D@std@@@std@@@8 0000000180050df0     libcpmt:cout.obj
 0003:00000e38       ??_R0?AV_Facet_base@std@@@8 0000000180050e38     libcpmt:cout.obj
 0003:00000e60       ??_R0?AVfacet@locale@std@@@8 0000000180050e60     libcpmt:cout.obj
 0003:00000e88       ??_R0?AU_Crt_new_delete@std@@@8 0000000180050e88     libcpmt:cout.obj
 0003:00000eb8       ??_R0?AVcodecvt_base@std@@@8 0000000180050eb8     libcpmt:cout.obj
 0003:00000ee0       ??_R0?AUctype_base@std@@@8 0000000180050ee0     libcpmt:cout.obj
 0003:00000f08       ??_R0?AV?$ctype@D@std@@@8  0000000180050f08     libcpmt:cout.obj
 0003:00000f30       ??_R0?AVerror_category@std@@@8 0000000180050f30     libcpmt:cout.obj
 0003:00000f60       ??_R0?AV_Generic_error_category@std@@@8 0000000180050f60     libcpmt:cout.obj
 0003:00000f98       ??_R0?AV_Iostream_error_category@std@@@8 0000000180050f98     libcpmt:cout.obj
 0003:00000fd0       ??_R0?AV?$codecvt@DDU_Mbstatet@@@std@@@8 0000000180050fd0     libcpmt:cout.obj
 0003:00001008       ??_R0?AV_Locimp@locale@std@@@8 0000000180051008     libcpmt:locale0.obj
 0003:00001038       ??_R0?AVbad_alloc@std@@@8  0000000180051038     libcpmt:xthrow.obj
 0003:00001060       ??_R0?AVlogic_error@std@@@8 0000000180051060     libcpmt:xthrow.obj
 0003:00001088       ??_R0?AVlength_error@std@@@8 0000000180051088     libcpmt:xthrow.obj
 0003:000010b0       ??_R0?AVout_of_range@std@@@8 00000001800510b0     libcpmt:xthrow.obj
 0003:000010e0       ??_R0?AV?$num_put@DV?$ostreambuf_iterator@DU?$char_traits@D@std@@@std@@@std@@@8 00000001800510e0     libcpmt:locale.obj
 0003:00001140       ??_R0?AV?$numpunct@D@std@@@8 0000000180051140     libcpmt:locale.obj
 0003:00001168       ??_R0?AVtype_info@@@8      0000000180051168     LIBCMT:std_type_info_static.obj
 0003:00001188       ??_R0?AVbad_array_new_length@std@@@8 0000000180051188     LIBCMT:throw_bad_alloc.obj
 0003:000011b8       ??_R0?AVbad_exception@std@@@8 00000001800511b8     libvcruntime:frame.obj
 0003:000011e0       __imp_?GetStackSample@Isolate@v8@@QEAAXAEBURegisterState@2@PEAPEAX_KPEAUSampleInfo@2@@Z 00000001800511e0     node:node.exe
 0003:000011e8       __imp_?GetHeapSpaceStatistics@Isolate@v8@@QEAA_NPEAVHeapSpaceStatistics@2@_K@Z 00000001800511e8     node:node.exe
 0003:000011f0       __imp_?NumberOfHeapSpaces@Isolate@v8@@QEAA_KXZ 00000001800511f0     node:node.exe
 0003:000011f8       __imp_?GetHeapStatistics@Isolate@v8@@QEAAXPEAVHeapStatistics@2@@Z 00000001800511f8     node:node.exe
 0003:00001200       __imp_?GetCurrent@Isolate@v8@@SAPEAV12@XZ 0000000180051200     node:node.exe
 0003:00001208       __imp_??1HandleScope@v8@@QEAA@XZ 0000000180051208     node:node.exe
 0003:00001210       __imp_??0HandleScope@v8@@QEAA@PEAVIsolate@1@@Z 0000000180051210     node:node.exe
 0003:00001218       __imp_?IsConstructor@StackFrame@v8@@QEBA_NXZ 0000000180051218     node:node.exe
 0003:00001220       __imp_?IsEval@StackFrame@v8@@QEBA_NXZ 0000000180051220     node:node.exe
 0003:00001228       __imp_?GetFunctionName@StackFrame@v8@@QEBA?AV?$Local@VString@v8@@@2@XZ 0000000180051228     node:node.exe
 0003:00001230       __imp_?GetScriptName@StackFrame@v8@@QEBA?AV?$Local@VString@v8@@@2@XZ 0000000180051230     node:node.exe
 0003:00001238       __imp_?GetScriptId@StackFrame@v8@@QEBAHXZ 0000000180051238     node:node.exe
 0003:00001240       __imp_?GetColumn@StackFrame@v8@@QEBAHXZ 0000000180051240     node:node.exe
 0003:00001248       __imp_?GetLineNumber@StackFrame@v8@@QEBAHXZ 0000000180051248     node:node.exe
 0003:00001250       __imp_?GetStackTrace@Exception@v8@@SA?AV?$Local@VStackTrace@v8@@@2@V?$Local@VValue@v8@@@2@@Z 0000000180051250     node:node.exe
 0003:00001258       __imp_?CreateMessage@Exception@v8@@SA?AV?$Local@VMessage@v8@@@2@PEAVIsolate@2@V?$Local@VValue@v8@@@2@@Z 0000000180051258     node:node.exe
 0003:00001260       __imp_?ToLocalEmpty@V8@v8@@CAXXZ 0000000180051260     node:node.exe
 0003:00001268       __imp_?IsNativeError@Value@v8@@QEBA_NXZ 0000000180051268     node:node.exe
 0003:00001270       __imp_??0HeapStatistics@v8@@QEAA@XZ 0000000180051270     node:node.exe
 0003:00001278       __imp_?Get@Message@v8@@QEBA?AV?$Local@VString@v8@@@2@XZ 0000000180051278     node:node.exe
 0003:00001280       __imp_?WriteUtf8@String@v8@@QEBAHPEADHPEAHH@Z 0000000180051280     node:node.exe
 0003:00001288       __imp_?Length@String@v8@@QEBAHXZ 0000000180051288     node:node.exe
 0003:00001290       __imp_?CurrentStackTrace@StackTrace@v8@@SA?AV?$Local@VStackTrace@v8@@@2@PEAVIsolate@2@HW4StackTraceOptions@12@@Z 0000000180051290     node:node.exe
 0003:00001298       __imp_?GetFrameCount@StackTrace@v8@@QEBAHXZ 0000000180051298     node:node.exe
 0003:000012a0       __imp_?GetFrame@StackTrace@v8@@QEBA?AV?$Local@VStackFrame@v8@@@2@I@Z 00000001800512a0     node:node.exe
 0003:000012a8       __imp_??0HeapSpaceStatistics@v8@@QEAA@XZ 00000001800512a8     node:node.exe
 0003:000012b0       __imp_uv_walk              00000001800512b0     node:node.exe
 0003:000012b8       __imp_uv_default_loop      00000001800512b8     node:node.exe
 0003:000012c0       __imp_?ToString@Value@v8@@QEBA?AV?$Local@VString@v8@@@2@XZ 00000001800512c0     node:node.exe
 0003:000012c8       __imp_?Value@External@v8@@QEBAPEAXXZ 00000001800512c8     node:node.exe
 0003:000012d0       __imp_?New@External@v8@@SA?AV?$Local@VExternal@v8@@@2@PEAVIsolate@2@PEAX@Z 00000001800512d0     node:node.exe
 0003:000012d8       __imp_?SetCaptureStackTraceForUncaughtExceptions@Isolate@v8@@QEAAX_NHW4StackTraceOptions@StackTrace@2@@Z 00000001800512d8     node:node.exe
 0003:000012e0       __imp_?SetFatalErrorHandler@Isolate@v8@@QEAAXP6AXPEBD0@Z@Z 00000001800512e0     node:node.exe
 0003:000012e8       __imp_?ThrowException@Isolate@v8@@QEAA?AV?$Local@VValue@v8@@@2@V32@@Z 00000001800512e8     node:node.exe
 0003:000012f0       __imp_?GetCurrentContext@Isolate@v8@@QEAA?AV?$Local@VContext@v8@@@2@XZ 00000001800512f0     node:node.exe
 0003:000012f8       __imp_?SetAbortOnUncaughtExceptionCallback@Isolate@v8@@QEAAXP6A_NPEAV12@@Z@Z 00000001800512f8     node:node.exe
 0003:00001300       __imp_?CreateHandle@HandleScope@v8@@KAPEAPEAVObject@internal@2@PEAVIsolate@42@PEAV342@@Z 0000000180051300     node:node.exe
 0003:00001308       __imp_?CreateHandle@HandleScope@v8@@CAPEAPEAVObject@internal@2@PEAVHeapObject@42@PEAV342@@Z 0000000180051308     node:node.exe
 0003:00001310       __imp_?Error@Exception@v8@@SA?AV?$Local@VValue@v8@@@2@V?$Local@VString@v8@@@2@@Z 0000000180051310     node:node.exe
 0003:00001318       __imp_?GetFunction@FunctionTemplate@v8@@QEAA?AV?$Local@VFunction@v8@@@2@XZ 0000000180051318     node:node.exe
 0003:00001320       __imp_?New@FunctionTemplate@v8@@SA?AV?$Local@VFunctionTemplate@v8@@@2@PEAVIsolate@2@P6AXAEBV?$FunctionCallbackInfo@VValue@v8@@@2@@ZV?$Local@VValue@v8@@@2@V?$Local@VSignature@v8@@@2@HW4ConstructorBehavior@2@@Z 0000000180051320     node:node.exe
 0003:00001328       __imp_?GetVersion@V8@v8@@SAPEBDXZ 0000000180051328     node:node.exe
 0003:00001330       __imp_?SetFlagsFromString@V8@v8@@SAXPEBDH@Z 0000000180051330     node:node.exe
 0003:00001338       __imp_?Escape@EscapableHandleScope@v8@@AEAAPEAPEAVObject@internal@2@PEAPEAV342@@Z 0000000180051338     node:node.exe
 0003:00001340       __imp_??0EscapableHandleScope@v8@@QEAA@PEAVIsolate@1@@Z 0000000180051340     node:node.exe
 0003:00001348       __imp_?NewFromUtf8@String@v8@@SA?AV?$MaybeLocal@VString@v8@@@2@PEAVIsolate@2@PEBDW4NewStringType@2@H@Z 0000000180051348     node:node.exe
 0003:00001350       __imp_?SlowGetInternalField@Object@v8@@AEAA?AV?$Local@VValue@v8@@@2@H@Z 0000000180051350     node:node.exe
 0003:00001358       __imp_?SetInternalField@Object@v8@@QEAAXHV?$Local@VValue@v8@@@2@@Z 0000000180051358     node:node.exe
 0003:00001360       __imp_?Set@Object@v8@@QEAA_NV?$Local@VValue@v8@@@2@0@Z 0000000180051360     node:node.exe
 0003:00001368       __imp_?SetInternalFieldCount@ObjectTemplate@v8@@QEAAXH@Z 0000000180051368     node:node.exe
 0003:00001370       __imp_?NewInstance@ObjectTemplate@v8@@QEAA?AV?$MaybeLocal@VObject@v8@@@2@V?$Local@VContext@v8@@@2@@Z 0000000180051370     node:node.exe
 0003:00001378       __imp_?New@ObjectTemplate@v8@@SA?AV?$Local@VObjectTemplate@v8@@@2@PEAVIsolate@2@V?$Local@VFunctionTemplate@v8@@@2@@Z 0000000180051378     node:node.exe
 0003:00001380       __imp_node_module_register 0000000180051380     node:node.exe
 0003:00001388       __imp_uv_is_active         0000000180051388     node:node.exe
 0003:00001390       __imp_uv_now               0000000180051390     node:node.exe
 0003:00001398       __imp_?Global@Context@v8@@QEAA?AV?$Local@VObject@v8@@@2@XZ 0000000180051398     node:node.exe
 0003:000013a0       __imp_?Length@Array@v8@@QEBAIXZ 00000001800513a0     node:node.exe
 0003:000013a8       __imp_?IsObject@Value@v8@@QEBA_NXZ 00000001800513a8     node:node.exe
 0003:000013b0       __imp_??1TryCatch@v8@@QEAA@XZ 00000001800513b0     node:node.exe
 0003:000013b8       __imp_??0TryCatch@v8@@QEAA@PEAVIsolate@1@@Z 00000001800513b8     node:node.exe
 0003:000013c0       __imp_?GetOwnPropertyNames@Object@v8@@QEAA?AV?$MaybeLocal@VArray@v8@@@2@V?$Local@VContext@v8@@@2@@Z 00000001800513c0     node:node.exe
 0003:000013c8       __imp_?Get@Object@v8@@QEAA?AV?$MaybeLocal@VValue@v8@@@2@V?$Local@VContext@v8@@@2@V?$Local@VValue@v8@@@2@@Z 00000001800513c8     node:node.exe
 0003:000013d0       __imp_?Get@Object@v8@@QEAA?AV?$MaybeLocal@VValue@v8@@@2@V?$Local@VContext@v8@@@2@I@Z 00000001800513d0     node:node.exe
 0003:000013d8       __imp_uv_is_writable       00000001800513d8     node:node.exe
 0003:000013e0       __imp_uv_getnameinfo       00000001800513e0     node:node.exe
 0003:000013e8       __imp_uv_timer_get_repeat  00000001800513e8     node:node.exe
 0003:000013f0       __imp_uv_fs_poll_getpath   00000001800513f0     node:node.exe
 0003:000013f8       __imp_uv_tcp_getpeername   00000001800513f8     node:node.exe
 0003:00001400       __imp_uv_udp_getsockname   0000000180051400     node:node.exe
 0003:00001408       __imp_uv_has_ref           0000000180051408     node:node.exe
 0003:00001410       __imp_uv_send_buffer_size  0000000180051410     node:node.exe
 0003:00001418       __imp_uv_fileno            0000000180051418     node:node.exe
 0003:00001420       __imp_uv_is_readable       0000000180051420     node:node.exe
 0003:00001428       __imp_uv_tcp_getsockname   0000000180051428     node:node.exe
 0003:00001430       __imp_uv_fs_event_getpath  0000000180051430     node:node.exe
 0003:00001438       __imp_uv_inet_ntop         0000000180051438     node:node.exe
 0003:00001440       __imp_uv_tty_get_winsize   0000000180051440     node:node.exe
 0003:00001448       __imp_uv_recv_buffer_size  0000000180051448     node:node.exe
 0003:00001450       \177node_NULL_THUNK_DATA_DLA 0000000180051450     node:node.exe
 0003:00001460       __hmod__node_exe           0000000180051460     node:node.exe
 0003:000015d0       ?cout@std@@3V?$basic_ostream@DU?$char_traits@D@std@@@1@A 00000001800515d0     libcpmt:cout.obj
 0003:000016e0       ?_Id_cnt@id@locale@std@@0HA 00000001800516e0     libcpmt:locale0.obj
 0003:000016e8       ?_Clocptr@_Locimp@locale@std@@0PEAV123@EA 00000001800516e8     libcpmt:locale0.obj
 0003:000016f8       ?id@?$ctype@_W@std@@2V0locale@2@A 00000001800516f8     libcpmt:locale0.obj
 0003:00001700       ?id@?$ctype@D@std@@2V0locale@2@A 0000000180051700     libcpmt:locale0.obj
 0003:00001708       ?id@?$codecvt@GDU_Mbstatet@@@std@@2V0locale@2@A 0000000180051708     libcpmt:locale0.obj
 0003:00001710       ?id@?$ctype@G@std@@2V0locale@2@A 0000000180051710     libcpmt:locale0.obj
 0003:00001728       ?id@?$codecvt@_WDU_Mbstatet@@@std@@2V0locale@2@A 0000000180051728     libcpmt:locale0.obj
 0003:0000179c       ?_Index@ios_base@std@@0HA  000000018005179c     libcpmt:ios.obj
 0003:000017b0       ?cerr@std@@3V?$basic_ostream@DU?$char_traits@D@std@@@1@A 00000001800517b0     libcpmt:cerr.obj
 0003:000018b8       ?_Raise_handler@std@@3P6AXAEBVexception@stdext@@@ZEA 00000001800518b8     libcpmt:raisehan.obj
 0003:000018c0       ?_Ptr_cin@std@@3PEAV?$basic_istream@DU?$char_traits@D@std@@@1@EA 00000001800518c0     libcpmt:iosptrs.obj
 0003:000018c8       ?_Ptr_cout@std@@3PEAV?$basic_ostream@DU?$char_traits@D@std@@@1@EA 00000001800518c8     libcpmt:iosptrs.obj
 0003:000018d0       ?_Ptr_cerr@std@@3PEAV?$basic_ostream@DU?$char_traits@D@std@@@1@EA 00000001800518d0     libcpmt:iosptrs.obj
 0003:000018d8       ?_Ptr_clog@std@@3PEAV?$basic_ostream@DU?$char_traits@D@std@@@1@EA 00000001800518d8     libcpmt:iosptrs.obj
 0003:000018e0       ?_Ptr_wcin@std@@3PEAV?$basic_istream@_WU?$char_traits@_W@std@@@1@EA 00000001800518e0     libcpmt:iosptrs.obj
 0003:000018e8       ?_Ptr_wcout@std@@3PEAV?$basic_ostream@_WU?$char_traits@_W@std@@@1@EA 00000001800518e8     libcpmt:iosptrs.obj
 0003:000018f0       ?_Ptr_wcerr@std@@3PEAV?$basic_ostream@_WU?$char_traits@_W@std@@@1@EA 00000001800518f0     libcpmt:iosptrs.obj
 0003:000018f8       ?_Ptr_wclog@std@@3PEAV?$basic_ostream@_WU?$char_traits@_W@std@@@1@EA 00000001800518f8     libcpmt:iosptrs.obj
 0003:00001958       ?id@?$num_get@DV?$istreambuf_iterator@DU?$char_traits@D@std@@@std@@@std@@2V0locale@2@A 0000000180051958     libcpmt:locale.obj
 0003:00001960       __encodedKERNEL32Functions 0000000180051960     libcpmt:winapisupp.obj
 0003:00001aa0       ?id@?$time_put@_WV?$ostreambuf_iterator@_WU?$char_traits@_W@std@@@std@@@std@@2V0locale@2@A 0000000180051aa0     libcpmt:wlocale.obj
 0003:00001aa8       ?id@?$num_get@_WV?$istreambuf_iterator@_WU?$char_traits@_W@std@@@std@@@std@@2V0locale@2@A 0000000180051aa8     libcpmt:wlocale.obj
 0003:00001ab0       ?id@?$num_put@_WV?$ostreambuf_iterator@_WU?$char_traits@_W@std@@@std@@@std@@2V0locale@2@A 0000000180051ab0     libcpmt:wlocale.obj
 0003:00001ab8       ?id@?$numpunct@_W@std@@2V0locale@2@A 0000000180051ab8     libcpmt:wlocale.obj
 0003:00001ac0       ?id@?$collate@_W@std@@2V0locale@2@A 0000000180051ac0     libcpmt:wlocale.obj
 0003:00001ac8       ?id@?$messages@_W@std@@2V0locale@2@A 0000000180051ac8     libcpmt:wlocale.obj
 0003:00001ad0       ?id@?$money_get@_WV?$istreambuf_iterator@_WU?$char_traits@_W@std@@@std@@@std@@2V0locale@2@A 0000000180051ad0     libcpmt:wlocale.obj
 0003:00001ad8       ?id@?$money_put@_WV?$ostreambuf_iterator@_WU?$char_traits@_W@std@@@std@@@std@@2V0locale@2@A 0000000180051ad8     libcpmt:wlocale.obj
 0003:00001ae0       ?id@?$moneypunct@_W$0A@@std@@2V0locale@2@A 0000000180051ae0     libcpmt:wlocale.obj
 0003:00001ae8       ?id@?$moneypunct@_W$00@std@@2V0locale@2@A 0000000180051ae8     libcpmt:wlocale.obj
 0003:00001af0       ?id@?$time_get@_WV?$istreambuf_iterator@_WU?$char_traits@_W@std@@@std@@@std@@2V0locale@2@A 0000000180051af0     libcpmt:wlocale.obj
 0003:00001af8       ?id@?$num_get@GV?$istreambuf_iterator@GU?$char_traits@G@std@@@std@@@std@@2V0locale@2@A 0000000180051af8     libcpmt:wlocale.obj
 0003:00001b00       ?id@?$num_put@GV?$ostreambuf_iterator@GU?$char_traits@G@std@@@std@@@std@@2V0locale@2@A 0000000180051b00     libcpmt:wlocale.obj
 0003:00001b08       ?id@?$numpunct@G@std@@2V0locale@2@A 0000000180051b08     libcpmt:wlocale.obj
 0003:00001b10       ?id@?$collate@G@std@@2V0locale@2@A 0000000180051b10     libcpmt:wlocale.obj
 0003:00001b18       ?id@?$messages@G@std@@2V0locale@2@A 0000000180051b18     libcpmt:wlocale.obj
 0003:00001b20       ?id@?$money_get@GV?$istreambuf_iterator@GU?$char_traits@G@std@@@std@@@std@@2V0locale@2@A 0000000180051b20     libcpmt:wlocale.obj
 0003:00001b28       ?id@?$money_put@GV?$ostreambuf_iterator@GU?$char_traits@G@std@@@std@@@std@@2V0locale@2@A 0000000180051b28     libcpmt:wlocale.obj
 0003:00001b30       ?id@?$moneypunct@G$0A@@std@@2V0locale@2@A 0000000180051b30     libcpmt:wlocale.obj
 0003:00001b38       ?id@?$moneypunct@G$00@std@@2V0locale@2@A 0000000180051b38     libcpmt:wlocale.obj
 0003:00001b40       ?id@?$time_get@GV?$istreambuf_iterator@GU?$char_traits@G@std@@@std@@@std@@2V0locale@2@A 0000000180051b40     libcpmt:wlocale.obj
 0003:00001b48       ?id@?$time_put@GV?$ostreambuf_iterator@GU?$char_traits@G@std@@@std@@@std@@2V0locale@2@A 0000000180051b48     libcpmt:wlocale.obj
 0003:00001b50       ?id@?$collate@D@std@@2V0locale@2@A 0000000180051b50     libcpmt:xlocale.obj
 0003:00001b58       ?id@?$messages@D@std@@2V0locale@2@A 0000000180051b58     libcpmt:xlocale.obj
 0003:00001b60       ?id@?$money_get@DV?$istreambuf_iterator@DU?$char_traits@D@std@@@std@@@std@@2V0locale@2@A 0000000180051b60     libcpmt:xlocale.obj
 0003:00001b68       ?id@?$money_put@DV?$ostreambuf_iterator@DU?$char_traits@D@std@@@std@@@std@@2V0locale@2@A 0000000180051b68     libcpmt:xlocale.obj
 0003:00001b70       ?id@?$moneypunct@D$0A@@std@@2V0locale@2@A 0000000180051b70     libcpmt:xlocale.obj
 0003:00001b78       ?id@?$moneypunct@D$00@std@@2V0locale@2@A 0000000180051b78     libcpmt:xlocale.obj
 0003:00001b80       ?id@?$time_get@DV?$istreambuf_iterator@DU?$char_traits@D@std@@@std@@@std@@2V0locale@2@A 0000000180051b80     libcpmt:xlocale.obj
 0003:00001b88       ?id@?$time_put@DV?$ostreambuf_iterator@DU?$char_traits@D@std@@@std@@@std@@2V0locale@2@A 0000000180051b88     libcpmt:xlocale.obj
 0003:00001bd8       __scrt_current_native_startup_state 0000000180051bd8     LIBCMT:utility.obj
 0003:00001be0       __scrt_native_startup_lock 0000000180051be0     LIBCMT:utility.obj
 0003:00002190       __scrt_debugger_hook_flag  0000000180052190     LIBCMT:utility_desktop.obj
 0003:00002194       _tls_index                 0000000180052194     LIBCMT:tlssup.obj
 0003:00002198       __favor                    0000000180052198     LIBCMT:_cpu_disp_.obj
 0003:000021a0       ?__type_info_root_node@@3U__type_info_node@@A 00000001800521a0     LIBCMT:tncleanup.obj
 0003:000021b0       ?g_OutOfMemoryExceptionCallback@@3P6APEAXXZEA 00000001800521b0     libvcruntime:frame.obj
 0003:00002228       __pPurecall                0000000180052228     libvcruntime:purevirt_data.obj
 0003:000022d8       ?pArgList@UnDecorator@@0PEAVReplicator@@EA 00000001800522d8     libvcruntime:undname.obj
 0003:000022e0       ?pZNameList@UnDecorator@@0PEAVReplicator@@EA 00000001800522e0     libvcruntime:undname.obj
 0003:000022e8       ?pTemplateArgList@UnDecorator@@0PEAVReplicator@@EA 00000001800522e8     libvcruntime:undname.obj
 0003:000022f0       ?gName@UnDecorator@@0PEBDEB 00000001800522f0     libvcruntime:undname.obj
 0003:000022f8       ?name@UnDecorator@@0PEBDEB 00000001800522f8     libvcruntime:undname.obj
 0003:00002300       ?outputString@UnDecorator@@0PEADEA 0000000180052300     libvcruntime:undname.obj
 0003:00002308       ?maxStringLength@UnDecorator@@0HA 0000000180052308     libvcruntime:undname.obj
 0003:0000230c       ?disableFlags@UnDecorator@@0KA 000000018005230c     libvcruntime:undname.obj
 0003:00002310       ?fExplicitTemplateParams@UnDecorator@@0_NA 0000000180052310     libvcruntime:undname.obj
 0003:00002311       ?fGetTemplateArgumentList@UnDecorator@@0_NA 0000000180052311     libvcruntime:undname.obj
 0003:00002318       ?m_pGetParameter@UnDecorator@@0P6APEADJ@ZEA 0000000180052318     libvcruntime:undname.obj
 0003:00002350       _nstream                   0000000180052350     libucrt:_file.obj
 0003:00002358       __piob                     0000000180052358     libucrt:_file.obj
 0003:00002360       _cflush                    0000000180052360     libucrt:_file.obj
 0003:00002364       __acrt_lconv_static_null   0000000180052364     libucrt:localeconv.obj
 0003:00002368       __acrt_lconv_static_W_null 0000000180052368     libucrt:localeconv.obj
 0003:000026c8       _environ_table             00000001800526c8     libucrt:environment_initialization.obj
 0003:000026d0       _wenviron_table            00000001800526d0     libucrt:environment_initialization.obj
 0003:000026d8       __dcrt_initial_wide_environment 00000001800526d8     libucrt:environment_initialization.obj
 0003:000026e0       __dcrt_initial_narrow_environment 00000001800526e0     libucrt:environment_initialization.obj
 0003:000026e8       __acrt_atexit_table        00000001800526e8     libucrt:onexit.obj
 0003:00002700       __acrt_at_quick_exit_table 0000000180052700     libucrt:onexit.obj
 0003:00002720       __pioinfo                  0000000180052720     libucrt:ioinit.obj
 0003:00002b20       _nhandle                   0000000180052b20     libucrt:ioinit.obj
 0003:00002b30       __acrt_stdout_buffer       0000000180052b30     libucrt:_sftbuf.obj
 0003:00002b38       __acrt_stderr_buffer       0000000180052b38     libucrt:_sftbuf.obj
 0003:00002b40       __acrt_locale_changed_data 0000000180052b40     libucrt:wsetlocale.obj
 0003:00002b48       __acrt_current_locale_data 0000000180052b48     libucrt:nlsdata.obj
 0003:00002d08       __acrt_heap                0000000180052d08     libucrt:heap_handle.obj
 0003:00002d10       __fma3_is_available        0000000180052d10     libucrt:fma3_available.obj
 0003:00002d14       __use_fma3_lib             0000000180052d14     libucrt:fma3_available.obj
 0003:00002d18       ?_timezone@@3V?$dual_state_global@J@__crt_state_management@@A 0000000180052d18     libucrt:timeset.obj
 0003:00002d1c       ?_daylight@@3V?$dual_state_global@H@__crt_state_management@@A 0000000180052d1c     libucrt:timeset.obj
 0003:00002d20       ?_dstbias@@3V?$dual_state_global@J@__crt_state_management@@A 0000000180052d20     libucrt:timeset.obj
 0003:00002dec       __mbcodepage               0000000180052dec     libucrt:mbctype.obj
 0003:00002df0       __ismbcodepage             0000000180052df0     libucrt:mbctype.obj
 0003:00002df8       __mbulinfo                 0000000180052df8     libucrt:mbctype.obj
 0003:00002e08       __mblocalename             0000000180052e08     libucrt:mbctype.obj
 0003:00002e14       __argc                     0000000180052e14     libucrt:argv_data.obj
 0003:00002e18       __argv                     0000000180052e18     libucrt:argv_data.obj
 0003:00002e20       __wargv                    0000000180052e20     libucrt:argv_data.obj
 0003:00002e28       _acmdln                    0000000180052e28     libucrt:argv_data.obj
 0003:00002e30       _wcmdln                    0000000180052e30     libucrt:argv_data.obj
 0003:00002e38       _pgmptr                    0000000180052e38     libucrt:argv_data.obj
 0003:00002e48       _commode                   0000000180052e48     libucrt:ncommode.obj
 0003:00002e4c       _umaskval                  0000000180052e4c     libucrt:umask.obj
 0003:00002e50       _fmode                     0000000180052e50     libucrt:txtmode.obj
 0003:00002e58       ?DloadKernel32@@3PEAUHINSTANCE__@@EA 0000000180052e58     DelayImp:delayhlp.obj
 0003:00002e60       ?DloadAcquireSRWLockExclusive@@3P6AXPEA_K@ZEA 0000000180052e60     DelayImp:delayhlp.obj
 0003:00002e68       ?DloadReleaseSRWLockExclusive@@3P6AXPEA_K@ZEA 0000000180052e68     DelayImp:delayhlp.obj
 0003:00002e70       ?DloadSrwLock@@3_KA        0000000180052e70     DelayImp:delayhlp.obj
 0003:00002e78       ?DloadSectionLockCount@@3KA 0000000180052e78     DelayImp:delayhlp.obj
 0003:00002e7c       ?DloadSectionOldProtection@@3KA 0000000180052e7c     DelayImp:delayhlp.obj
 0003:00002e80       ?DloadSectionCommitPermanent@@3KA 0000000180052e80     DelayImp:delayhlp.obj
 0003:00002e88       ?_Static@?1???$_Immortalize@V_Iostream_error_category@std@@@std@@YAAEAV_Iostream_error_category@1@XZ@4U?$_Immortalizer@V_Iostream_error_category@std@@@1@A 0000000180052e88     node_report.obj
 0003:00002e98       ?$TSS0@?1???$_Immortalize@V_Iostream_error_category@std@@@std@@YAAEAV_Iostream_error_category@1@XZ@4HA 0000000180052e98     node_report.obj
 0003:00002ea0       ?_OptionsStorage@?1??__local_stdio_printf_options@@9@4_KA 0000000180052ea0     node_report.obj
 0003:00002ec0       ?report_directory@nodereport@@3PADA 0000000180052ec0     node_report.obj
 0003:000032c8       ?load_time@nodereport@@3_JA 00000001800532c8     node_report.obj
 0003:000032d0       ?report_filename@nodereport@@3PADA 00000001800532d0     node_report.obj
 0003:00003318       ?loadtime_tm_struct@nodereport@@3U_SYSTEMTIME@@A 0000000180053318     node_report.obj
 0003:00003328       ?commandline_string@nodereport@@3V?$basic_string@DU?$char_traits@D@std@@V?$allocator@D@2@@std@@A 0000000180053328     node_report.obj
 0003:00003348       ?version_string@nodereport@@3V?$basic_string@DU?$char_traits@D@std@@V?$allocator@D@2@@std@@A 0000000180053348     node_report.obj
 0003:00003368       ?_Psave@?$_Facetptr@V?$codecvt@DDU_Mbstatet@@@std@@@std@@2PEBVfacet@locale@2@EB 0000000180053368     node_report.obj
 0003:00003370       ?_Psave@?$_Facetptr@V?$numpunct@D@std@@@std@@2PEBVfacet@locale@2@EB 0000000180053370     node_report.obj
 0003:00003378       ?_Psave@?$_Facetptr@V?$num_put@DV?$ostreambuf_iterator@DU?$char_traits@D@std@@@std@@@std@@@std@@2PEBVfacet@locale@2@EB 0000000180053378     node_report.obj
 0003:00003380       ?_Psave@?$_Facetptr@V?$ctype@D@std@@@std@@2PEBVfacet@locale@2@EB 0000000180053380     node_report.obj
 0003:00003388       ?_OptionsStorage@?1??__local_stdio_scanf_options@@9@4_KA 0000000180053388     module.obj
 0003:00003390       ?id@?$num_put@DV?$ostreambuf_iterator@DU?$char_traits@D@std@@@std@@@std@@2V0locale@2@A 0000000180053390     node_report.obj
 0003:00003398       ?_Stinit@?1??_Init@?$basic_filebuf@DU?$char_traits@D@std@@@std@@IEAAXPEAU_iobuf@@W4_Initfl@23@@Z@4U_Mbstatet@@A 0000000180053398     node_report.obj
 0003:000033a0       ?id@?$numpunct@D@std@@2V0locale@2@A 00000001800533a0     node_report.obj
 0003:000033a8       ?id@?$codecvt@DDU_Mbstatet@@@std@@2V0locale@2@A 00000001800533a8     node_report.obj
 0003:000033b0       __dyn_tls_init_callback    00000001800533b0     <common>
 0003:000033b8       __scrt_ucrt_dll_is_in_use  00000001800533b8     <common>
 0006:00000000       _tls_start                 0000000180058000     LIBCMT:tlssup.obj
 0006:00000004       _Init_thread_epoch         0000000180058004     LIBCMT:thread_safe_statics.obj
 0006:00000008       _tls_end                   0000000180058008     LIBCMT:tlssup.obj

 entry point at        0001:0000ed9c

 Static symbols

 0000:fffa4000       .debug$S                   0000000180000000     kernel32:KERNEL32.dll
 0000:fffa4000       .debug$S                   0000000180000000     Ws2_32:WS2_32.dll
 0000:fffa4000       .debug$S                   0000000180000000     kernel32:KERNEL32.dll
 0000:fffa4000       .debug$S                   0000000180000000     kernel32:KERNEL32.dll
 0000:fffa4000       .debug$S                   0000000180000000     PsApi:PSAPI.DLL
 0000:fffa4000       .debug$S                   0000000180000000     PsApi:PSAPI.DLL
 0000:fffa4000       .debug$S                   0000000180000000     kernel32:KERNEL32.dll
 0000:fffa4000       .debug$S                   0000000180000000     kernel32:KERNEL32.dll
 0000:fffa4000       .debug$S                   0000000180000000     Netapi32:NETAPI32.dll
 0000:fffa4000       .debug$S                   0000000180000000     kernel32:KERNEL32.dll
 0000:fffa4000       .debug$S                   0000000180000000     kernel32:KERNEL32.dll
 0000:fffa4000       .debug$S                   0000000180000000     kernel32:KERNEL32.dll
 0000:fffa4000       .debug$S                   0000000180000000     kernel32:KERNEL32.dll
 0000:fffa4000       .debug$S                   0000000180000000     kernel32:KERNEL32.dll
 0000:fffa4000       .debug$S                   0000000180000000     kernel32:KERNEL32.dll
 0000:fffa4000       .debug$S                   0000000180000000     node:node.exe
 0000:fffa4000       .debug$S                   0000000180000000     kernel32:KERNEL32.dll
 0000:fffa4000       .debug$S                   0000000180000000     node:node.exe
 0000:fffa4000       .debug$S                   0000000180000000     kernel32:KERNEL32.dll
 0000:fffa4000       .debug$S                   0000000180000000     node:node.exe
 0000:fffa4000       .debug$S                   0000000180000000     kernel32:KERNEL32.dll
 0000:fffa4000       .debug$S                   0000000180000000     kernel32:KERNEL32.dll
 0000:fffa4000       .debug$S                   0000000180000000     kernel32:KERNEL32.dll
 0000:fffa4000       .debug$S                   0000000180000000     node:node.exe
 0000:fffa4000       .debug$S                   0000000180000000     node:node.exe
 0000:fffa4000       .debug$S                   0000000180000000     node:node.exe
 0000:fffa4000       .debug$S                   0000000180000000     Netapi32:NETAPI32.dll
 0000:fffa4000       .debug$S                   0000000180000000     kernel32:KERNEL32.dll
 0000:fffa4000       .debug$S                   0000000180000000     node:node.exe
 0000:fffa4000       .debug$S                   0000000180000000     dbghelp:dbghelp.dll
 0000:fffa4000       .debug$S                   0000000180000000     dbghelp:dbghelp.dll
 0000:fffa4000       .debug$S                   0000000180000000     dbghelp:dbghelp.dll
 0000:fffa4000       .debug$S                   0000000180000000     node:node.exe
 0000:fffa4000       .debug$S                   0000000180000000     node:node.exe
 0000:fffa4000       .debug$S                   0000000180000000     node:node.exe
 0000:fffa4000       .debug$S                   0000000180000000     dbghelp:dbghelp.dll
 0000:fffa4000       .debug$S                   0000000180000000     node:node.exe
 0000:fffa4000       .debug$S                   0000000180000000     node:node.exe
 0000:fffa4000       .debug$S                   0000000180000000     node:node.exe
 0000:fffa4000       .debug$S                   0000000180000000     node:node.exe
 0000:fffa4000       .debug$S                   0000000180000000     node:node.exe
 0000:fffa4000       .debug$S                   0000000180000000     kernel32:KERNEL32.dll
 0000:fffa4000       .debug$S                   0000000180000000     api.exp
 0000:fffa4000       .debug$S                   0000000180000000     node:node.exe
 0000:fffa4000       .debug$S                   0000000180000000     kernel32:KERNEL32.dll
 0000:fffa4000       .debug$S                   0000000180000000     node:node.exe
 0000:fffa4000       .debug$S                   0000000180000000     node:node.exe
 0000:fffa4000       .debug$S                   0000000180000000     kernel32:KERNEL32.dll
 0000:fffa4000       .debug$S                   0000000180000000     node:node.exe
 0000:fffa4000       .debug$S                   0000000180000000     kernel32:KERNEL32.dll
 0000:fffa4000       .debug$S                   0000000180000000     kernel32:KERNEL32.dll
 0000:fffa4000       .debug$S                   0000000180000000     node:node.exe
 0000:fffa4000       .debug$S                   0000000180000000     node:node.exe
 0000:fffa4000       .debug$S                   0000000180000000     node:node.exe
 0000:fffa4000       .debug$S                   0000000180000000     node:node.exe
 0000:fffa4000       .debug$S                   0000000180000000     kernel32:KERNEL32.dll
 0000:fffa4000       .debug$S                   0000000180000000     node:node.exe
 0000:fffa4000       .debug$S                   0000000180000000     kernel32:KERNEL32.dll
 0000:fffa4000       .debug$S                   0000000180000000     node:node.exe
 0000:fffa4000       .debug$S                   0000000180000000     kernel32:KERNEL32.dll
 0000:fffa4000       .debug$S                   0000000180000000     node:node.exe
 0000:fffa4000       .debug$S                   0000000180000000     kernel32:KERNEL32.dll
 0000:fffa4000       .debug$S                   0000000180000000     node:node.exe
 0000:fffa4000       .debug$S                   0000000180000000     kernel32:KERNEL32.dll
 0000:fffa4000       .debug$S                   0000000180000000     kernel32:KERNEL32.dll
 0000:fffa4000       .debug$S                   0000000180000000     kernel32:KERNEL32.dll
 0000:fffa4000       .debug$S                   0000000180000000     node:node.exe
 0000:fffa4000       .debug$S                   0000000180000000     kernel32:KERNEL32.dll
 0000:fffa4000       .debug$S                   0000000180000000     node:node.exe
 0000:fffa4000       .debug$S                   0000000180000000     kernel32:KERNEL32.dll
 0000:fffa4000       .debug$S                   0000000180000000     kernel32:KERNEL32.dll
 0000:fffa4000       .debug$S                   0000000180000000     kernel32:KERNEL32.dll
 0000:fffa4000       .debug$S                   0000000180000000     kernel32:KERNEL32.dll
 0000:fffa4000       .debug$S                   0000000180000000     node:node.exe
 0000:fffa4000       .debug$S                   0000000180000000     node:node.exe
 0000:fffa4000       .debug$S                   0000000180000000     node:node.exe
 0000:fffa4000       .debug$S                   0000000180000000     node:node.exe
 0000:fffa4000       .debug$S                   0000000180000000     kernel32:KERNEL32.dll
 0000:fffa4000       .debug$S                   0000000180000000     node:node.exe
 0000:fffa4000       .debug$S                   0000000180000000     kernel32:KERNEL32.dll
 0000:fffa4000       .debug$S                   0000000180000000     node:node.exe
 0000:fffa4000       .debug$S                   0000000180000000     kernel32:KERNEL32.dll
 0000:fffa4000       .debug$S                   0000000180000000     node:node.exe
 0000:fffa4000       .debug$S                   0000000180000000     kernel32:KERNEL32.dll
 0000:fffa4000       .debug$S                   0000000180000000     node:node.exe
 0000:fffa4000       .debug$S                   0000000180000000     kernel32:KERNEL32.dll
 0000:fffa4000       .debug$S                   0000000180000000     node:node.exe
 0000:fffa4000       .debug$S                   0000000180000000     kernel32:KERNEL32.dll
 0000:fffa4000       .debug$S                   0000000180000000     kernel32:KERNEL32.dll
 0000:fffa4000       .debug$S                   0000000180000000     kernel32:KERNEL32.dll
 0000:fffa4000       .debug$S                   0000000180000000     node:node.exe
 0000:fffa4000       .debug$S                   0000000180000000     kernel32:KERNEL32.dll
 0000:fffa4000       .debug$S                   0000000180000000     kernel32:KERNEL32.dll
 0000:fffa4000       .debug$S                   0000000180000000     kernel32:KERNEL32.dll
 0000:fffa4000       .debug$S                   0000000180000000     kernel32:KERNEL32.dll
 0000:fffa4000       .debug$S                   0000000180000000     kernel32:KERNEL32.dll
 0000:fffa4000       .debug$S                   0000000180000000     kernel32:KERNEL32.dll
 0000:fffa4000       .debug$S                   0000000180000000     kernel32:KERNEL32.dll
 0000:fffa4000       .debug$S                   0000000180000000     node:node.exe
 0000:fffa4000       .debug$S                   0000000180000000     kernel32:KERNEL32.dll
 0000:fffa4000       .debug$S                   0000000180000000     kernel32:KERNEL32.dll
 0000:fffa4000       .debug$S                   0000000180000000     kernel32:KERNEL32.dll
 0000:fffa4000       .debug$S                   0000000180000000     node:node.exe
 0000:fffa4000       .debug$S                   0000000180000000     kernel32:KERNEL32.dll
 0000:fffa4000       .debug$S                   0000000180000000     node:node.exe
 0000:fffa4000       .debug$S                   0000000180000000     kernel32:KERNEL32.dll
 0000:fffa4000       .debug$S                   0000000180000000     node:node.exe
 0000:fffa4000       .debug$S                   0000000180000000     kernel32:KERNEL32.dll
 0000:fffa4000       .debug$S                   0000000180000000     node:node.exe
 0000:fffa4000       .debug$S                   0000000180000000     node:node.exe
 0000:fffa4000       .debug$S                   0000000180000000     node:node.exe
 0000:fffa4000       .debug$S                   0000000180000000     kernel32:KERNEL32.dll
 0000:fffa4000       .debug$S                   0000000180000000     node:node.exe
 0000:fffa4000       .debug$S                   0000000180000000     node:node.exe
 0000:fffa4000       .debug$S                   0000000180000000     node:node.exe
 0000:fffa4000       .debug$S                   0000000180000000     kernel32:KERNEL32.dll
 0000:fffa4000       .debug$S                   0000000180000000     node:node.exe
 0000:fffa4000       .debug$S                   0000000180000000     node:node.exe
 0000:fffa4000       .debug$S                   0000000180000000     node:node.exe
 0000:fffa4000       .debug$S                   0000000180000000     kernel32:KERNEL32.dll
 0000:fffa4000       .debug$S                   0000000180000000     node:node.exe
 0000:fffa4000       .debug$S                   0000000180000000     kernel32:KERNEL32.dll
 0000:fffa4000       .debug$S                   0000000180000000     node:node.exe
 0000:fffa4000       .debug$S                   0000000180000000     kernel32:KERNEL32.dll
 0000:fffa4000       .debug$S                   0000000180000000     node:node.exe
 0000:fffa4000       .debug$S                   0000000180000000     kernel32:KERNEL32.dll
 0000:fffa4000       .debug$S                   0000000180000000     node:node.exe
 0000:fffa4000       .debug$S                   0000000180000000     kernel32:KERNEL32.dll
 0000:fffa4000       .debug$S                   0000000180000000     node:node.exe
 0000:fffa4000       .debug$S                   0000000180000000     kernel32:KERNEL32.dll
 0000:fffa4000       .debug$S                   0000000180000000     node:node.exe
 0000:fffa4000       .debug$S                   0000000180000000     node:node.exe
 0000:fffa4000       .debug$S                   0000000180000000     node:node.exe
 0000:fffa4000       .debug$S                   0000000180000000     kernel32:KERNEL32.dll
 0000:fffa4000       .debug$S                   0000000180000000     node:node.exe
 0000:fffa4000       .debug$S                   0000000180000000     node:node.exe
 0000:fffa4000       .debug$S                   0000000180000000     node:node.exe
 0000:fffa4000       .debug$S                   0000000180000000     node:node.exe
 0000:fffa4000       .debug$S                   0000000180000000     node:node.exe
 0000:fffa4000       .debug$S                   0000000180000000     kernel32:KERNEL32.dll
 0000:fffa4000       .debug$S                   0000000180000000     node:node.exe
 0000:fffa4000       .debug$S                   0000000180000000     kernel32:KERNEL32.dll
 0000:fffa4000       .debug$S                   0000000180000000     kernel32:KERNEL32.dll
 0000:fffa4000       .debug$S                   0000000180000000     kernel32:KERNEL32.dll
 0000:fffa4000       .debug$S                   0000000180000000     node:node.exe
 0000:fffa4000       .debug$S                   0000000180000000     kernel32:KERNEL32.dll
 0000:fffa4000       .debug$S                   0000000180000000     node:node.exe
 0000:fffa4000       .debug$S                   0000000180000000     kernel32:KERNEL32.dll
 0000:fffa4000       .debug$S                   0000000180000000     node:node.exe
 0000:fffa4000       .debug$S                   0000000180000000     node:node.exe
 0000:fffa4000       .debug$S                   0000000180000000     node:node.exe
 0000:fffa4000       .debug$S                   0000000180000000     node:node.exe
 0000:fffa4000       .debug$S                   0000000180000000     node:node.exe
 0000:fffa4000       .debug$S                   0000000180000000     kernel32:KERNEL32.dll
 0000:fffa4000       .debug$S                   0000000180000000     kernel32:KERNEL32.dll
 0000:fffa4000       .debug$S                   0000000180000000     kernel32:KERNEL32.dll
 0000:fffa4000       .debug$S                   0000000180000000     kernel32:KERNEL32.dll
 0000:fffa4000       .debug$S                   0000000180000000     kernel32:KERNEL32.dll
 0000:fffa4000       .debug$S                   0000000180000000     kernel32:KERNEL32.dll
 0000:fffa4000       .debug$S                   0000000180000000     kernel32:KERNEL32.dll
 0000:fffa4000       .debug$S                   0000000180000000     kernel32:KERNEL32.dll
 0000:fffa4000       .debug$S                   0000000180000000     kernel32:KERNEL32.dll
 0000:fffa4000       .debug$S                   0000000180000000     kernel32:KERNEL32.dll
 0000:fffa4000       .debug$S                   0000000180000000     kernel32:KERNEL32.dll
 0000:fffa4000       .debug$S                   0000000180000000     kernel32:KERNEL32.dll
 0000:fffa4000       .debug$S                   0000000180000000     kernel32:KERNEL32.dll
 0000:fffa4000       .debug$S                   0000000180000000     kernel32:KERNEL32.dll
 0000:fffa4000       .debug$S                   0000000180000000     kernel32:KERNEL32.dll
 0000:fffa4000       .debug$S                   0000000180000000     kernel32:KERNEL32.dll
 0000:fffa4000       .debug$S                   0000000180000000     kernel32:KERNEL32.dll
 0000:fffa4000       .debug$S                   0000000180000000     node:node.exe
 0000:fffa4000       .debug$S                   0000000180000000     kernel32:KERNEL32.dll
 0000:fffa4000       .debug$S                   0000000180000000     node:node.exe
 0000:fffa4000       .debug$S                   0000000180000000     kernel32:KERNEL32.dll
 0000:fffa4000       .debug$S                   0000000180000000     kernel32:KERNEL32.dll
 0000:fffa4000       .debug$S                   0000000180000000     kernel32:KERNEL32.dll
 0000:fffa4000       .debug$S                   0000000180000000     node:node.exe
 0000:fffa4000       .debug$S                   0000000180000000     kernel32:KERNEL32.dll
 0000:fffa4000       .debug$S                   0000000180000000     node:node.exe
 0000:fffa4000       .debug$S                   0000000180000000     node:node.exe
 0000:fffa4000       .debug$S                   0000000180000000     kernel32:KERNEL32.dll
 0000:fffa4000       .debug$S                   0000000180000000     kernel32:KERNEL32.dll
 0000:fffa4000       .debug$S                   0000000180000000     node:node.exe
 0000:fffa4000       .debug$S                   0000000180000000     kernel32:KERNEL32.dll
 0000:fffa4000       .debug$S                   0000000180000000     kernel32:KERNEL32.dll
 0000:fffa4000       .debug$S                   0000000180000000     kernel32:KERNEL32.dll
 0000:fffa4000       .debug$S                   0000000180000000     kernel32:KERNEL32.dll
 0000:fffa4000       .debug$S                   0000000180000000     kernel32:KERNEL32.dll
 0000:fffa4000       .debug$S                   0000000180000000     kernel32:KERNEL32.dll
 0000:fffa4000       .debug$S                   0000000180000000     kernel32:KERNEL32.dll
 0000:fffa4000       .debug$S                   0000000180000000     node:node.exe
 0000:fffa4000       .debug$S                   0000000180000000     kernel32:KERNEL32.dll
 0000:fffa4000       .debug$S                   0000000180000000     node:node.exe
 0000:fffa4000       .debug$S                   0000000180000000     node:node.exe
 0000:fffa4000       .debug$S                   0000000180000000     node:node.exe
 0000:fffa4000       .debug$S                   0000000180000000     kernel32:KERNEL32.dll
 0000:fffa4000       .debug$S                   0000000180000000     node:node.exe
 0000:fffa4000       .debug$S                   0000000180000000     node:node.exe
 0000:fffa4000       .debug$S                   0000000180000000     node:node.exe
 0000:fffa4000       .debug$S                   0000000180000000     node:node.exe
 0000:fffa4000       .debug$S                   0000000180000000     node:node.exe
 0000:fffa4000       .debug$S                   0000000180000000     kernel32:KERNEL32.dll
 0000:fffa4000       .debug$S                   0000000180000000     node:node.exe
 0000:fffa4000       .debug$S                   0000000180000000     kernel32:KERNEL32.dll
 0000:fffa4000       .debug$S                   0000000180000000     node:node.exe
 0000:fffa4000       .debug$S                   0000000180000000     kernel32:KERNEL32.dll
 0000:fffa4000       .debug$S                   0000000180000000     node:node.exe
 0000:fffa4000       .debug$S                   0000000180000000     kernel32:KERNEL32.dll
 0000:fffa4000       .debug$S                   0000000180000000     node:node.exe
 0000:fffa4000       .debug$S                   0000000180000000     kernel32:KERNEL32.dll
 0000:fffa4000       .debug$S                   0000000180000000     node:node.exe
 0000:fffa4000       .debug$S                   0000000180000000     kernel32:KERNEL32.dll
 0000:fffa4000       .debug$S                   0000000180000000     node:node.exe
 0000:fffa4000       .debug$S                   0000000180000000     kernel32:KERNEL32.dll
 0001:00000000       ??__Eversion_string@nodereport@@YAXXZ 0000000180001000 f   node_report.obj
 0001:00000060       ??__Ecommandline_string@nodereport@@YAXXZ 0000000180001060 f   node_report.obj
 0001:000000b4       ??__Einitlocks@std@@YAXXZ  00000001800010b4 f   libcpmt:xlock.obj
 0001:000000d4       ??__Ecout@std@@YAXXZ       00000001800010d4 f   libcpmt:cout.obj
 0001:00000104       ??__Efout@std@@YAXXZ       0000000180001104 f   libcpmt:cout.obj
 0001:00000154       ??__Einit_cout@std@@YAXXZ  0000000180001154 f   libcpmt:cout.obj
 0001:00000160       ??__Einitlocks@@YAXXZ      0000000180001160 f   libcpmt:cout.obj
 0001:00000180       ??__E_Fac_tidy_reg@std@@YAXXZ 0000000180001180 f   libcpmt:locale0.obj
 0001:0000018c       ??__Eclassic_locale@std@@YAXXZ 000000018000118c f   libcpmt:locale0.obj
 0001:00000198       ??__Ecerr@std@@YAXXZ       0000000180001198 f   libcpmt:cerr.obj
 0001:000001c8       ??__Eferr@std@@YAXXZ       00000001800011c8 f   libcpmt:cerr.obj
 0001:00000218       ??__Einit_cerr@std@@YAXXZ  0000000180001218 f   libcpmt:cerr.obj
 0001:00000250       ??__Einitlocks@@YAXXZ      0000000180001250 f   libcpmt:cerr.obj
 0001:00000270       ??__Einit_atexit@@YAXXZ    0000000180001270 f   libcpmt:iosptrs.obj
 0001:0000027c       ??__Einitlocks@std@@YAXXZ  000000018000127c f   libcpmt:iosptrs.obj
 0001:000018e0       ?WriteNodeReport@nodereport@@YAXPEAVIsolate@v8@@W4DumpEvent@1@PEBD2PEADAEAV?$basic_ostream@DU?$char_traits@D@std@@@std@@V?$MaybeLocal@VValue@v8@@@3@PEAU_SYSTEMTIME@@@Z 00000001800028e0 f   node_report.obj
 0001:00001ed0       ?PrintVersionInformation@nodereport@@YAXAEAV?$basic_ostream@DU?$char_traits@D@std@@@std@@@Z 0000000180002ed0 f   node_report.obj
 0001:00002260       ?PrintJavaScriptErrorStack@nodereport@@YAXAEAV?$basic_ostream@DU?$char_traits@D@std@@@std@@PEAVIsolate@v8@@V?$MaybeLocal@VValue@v8@@@5@@Z 0000000180003260 f   node_report.obj
 0001:000023f0       ?PrintStackFromStackTrace@nodereport@@YAXAEAV?$basic_ostream@DU?$char_traits@D@std@@@std@@PEAVIsolate@v8@@W4DumpEvent@1@@Z 00000001800033f0 f   node_report.obj
 0001:000025b0       ?PrintStackFrame@nodereport@@YAXAEAV?$basic_ostream@DU?$char_traits@D@std@@@std@@PEAVIsolate@v8@@V?$Local@VStackFrame@v8@@@5@HPEAX@Z 00000001800035b0 f   node_report.obj
 0001:000027f0       ?PrintNativeStack@nodereport@@YAXAEAV?$basic_ostream@DU?$char_traits@D@std@@@std@@@Z 00000001800037f0 f   node_report.obj
 0001:00002a30       ?PrintGCStatistics@nodereport@@YAXAEAV?$basic_ostream@DU?$char_traits@D@std@@@std@@PEAVIsolate@v8@@@Z 0000000180003a30 f   node_report.obj
 0001:00002c50       ?PrintSystemInformation@nodereport@@YAXAEAV?$basic_ostream@DU?$char_traits@D@std@@@std@@PEAVIsolate@v8@@@Z 0000000180003c50 f   node_report.obj
 0001:00002d20       ?PrintLoadedLibraries@nodereport@@YAXAEAV?$basic_ostream@DU?$char_traits@D@std@@@std@@PEAVIsolate@v8@@@Z 0000000180003d20 f   node_report.obj
 0001:000042c0       no_op_initialize           00000001800052c0 f i libucrt:wsetlocale.obj
 0001:00004740       uninitialize_c             0000000180005740 f i libucrt:initialization.obj
 0001:00004740       initialize_environment     0000000180005740 f i libucrt:initialization.obj
 0001:00004740       initialize_global_state_isolation 0000000180005740 f i libucrt:initialization.obj
 0001:00004740       report_memory_leaks        0000000180005740 f i libucrt:initialization.obj
 0001:00004740       uninitialize_global_state_isolation 0000000180005740 f i libucrt:initialization.obj
 0001:00008b60       ?FunctionCallbackWrapper@imp@Nan@@YAXAEBV?$FunctionCallbackInfo@VValue@v8@@@v8@@@Z 0000000180009b60 f   module.obj
 0001:000095e0       ?OnFatalError@nodereport@@YAXPEBD0@Z 000000018000a5e0 f   module.obj
 0001:00009770       ?PrintStackFromStackTrace@nodereport@@YAXPEAVIsolate@v8@@PEAU_iobuf@@@Z 000000018000a770 f   module.obj
 0001:00009dd0       _register_nodereport       000000018000add0 f   module.obj
 0001:0000bf98       $LN522                     000000018000cf98     utilities.obj
 0001:0000c180       $LN17                      000000018000d180     utilities.obj
 0001:0000c1ac       $LN16                      000000018000d1ac     utilities.obj
 0001:0000c5e0       ?load_exe_hook@@YAP6A_JXZIPEAUDelayLoadInfo@@@Z 000000018000d5e0 f   win_delay_load_hook.obj
 0001:0000d0a4       tidy_global                000000018000e0a4 f   libcpmt:locale0.obj
 0001:0000d4b0       ?swfun@std@@YAXAEAVios_base@1@_J@Z 000000018000e4b0 f   libcpmt:iomanip.obj
 0001:0000dbe4       ?initialize_pointers@@YAHXZ 000000018000ebe4 f   libcpmt:winapisupp.obj
 0001:0000e2f0       $$000000                   000000018000f2f0     LIBCMT:_amdsecgs_.obj
 0001:0000e324       ?__scrt_initialize_thread_safe_statics@@YAHXZ 000000018000f324 f   LIBCMT:thread_safe_statics.obj
 0001:0000e444       ?__scrt_uninitialize_thread_safe_statics@@YAXXZ 000000018000f444 f   LIBCMT:thread_safe_statics.obj
 0001:0000ea50       ?dllmain_crt_dispatch@@YAHQEAUHINSTANCE__@@KQEAX@Z 000000018000fa50 f   LIBCMT:dll_dllmain.obj
 0001:0000eaa0       ?dllmain_crt_process_attach@@YAHQEAUHINSTANCE__@@QEAX@Z 000000018000faa0 f   LIBCMT:dll_dllmain.obj
 0001:0000ebcc       ?dllmain_crt_process_detach@@YAH_N@Z 000000018000fbcc f   LIBCMT:dll_dllmain.obj
 0001:0000ec50       ?dllmain_dispatch@@YAHQEAUHINSTANCE__@@KQEAX@Z 000000018000fc50 f   LIBCMT:dll_dllmain.obj
 0001:0000ed48       ?dllmain_raw@@YAHQEAUHINSTANCE__@@KQEAX@Z 000000018000fd48 f   LIBCMT:dll_dllmain.obj
 0001:0000ee90       $$000000                   000000018000fe90     LIBCMT:_chkstk_.obj
 0001:0000f0ac       capture_current_context    00000001800100ac f   LIBCMT:gs_report.obj
 0001:0000f11c       capture_previous_context   000000018001011c f   LIBCMT:gs_report.obj
 0001:0000f6e0       $$000000                   00000001800106e0     libvcruntime:memcpy.obj
 0001:0000f787       MoveSmall                  0000000180010787     libvcruntime:memcpy.obj
 0001:0000fcc0       ?CatchIt@@YAXPEAUEHExceptionRecord@@PEA_KPEAU_CONTEXT@@PEAU_xDISPATCHER_CONTEXT@@PEBU_s_FuncInfo@@PEBU_s_HandlerType@@PEBU_s_CatchableType@@PEBU_s_TryBlockMapEntry@@H1EE@Z 0000000180010cc0 f   libvcruntime:frame.obj
 0001:0000fd84       ?ExFilterRethrow@@YAHPEAU_EXCEPTION_POINTERS@@PEAUEHExceptionRecord@@PEAH@Z 0000000180010d84 f   libvcruntime:frame.obj
 0001:0000fe0c       ?FindHandler@@YAXPEAUEHExceptionRecord@@PEA_KPEAU_CONTEXT@@PEAU_xDISPATCHER_CONTEXT@@PEBU_s_FuncInfo@@EH1@Z 0000000180010e0c f   libvcruntime:frame.obj
 0001:000102dc       ?FindHandlerForForeignException@@YAXPEAUEHExceptionRecord@@PEA_KPEAU_CONTEXT@@PEAU_xDISPATCHER_CONTEXT@@PEBU_s_FuncInfo@@HH1@Z 00000001800112dc f   libvcruntime:frame.obj
 0001:00010548       ?IsInExceptionSpec@@YAEPEAUEHExceptionRecord@@PEBU_s_ESTypeList@@@Z 0000000180011548 f   libvcruntime:frame.obj
 0001:000118c0       $$000000                   00000001800128c0     libvcruntime:memset.obj
 0001:000119ac       MsetTab                    00000001800129ac     libvcruntime:memset.obj
 0001:00011a70       $$000000                   0000000180012a70     libvcruntime:memcmp.obj
 0001:00011b48       ?try_get_function@@YAPEAXW4function_id@?A0x679b24ab@@QEBDQEBW4module_id@2@2@Z 0000000180012b48 f   libvcruntime:winapi_downlevel.obj
 0001:00012530       $$000000                   0000000180013530     libvcruntime:handlers.obj
 0001:00012580       $$000000                   0000000180013580     libvcruntime:_jmpuwind_.obj
 0001:00012b80       common_flush_all           0000000180013b80 f   libucrt:fflush.obj
 0001:00012eb8       ??$common_vsprintf@Vformat_validation_base@__crt_stdio_output@@D@@YAH_KQEAD0QEBDQEAU__crt_locale_pointers@@1@Z 0000000180013eb8 f   libucrt:output.obj
 0001:00013624       ??R<lambda_0a64b6a4deda75c01876f29c44fc5eb3>@@QEBAHXZ 0000000180014624 f   libucrt:output.obj
 0001:00013714       ??R<lambda_dd75445284c072d0bd3768540cc698fa>@@QEBAHXZ 0000000180014714 f   libucrt:output.obj
 0001:000172f0       $$000000                   00000001800182f0     libucrt:strncmp.obj
 0001:000173c0       ??R<lambda_532e024f4337e6fc7ad266c2bef9f4ed>@@QEBA_KXZ 00000001800183c0 f   libucrt:fwrite.obj
 0001:000177a8       ??R<lambda_b721fa326cdb32351d23dfa67958c160>@@QEBAHXZ 00000001800187a8 f   libucrt:setvbuf.obj
 0001:00017ba8       ?_wcstombs_l_helper@@YA_KPEADPEB_W_KPEAU__crt_locale_pointers@@@Z 0000000180018ba8 f   libucrt:wcstombs.obj
 0001:00018020       ?common_fseek@@YAHV__crt_stdio_stream@@_JH@Z 0000000180019020 f   libucrt:fseek.obj
 0001:0001808c       ?common_fseek_binary_mode_read_only_fast_track_nolock@@YA_NV__crt_stdio_stream@@_JH@Z 000000018001908c f   libucrt:fseek.obj
 0001:0001819c       ?common_fseek_nolock@@YAHV__crt_stdio_stream@@_JH@Z 000000018001919c f   libucrt:fseek.obj
 0001:000182a4       ??$common_assert_to_message_box@_W@@YAXQEB_W0IQEAX@Z 00000001800192a4 f   libucrt:assert.obj
 0001:00018368       ??$common_assert_to_message_box_build_string@_W@@YAXQEA_W_KQEB_W2IQEAX@Z 0000000180019368 f   libucrt:assert.obj
 0001:00018b3c       ??$common_assert_to_stderr@_W@@YAXQEB_W0I@Z 0000000180019b3c f   libucrt:assert.obj
 0001:00018cac       ?get_assert_format@@YAPEB_W_W@Z 0000000180019cac f   libucrt:assert.obj
 0001:00018dd8       ?atexit_exception_filter@@YAHK@Z 0000000180019dd8 f   libucrt:exit.obj
 0001:00018de4       ?common_exit@@YAXHW4_crt_exit_cleanup_mode@@W4_crt_exit_return_mode@@@Z 0000000180019de4 f   libucrt:exit.obj
 0001:00018f50       ?exit_or_terminate_process@@YAXI@Z 0000000180019f50 f   libucrt:exit.obj
 0001:00018f9c       ?try_cor_exit_process@@YAXI@Z 0000000180019f9c f   libucrt:exit.obj
 0001:0001ae88       ??R<lambda_d101c2b4ad3778eb23b701cc8964de65>@@QEBA_NXZ 000000018001be88 f   libucrt:input.obj
 0001:0001ae88       ??R<lambda_5ffa2d601484df6a17cc9a350962665c>@@QEBA_NXZ 000000018001be88 f   libucrt:input.obj
 0001:0001ae88       ??R<lambda_5b936a367a2157d8f8fe79b470b291e7>@@QEBA_NXZ 000000018001be88 f   libucrt:input.obj
 0001:0001e6e8       ??$common_getenv@D@@YAPEADQEBD@Z 000000018001f6e8 f   libucrt:getenv.obj
 0001:0001e754       ??$common_getenv_nolock@D@@YAPEADQEBD@Z 000000018001f754 f   libucrt:getenv.obj
 0001:0001e7e4       ??$common_timespec_get@U_timespec64@@@@YAHQEAU_timespec64@@H@Z 000000018001f7e4 f   libucrt:time.obj
 0001:0001eacc       call_wsetlocale            000000018001facc f   libucrt:setlocale.obj
 0001:0001ed80       ??$common_fsopen@D@@YAPEAU_iobuf@@QEBD0H@Z 000000018001fd80 f   libucrt:fopen.obj
 0001:0001f7bc       ?x_ismbbtype_l@@YAHPEAU__crt_locale_pointers@@IHH@Z 00000001800207bc f   libucrt:ismbbyte.obj
 0001:0001f930       $$000000                   0000000180020930     libucrt:pow.obj
 0001:00020fd0       $$000000                   0000000180021fd0     libucrt:powf.obj
 0001:00021ef0       ?internal_isupper_l@@YA_NHQEAU__crt_locale_pointers@@@Z 0000000180022ef0 f   libucrt:tolower_toupper.obj
 0001:00022680       ??$parse_command_line@D@@YAXPEADPEAPEAD0PEA_K2@Z 0000000180023680 f   libucrt:argv_parsing.obj
 0001:00022a18       ??$common_get_or_create_environment_nolock@D@@YAPEAPEADXZ 0000000180023a18 f   libucrt:environment_initialization.obj
 0001:00022a60       ??$common_initialize_environment_nolock@D@@YAHXZ 0000000180023a60 f   libucrt:environment_initialization.obj
 0001:00022acc       ??$create_environment@D@@YAQEAPEADQEAD@Z 0000000180023acc f   libucrt:environment_initialization.obj
 0001:00022bc8       ??$free_environment@_W@@YAXQEAPEA_W@Z 0000000180023bc8 f   libucrt:environment_initialization.obj
 0001:00022bc8       ??$free_environment@D@@YAXQEAPEAD@Z 0000000180023bc8 f   libucrt:environment_initialization.obj
 0001:00022c0c       ??$initialize_environment_by_cloning_nolock@D@@YAHXZ 0000000180023c0c f   libucrt:environment_initialization.obj
 0001:00022ce0       ??$uninitialize_environment_internal@D@@YAXAEAPEAPEAD@Z 0000000180023ce0 f   libucrt:environment_initialization.obj
 0001:00022cfc       ??$uninitialize_environment_internal@_W@@YAXAEAPEAPEA_W@Z 0000000180023cfc f   libucrt:environment_initialization.obj
 0001:00022f3c       ??R<lambda_4e60a939b0d047cfe11ddc22648dfba9>@@QEBAHXZ 0000000180023f3c f   libucrt:onexit.obj
 0001:000231ec       initialize_global_variables 00000001800241ec f   libucrt:initialization.obj
 0001:00023200       initialize_c               0000000180024200 f   libucrt:initialization.obj
 0001:00023224       uninitialize_environment   0000000180024224 f   libucrt:initialization.obj
 0001:00023234       initialize_pointers        0000000180024234 f   libucrt:initialization.obj
 0001:00023288       uninitialize_vcruntime     0000000180024288 f   libucrt:initialization.obj
 0001:00023290       uninitialize_allocated_memory 0000000180024290 f   libucrt:initialization.obj
 0001:00024278       ??$write_buffer_nolock@D@@YA_NDV__crt_stdio_stream@@@Z 0000000180025278 f   libucrt:_flsbuf.obj
 0001:0002437c       ??$write_buffer_nolock@_W@@YA_N_WV__crt_stdio_stream@@@Z 000000018002537c f   libucrt:_flsbuf.obj
 0001:0002465c       ?initialize_inherited_file_handles_nolock@@YAXXZ 000000018002565c f   libucrt:ioinit.obj
 0001:00024748       ?initialize_stdio_handles_nolock@@YAXXZ 0000000180025748 f   libucrt:ioinit.obj
 0001:000249e8       ?construct_ptd_array@@YAXQEAU__acrt_ptd@@@Z 00000001800259e8 f   libucrt:per_thread_data.obj
 0001:00024ab8       ?destroy_fls@@YAXPEAX@Z    0000000180025ab8 f   libucrt:per_thread_data.obj
 0001:00024ad8       ?destroy_ptd_array@@YAXQEAU__acrt_ptd@@@Z 0000000180025ad8 f   libucrt:per_thread_data.obj
 0001:00024bd0       ?replace_current_thread_locale_nolock@@YAXQEAU__acrt_ptd@@QEAU__crt_locale_data@@@Z 0000000180025bd0 f   libucrt:per_thread_data.obj
 0001:00024f30       ?write_double_translated_ansi_nolock@@YA?AUwrite_result@?A0x9c548279@@HQEBDI@Z 0000000180025f30 f   libucrt:write.obj
 0001:00025138       ?write_text_ansi_nolock@@YA?AUwrite_result@?A0x9c548279@@HQEBDI@Z 0000000180026138 f   libucrt:write.obj
 0001:00025240       ?write_text_utf16le_nolock@@YA?AUwrite_result@?A0x9c548279@@HQEBDI@Z 0000000180026240 f   libucrt:write.obj
 0001:0002535c       ?write_text_utf8_nolock@@YA?AUwrite_result@?A0x9c548279@@HQEBDI@Z 000000018002635c f   libucrt:write.obj
 0001:00025b14       ?find_or_allocate_unused_stream_nolock@@YA?AV__crt_stdio_stream@@XZ 0000000180026b14 f   libucrt:stream.obj
 0001:00026088       ?fp_format_a@@YAHQEBNPEAD_KQEAD2H_NIQEAU__crt_locale_pointers@@@Z 0000000180027088 f   libucrt:cvt.obj
 0001:000263e8       ?fp_format_e@@YAHQEBNQEAD_K12H_NIQEAU__crt_locale_pointers@@@Z 00000001800273e8 f   libucrt:cvt.obj
 0001:000264b8       ?fp_format_e_internal@@YAHQEAD_KH_NIQEAU_strflt@@2QEAU__crt_locale_pointers@@@Z 00000001800274b8 f   libucrt:cvt.obj
 0001:00026694       ?fp_format_f_internal@@YAHQEAD_KHQEAU_strflt@@_NQEAU__crt_locale_pointers@@@Z 0000000180027694 f   libucrt:cvt.obj
 0001:000267dc       ?fp_format_g@@YAHQEBNQEAD_K12H_NIQEAU__crt_locale_pointers@@@Z 00000001800277dc f   libucrt:cvt.obj
 0001:00026914       ?fp_format_nan_or_infinity@@YAHW4__acrt_fp_class@@_NPEAD_K1@Z 0000000180027914 f   libucrt:cvt.obj
 0001:000270a4       ??R<lambda_2af78c5f5901b1372d98f9ab3177dfa6>@@QEBAXXZ 00000001800280a4 f   libucrt:wsetlocale.obj
 0001:00027468       _copytlocinfo_nolock       0000000180028468 f   libucrt:wsetlocale.obj
 0001:00027a28       _wsetlocale_get_all        0000000180028a28 f   libucrt:wsetlocale.obj
 0001:00027c10       _wsetlocale_nolock         0000000180028c10 f   libucrt:wsetlocale.obj
 0001:00027e98       _wsetlocale_set_cat        0000000180028e98 f   libucrt:wsetlocale.obj
 0001:000281d8       ??$common_refill_and_read_nolock@D@@YAHV__crt_stdio_stream@@@Z 00000001800291d8 f   libucrt:_filbuf.obj
 0001:00028388       ?<helper_func_cdecl>@<lambda_e2bb8337c48846e80c921ea5ddadc92d>@@CAHPEA_W@Z 0000000180029388 f   libucrt:winapi_thunks.obj
 0001:00028464       ?try_get_function@@YAPEAXW4function_id@?A0x63058377@@QEBDQEBW4module_id@2@2@Z 0000000180029464 f   libucrt:winapi_thunks.obj
 0001:000291b0       ??$common_ftell@_J@@YA_JV__crt_stdio_stream@@@Z 000000018002a1b0 f   libucrt:ftell.obj
 0001:00029204       ??$common_ftell_nolock@_J@@YA_JV__crt_stdio_stream@@@Z 000000018002a204 f   libucrt:ftell.obj
 0001:0002937c       ?common_ftell_read_mode_nolock@@YA_JV__crt_stdio_stream@@_J1@Z 000000018002a37c f   libucrt:ftell.obj
 0001:000294f4       ?common_ftell_translated_utf8_nolock@@YA_JV__crt_stdio_stream@@_J@Z 000000018002a4f4 f   libucrt:ftell.obj
 0001:0002a170       ??$common_lseek@_J@@YA_JH_JH@Z 000000018002b170 f   libucrt:lseek.obj
 0001:0002a260       ??$common_lseek_nolock@_J@@YA_JH_JH@Z 000000018002b260 f   libucrt:lseek.obj
 0001:0002a314       ??$common_xtox@K_W@@YAHKQEA_W_KI_N@Z 000000018002b314 f   libucrt:xtoa.obj
 0001:0002a3c0       ??$common_xtox_s@K_W@@YAHKQEA_W_KI_N@Z 000000018002b3c0 f   libucrt:xtoa.obj
 0001:0002a61c       ??$message_box_wait_thread@_W@@YAKQEAX@Z 000000018002b61c f   libucrt:crtmbox.obj
 0001:0002aa0c       ?_mbstowcs_l_helper@@YA_KPEA_WPEBD_KPEAU__crt_locale_pointers@@@Z 000000018002ba0c f   libucrt:mbstowcs.obj
 0001:0002b0a0       ?InternalGetLocaleInfoA@@YAHQEAU__crt_locale_pointers@@QEB_WKQEADH@Z 000000018002c0a0 f   libucrt:getlocaleinfoa.obj
 0001:0002b5bc       ?__acrt_LCMapStringA_stat@@YAHPEAU__crt_locale_pointers@@PEB_WKPEBDHPEADHHH@Z 000000018002c5bc f   libucrt:lcmapstringa.obj
 0001:0002beb8       ?<helper_func_cdecl>@<lambda_2feae5270eb4d0d5532525f423405775>@@CAHPEBX0@Z 000000018002ceb8 f   libucrt:argv_wildcards.obj
 0001:0002becc       ??$common_expand_argv_wildcards@D@@YAHQEAPEADQEAPEAPEAD@Z 000000018002cecc f   libucrt:argv_wildcards.obj
 0001:0002c0d8       ??$copy_and_add_argument_to_buffer@D@@YAHQEBD0_KAEAV?$argument_list@D@?A0xca0879c4@@@Z 000000018002d0d8 f   libucrt:argv_wildcards.obj
 0001:0002c1e8       ??$expand_argument_wildcards@D@@YAHQEAD0AEAV?$argument_list@D@?A0xca0879c4@@@Z 000000018002d1e8 f   libucrt:argv_wildcards.obj
 0001:0002c49c       ??R<lambda_ad1ced32f4ac17aa236e5ef05d6b3b7c>@@QEBAXXZ 000000018002d49c f   libucrt:mbctype.obj
 0001:0002c6b4       ?getSystemCP@@YAHH@Z       000000018002d6b4 f   libucrt:mbctype.obj
 0001:0002c734       ?setSBCS@@YAXPEAU__crt_multibyte_data@@@Z 000000018002d734 f   libucrt:mbctype.obj
 0001:0002c7c4       ?setSBUpLow@@YAXPEAU__crt_multibyte_data@@@Z 000000018002d7c4 f   libucrt:mbctype.obj
 0001:0002c9a8       ?setmbcp_internal@@YAHH_N@Z 000000018002d9a8 f   libucrt:mbctype.obj
 0001:0002d01c       ??$common_set_variable_in_environment_nolock@D@@YAHQEADH@Z 000000018002e01c f   libucrt:setenv.obj
 0001:0002d30c       ??$copy_environment@D@@YAPEAPEADQEAPEAD@Z 000000018002e30c f   libucrt:setenv.obj
 0001:0002f3f4       memcpy_s                   00000001800303f4 f   libucrt:cfout.obj
 0001:0002f3f4       memcpy_s                   00000001800303f4 f   libucrt:input.obj
 0001:0002fe0c       ?free_crt_array_internal@@YAXQEAPEBX_K@Z 0000000180030e0c f   libucrt:inittime.obj
 0001:0002fe64       ?initialize_lc_time@@YA_NQEAU__crt_lc_time_data@@QEAU__crt_locale_data@@@Z 0000000180030e64 f   libucrt:inittime.obj
 0001:000304d4       GetLocaleNameFromDefault   00000001800314d4 f   libucrt:get_qualified_locale.obj
 0001:0003057c       GetLocaleNameFromLangCountry 000000018003157c f   libucrt:get_qualified_locale.obj
 0001:0003064c       GetLocaleNameFromLanguage  000000018003164c f   libucrt:get_qualified_locale.obj
 0001:000306e8       LangCountryEnumProcEx      00000001800316e8 f   libucrt:get_qualified_locale.obj
 0001:00030a9c       LanguageEnumProcEx         0000000180031a9c f   libucrt:get_qualified_locale.obj
 0001:00030b88       ProcessCodePage            0000000180031b88 f   libucrt:get_qualified_locale.obj
 0001:00030c3c       TestDefaultCountry         0000000180031c3c f   libucrt:get_qualified_locale.obj
 0001:00030ca4       TranslateName              0000000180031ca4 f   libucrt:get_qualified_locale.obj
 0001:00030f60       CountryEnumProc            0000000180031f60 f   libucrt:getqloc_downlevel.obj
 0001:0003104c       GetLcidFromLangCountry     000000018003204c f   libucrt:getqloc_downlevel.obj
 0001:0003111c       GetLcidFromLanguage        000000018003211c f   libucrt:getqloc_downlevel.obj
 0001:000311b4       LangCountryEnumProc        00000001800321b4 f   libucrt:getqloc_downlevel.obj
 0001:000313f8       LanguageEnumProc           00000001800323f8 f   libucrt:getqloc_downlevel.obj
 0001:000314f4       LcidFromHexString          00000001800324f4 f   libucrt:getqloc_downlevel.obj
 0001:00031544       ProcessCodePage            0000000180032544 f   libucrt:getqloc_downlevel.obj
 0001:000315f4       TestDefaultLanguage        00000001800325f4 f   libucrt:getqloc_downlevel.obj
 0001:000316a0       TranslateName              00000001800326a0 f   libucrt:getqloc_downlevel.obj
 0001:000319bc       ??$translate_text_mode_nolock@_W@@YAHHQEA_W_K@Z 00000001800329bc f   libucrt:read.obj
 0001:00031bec       ?translate_ansi_or_utf8_nolock@@YAHHQEAD_KQEA_W1@Z 0000000180032bec f   libucrt:read.obj
 0001:0003246c       ?GetTableIndexFromLocaleName@@YAHPEB_W@Z 000000018003346c f   libucrt:lcidtoname_downlevel.obj
 0001:00032650       $$000000                   0000000180033650     libucrt:fpsr.obj
 0001:000328ac       ?InternalCompareStringA@@YAHPEAU__crt_locale_pointers@@PEB_WKPEBDH2HH@Z 00000001800338ac f   libucrt:comparestringa.obj
 0001:00032e80       ??$common_sopen_dispatch@D@@YAHQEBDHHHQEAHH@Z 0000000180033e80 f   libucrt:open.obj
 0001:00032f60       ?configure_text_mode@@YAHHUfile_options@?A0x656cf9f4@@HAEAW4__crt_lowio_text_mode@@@Z 0000000180033f60 f   libucrt:open.obj
 0001:000331f4       ?decode_options@@YA?AUfile_options@?A0x656cf9f4@@HHH@Z 00000001800341f4 f   libucrt:open.obj
 0001:00033400       ?truncate_ctrl_z_if_present@@YAHH@Z 0000000180034400 f   libucrt:open.obj
 0001:00033a4c       _call_matherr              0000000180034a4c f   libucrt:libm_error.obj
 0001:00033ab4       _exception_enabled         0000000180034ab4 f   libucrt:libm_error.obj
 0001:00033ec0       ?shortsort@@YAXPEAD0_KP6AHPEBX2@Z@Z 0000000180034ec0 f   libucrt:qsort.obj
 0001:00034404       ?initialize_multibyte@@YAHXZ 0000000180035404 f   libucrt:multibyte_initializer.obj
 0001:00034640       $$000000                   0000000180035640     libucrt:log10.obj
 0001:00034ccc       common_control87           0000000180035ccc f   libucrt:ieee.obj
 0001:00035390       _log_special_common        0000000180036390 f   libucrt:log_special.obj
 0001:00035e20       $$000000                   0000000180036e20     LIBCMT:_guard_dispatch_.obj
 0001:00035e40       ?dtor$0@?0??_Locimp_dtor@_Locimp@locale@std@@CAXPEAV123@@Z@4HA 0000000180036e40 f   libcpmt:locale0.obj
 0001:00035e40       ?dtor$0@?0??_Init@locale@std@@CAPEAV_Locimp@12@_N@Z@4HA 0000000180036e40 f   libcpmt:locale0.obj
 0001:00035e4c       __scrt_is_nonwritable_in_current_image$filt$0 0000000180036e4c f   LIBCMT:utility.obj
 0001:00035e64       ?fin$0@?0??dllmain_crt_process_attach@@YAHQEAUHINSTANCE__@@QEAX@Z@4HA 0000000180036e64 f   LIBCMT:dll_dllmain.obj
 0001:00035e7b       ?fin$0@?0??dllmain_crt_process_detach@@YAH_N@Z@4HA 0000000180036e7b f   LIBCMT:dll_dllmain.obj
 0001:00035e97       ?filt$0@?0??dllmain_dispatch@@YAHQEAUHINSTANCE__@@KQEAX@Z@4HA 0000000180036e97 f   LIBCMT:dll_dllmain.obj
 0001:00035ecd       __CxxCallCatchBlock$filt$0 0000000180036ecd f   libvcruntime:frame.obj
 0001:00035ef2       __CxxCallCatchBlock$fin$1  0000000180036ef2 f   libvcruntime:frame.obj
 0001:00035f6a       __DestructExceptionObject$filt$0 0000000180036f6a f   libvcruntime:frame.obj
 0001:00035f82       __FrameUnwindToState$filt$0 0000000180036f82 f   libvcruntime:frame.obj
 0001:00035f98       __FrameUnwindToState$fin$1 0000000180036f98 f   libvcruntime:frame.obj
 0001:00035fbb       _CallSETranslator$filt$0   0000000180036fbb f   libvcruntime:trnsctrl.obj
 0001:00036007       fputc$fin$0                0000000180037007 f   libucrt:fputc.obj
 0001:00036021       common_flush_all$fin$0     0000000180037021 f   libucrt:fflush.obj
 0001:0003603b       common_flush_all$fin$1     000000018003703b f   libucrt:fflush.obj
 0001:00036054       fflush$fin$0               0000000180037054 f   libucrt:fflush.obj
 0001:00036054       fclose$fin$0               0000000180037054 f   libucrt:fclose.obj
 0001:0003606c       ?fin$0@?0???$?RV<lambda_7b91131dde12e1c3dfc74ff76b3f2eac>@@AEAV<lambda_dd75445284c072d0bd3768540cc698fa>@@V<lambda_16bc4ecb55b4718497c16bceaea2ceaf>@@@?$__crt_seh_guarded_call@H@@QEAAH$$QEAV<lambda_7b91131dde12e1c3dfc74ff76b3f2eac>@@AEAV<lambda_dd75445284c072d0bd3768540cc698fa>@@$$QEAV<lambda_16bc4ecb55b4718497c16bceaea2ceaf>@@@Z@4HA 000000018003706c f   libucrt:output.obj
 0001:0003606c       ?fin$0@?0???$?RV<lambda_5d4c3fee44080f75d5d9762853974fe0>@@AEAV<lambda_532e024f4337e6fc7ad266c2bef9f4ed>@@V<lambda_c87bdc10097eb2402edb8ba9bdf0697b>@@@?$__crt_seh_guarded_call@_K@@QEAA_K$$QEAV<lambda_5d4c3fee44080f75d5d9762853974fe0>@@AEAV<lambda_532e024f4337e6fc7ad266c2bef9f4ed>@@$$QEAV<lambda_c87bdc10097eb2402edb8ba9bdf0697b>@@@Z@4HA 000000018003706c f   libucrt:fwrite.obj
 0001:0003606c       ?fin$0@?0???$?RV<lambda_7a5ef57ff966f610505f1d28a3d40618>@@AEAV<lambda_b721fa326cdb32351d23dfa67958c160>@@V<lambda_5e0fb27672408a07956fe59e48ccb2aa>@@@?$__crt_seh_guarded_call@H@@QEAAH$$QEAV<lambda_7a5ef57ff966f610505f1d28a3d40618>@@AEAV<lambda_b721fa326cdb32351d23dfa67958c160>@@$$QEAV<lambda_5e0fb27672408a07956fe59e48ccb2aa>@@@Z@4HA 000000018003706c f   libucrt:setvbuf.obj
 0001:0003606c       ?fin$0@?0???$?RV<lambda_aa279a7bcb127014629d5b1d62c7325d>@@AEAV<lambda_0a64b6a4deda75c01876f29c44fc5eb3>@@V<lambda_3323e69fbefe9d1a11713e670d47cdfa>@@@?$__crt_seh_guarded_call@H@@QEAAH$$QEAV<lambda_aa279a7bcb127014629d5b1d62c7325d>@@AEAV<lambda_0a64b6a4deda75c01876f29c44fc5eb3>@@$$QEAV<lambda_3323e69fbefe9d1a11713e670d47cdfa>@@@Z@4HA 000000018003706c f   libucrt:output.obj
 0001:00036087       fgetc$fin$0                0000000180037087 f   libucrt:fgetc.obj
 0001:000360a1       ungetc$fin$0               00000001800370a1 f   libucrt:ungetc.obj
 0001:000360b9       ?filt$0@?0??common_exit@@YAXHW4_crt_exit_cleanup_mode@@W4_crt_exit_return_mode@@@Z@4HA 00000001800370b9 f   libucrt:exit.obj
 0001:000360d4       ?fin$1@?0??common_exit@@YAXHW4_crt_exit_cleanup_mode@@W4_crt_exit_return_mode@@@Z@4HA 00000001800370d4 f   libucrt:exit.obj
 0001:000360ed       raise$fin$0                00000001800370ed f   libucrt:signal.obj
 0001:00036111       ?fin$0@?0???$common_getenv@D@@YAPEADQEBD@Z@4HA 0000000180037111 f   libucrt:getenv.obj
 0001:0003612a       setlocale$fin$0            000000018003712a f   libucrt:setlocale.obj
 0001:00036145       ?fin$0@?0???$common_fsopen@D@@YAPEAU_iobuf@@QEBD0H@Z@4HA 0000000180037145 f   libucrt:fopen.obj
 0001:00036170       _query_new_handler$fin$0   0000000180037170 f   libucrt:new_handler.obj
 0001:00036186       ?fin$0@?0???$?RV<lambda_e24bbb7b643b32fcea6fa61b31d4c984>@@AEAV<lambda_275893d493268fdec8709772e3fcec0e>@@V<lambda_9d71df4d7cf3f480f8d633942495c3b0>@@@?$__crt_seh_guarded_call@H@@QEAAH$$QEAV<lambda_e24bbb7b643b32fcea6fa61b31d4c984>@@AEAV<lambda_275893d493268fdec8709772e3fcec0e>@@$$QEAV<lambda_9d71df4d7cf3f480f8d633942495c3b0>@@@Z@4HA 0000000180037186 f   libucrt:onexit.obj
 0001:000361a3       __acrt_lowio_ensure_fh_exists$fin$0 00000001800371a3 f   libucrt:osfinfo.obj
 0001:000361a3       _alloc_osfhnd$fin$0        00000001800371a3 f   libucrt:osfinfo.obj
 0001:000361a3       __acrt_initialize_lowio$fin$0 00000001800371a3 f   libucrt:ioinit.obj
 0001:000361bc       ?fin$0@?0???$?RV<lambda_fb3a7dec4e47f37f22dae91bb15c9095>@@AEAV<lambda_698284760c8add0bfb0756c19673e34b>@@V<lambda_dfb8eca1e75fef3034a8fb18dd509707>@@@?$__crt_seh_guarded_call@X@@QEAAX$$QEAV<lambda_fb3a7dec4e47f37f22dae91bb15c9095>@@AEAV<lambda_698284760c8add0bfb0756c19673e34b>@@$$QEAV<lambda_dfb8eca1e75fef3034a8fb18dd509707>@@@Z@4HA 00000001800371bc f   libucrt:per_thread_data.obj
 0001:000361bc       ?fin$0@?0???$?RV<lambda_99476a1ad63dd22509b5d3e65b0ffc95>@@AEAV<lambda_ad1ced32f4ac17aa236e5ef05d6b3b7c>@@V<lambda_f7424dd8d45958661754dc4f2697e9c3>@@@?$__crt_seh_guarded_call@X@@QEAAX$$QEAV<lambda_99476a1ad63dd22509b5d3e65b0ffc95>@@AEAV<lambda_ad1ced32f4ac17aa236e5ef05d6b3b7c>@@$$QEAV<lambda_f7424dd8d45958661754dc4f2697e9c3>@@@Z@4HA 00000001800371bc f   libucrt:mbctype.obj
 0001:000361bc       ?fin$0@?0???$?RV<lambda_630b2aca97f6d20d5b5ea6529ea6b6af>@@AEAV<lambda_af91936f1d075d609f72d9d8cba980af>@@V<lambda_e82fa975f615b5c7c7b0e4d178fdae67>@@@?$__crt_seh_guarded_call@H@@QEAAH$$QEAV<lambda_630b2aca97f6d20d5b5ea6529ea6b6af>@@AEAV<lambda_af91936f1d075d609f72d9d8cba980af>@@$$QEAV<lambda_e82fa975f615b5c7c7b0e4d178fdae67>@@@Z@4HA 00000001800371bc f   libucrt:winapi_thunks.obj
 0001:000361bc       ?fin$0@?0???$?RV<lambda_d67e8342c384adda8f857579ab50b2ae>@@AEAV<lambda_30712929f77e709619002f448b6a9510>@@V<lambda_4525336fd7e478d965fb7ca7a337cad8>@@@?$__crt_seh_guarded_call@X@@QEAAX$$QEAV<lambda_d67e8342c384adda8f857579ab50b2ae>@@AEAV<lambda_30712929f77e709619002f448b6a9510>@@$$QEAV<lambda_4525336fd7e478d965fb7ca7a337cad8>@@@Z@4HA 00000001800371bc f   libucrt:wsetlocale.obj
 0001:000361bc       ?fin$0@?0???$?RV<lambda_b8c45f8f788dd370798f47cfe8ac3a86>@@AEAV<lambda_4e60a939b0d047cfe11ddc22648dfba9>@@V<lambda_332c3edc96d0294ec56c57d38c1cdfd5>@@@?$__crt_seh_guarded_call@H@@QEAAH$$QEAV<lambda_b8c45f8f788dd370798f47cfe8ac3a86>@@AEAV<lambda_4e60a939b0d047cfe11ddc22648dfba9>@@$$QEAV<lambda_332c3edc96d0294ec56c57d38c1cdfd5>@@@Z@4HA 00000001800371bc f   libucrt:onexit.obj
 0001:000361bc       ?fin$0@?0???$?RV<lambda_46352004c1216016012b18bd6f87e700>@@AEAV<lambda_3bd07e1a1191394380780325891bf33f>@@V<lambda_334532d3f185bcaa59b5be82d7d22bff>@@@?$__crt_seh_guarded_call@X@@QEAAX$$QEAV<lambda_46352004c1216016012b18bd6f87e700>@@AEAV<lambda_3bd07e1a1191394380780325891bf33f>@@$$QEAV<lambda_334532d3f185bcaa59b5be82d7d22bff>@@@Z@4HA 00000001800371bc f   libucrt:per_thread_data.obj
 0001:000361bc       ?fin$0@?0???$?RV<lambda_5e887d1dcbef67a5eb4283622ba103bf>@@AEAV<lambda_4466841279450cc726390878d4a41900>@@V<lambda_341c25c0346d94847f1f3c463c57e077>@@@?$__crt_seh_guarded_call@X@@QEAAX$$QEAV<lambda_5e887d1dcbef67a5eb4283622ba103bf>@@AEAV<lambda_4466841279450cc726390878d4a41900>@@$$QEAV<lambda_341c25c0346d94847f1f3c463c57e077>@@@Z@4HA 00000001800371bc f   libucrt:per_thread_data.obj
 0001:000361bc       ?fin$0@?0???$?RV<lambda_c36588078e9f5dfd39652860aa6b3aaf>@@AEAV<lambda_ec61778202f4f5fc7e7711acc23c3bca>@@V<lambda_dc9d2797ccde5d239b4a0efae8ebd7db>@@@?$__crt_seh_guarded_call@P6AXH@Z@@QEAAP6AXH@Z$$QEAV<lambda_c36588078e9f5dfd39652860aa6b3aaf>@@AEAV<lambda_ec61778202f4f5fc7e7711acc23c3bca>@@$$QEAV<lambda_dc9d2797ccde5d239b4a0efae8ebd7db>@@@Z@4HA 00000001800371bc f   libucrt:signal.obj
 0001:000361bc       ?fin$0@?0???$?RV<lambda_72d1df2b273a38828b1ce30cbf4cdab5>@@AEAV<lambda_876a65b173b8412d3a47c70a915b0cf4>@@V<lambda_41932305e351933ebe8f8be3ed8bb5dc>@@@?$__crt_seh_guarded_call@X@@QEAAX$$QEAV<lambda_72d1df2b273a38828b1ce30cbf4cdab5>@@AEAV<lambda_876a65b173b8412d3a47c70a915b0cf4>@@$$QEAV<lambda_41932305e351933ebe8f8be3ed8bb5dc>@@@Z@4HA 00000001800371bc f   libucrt:per_thread_data.obj
 0001:000361d6       ?fin$0@?0???$?RV<lambda_b521505b218e5242e90febf6bfebc422>@@AEAV<lambda_6978c1fb23f02e42e1d9e99668cc68aa>@@V<lambda_314360699dd331753a4119843814e9a7>@@@?$__crt_seh_guarded_call@H@@QEAAH$$QEAV<lambda_b521505b218e5242e90febf6bfebc422>@@AEAV<lambda_6978c1fb23f02e42e1d9e99668cc68aa>@@$$QEAV<lambda_314360699dd331753a4119843814e9a7>@@@Z@4HA 00000001800371d6 f   libucrt:commit.obj
 0001:000361d6       ?fin$0@?0???$?RV<lambda_bfedae4ebbf01fab1bb6dcc6a9e276e0>@@AEAV<lambda_2fe9b910cf3cbf4a0ab98a02ba45b3ec>@@V<lambda_237c231691f317818eb88cc1d5d642d6>@@@?$__crt_seh_guarded_call@H@@QEAAH$$QEAV<lambda_bfedae4ebbf01fab1bb6dcc6a9e276e0>@@AEAV<lambda_2fe9b910cf3cbf4a0ab98a02ba45b3ec>@@$$QEAV<lambda_237c231691f317818eb88cc1d5d642d6>@@@Z@4HA 00000001800371d6 f   libucrt:close.obj
 0001:000361f0       _write$fin$0               00000001800371f0 f   libucrt:write.obj
 0001:000361f0       _read$fin$0                00000001800371f0 f   libucrt:read.obj
 0001:000361f0       ?fin$0@?0???$common_lseek@_J@@YA_JH_JH@Z@4HA 00000001800371f0 f   libucrt:lseek.obj
 0001:00036207       ?fin$0@?0???$?RV<lambda_5df02c53a8f32f81fd64e5bbb78039f1>@@AEAV<lambda_2af78c5f5901b1372d98f9ab3177dfa6>@@AEAV<lambda_f51fe5fd7c79a33db34fc9310f277369>@@@?$__crt_seh_guarded_call@X@@QEAAX$$QEAV<lambda_5df02c53a8f32f81fd64e5bbb78039f1>@@AEAV<lambda_2af78c5f5901b1372d98f9ab3177dfa6>@@AEAV<lambda_f51fe5fd7c79a33db34fc9310f277369>@@@Z@4HA 0000000180037207 f   libucrt:wsetlocale.obj
 0001:00036228       _fcloseall$fin$0           0000000180037228 f   libucrt:closeall.obj
 0001:00036228       ?fin$0@?0??__acrt_stdio_allocate_stream@@YA?AV__crt_stdio_stream@@XZ@4HA 0000000180037228 f   libucrt:stream.obj
 0001:00036241       ?fin$0@?0???$common_ftell@_J@@YA_JV__crt_stdio_stream@@@Z@4HA 0000000180037241 f   libucrt:ftell.obj
 0001:00036241       ?fin$0@?0??common_fseek@@YAHV__crt_stdio_stream@@_JH@Z@4HA 0000000180037241 f   libucrt:fseek.obj
 0001:0003625b       __acrt_update_thread_multibyte_data$fin$0 000000018003725b f   libucrt:mbctype.obj
 0001:00036274       __acrt_update_thread_locale_data$fin$0 0000000180037274 f   libucrt:locale_refcounting.obj
 0001:00036274       __acrt_uninitialize_locale$fin$0 0000000180037274 f   libucrt:wsetlocale.obj
 0001:0003628d       ?fin$0@?0???$common_sopen_dispatch@D@@YAHQEBDHHHQEAHH@Z@4HA 000000018003728d f   libucrt:open.obj
 0001:000362e0       _ctrlfp$filt$0             00000001800372e0 f   libucrt:fpctrl.obj
 0001:000362e0       common_control87$filt$0    00000001800372e0 f   libucrt:ieee.obj
 0001:00036310       _IsNonwritableInCurrentImage$filt$0 0000000180037310 f   LIBCMT:pesect.obj
 0001:00036330       ??__Fversion_string@nodereport@@YAXXZ 0000000180037330 f   node_report.obj
 0001:000363e0       ??__Fcommandline_string@nodereport@@YAXXZ 00000001800373e0 f   node_report.obj
 0001:00036494       ??__Finitlocks@std@@YAXXZ  0000000180037494 f   libcpmt:xlock.obj
 0001:000364a0       ??__Fcout@std@@YAXXZ       00000001800374a0 f   libcpmt:cout.obj
 0001:00036500       ??__Ffout@std@@YAXXZ       0000000180037500 f   libcpmt:cout.obj
 0001:0003650c       ??__Finitlocks@@YAXXZ      000000018003750c f   libcpmt:cout.obj
 0001:00036518       ??__F_Fac_tidy_reg@std@@YAXXZ 0000000180037518 f   libcpmt:locale0.obj
 0001:00036544       ??__Fclassic_locale@std@@YAXXZ 0000000180037544 f   libcpmt:locale0.obj
 0001:000365a4       ??__Fcerr@std@@YAXXZ       00000001800375a4 f   libcpmt:cerr.obj
 0001:00036604       ??__Fferr@std@@YAXXZ       0000000180037604 f   libcpmt:cerr.obj
 0001:00036610       ??__Finitlocks@@YAXXZ      0000000180037610 f   libcpmt:cerr.obj
 0001:0003661c       ??__Finit_atexit@@YAXXZ    000000018003761c f   libcpmt:iosptrs.obj
 0001:00036670       ??__Finitlocks@std@@YAXXZ  0000000180037670 f   libcpmt:iosptrs.obj
 0002:00000390       ?initlocks$initializer$@std@@3P6AXXZEA 0000000180038390     libcpmt:xlock.obj
 0002:00000398       ?initlocks$initializer$@@3P6AXXZEA 0000000180038398     libcpmt:cout.obj
 0002:000003a0       ?fout$initializer$@std@@3P6AXXZEA 00000001800383a0     libcpmt:cout.obj
 0002:000003a8       ?cout$initializer$@std@@3P6AXXZEA 00000001800383a8     libcpmt:cout.obj
 0002:000003b0       ?init_cout$initializer$@std@@3P6AXXZEA 00000001800383b0     libcpmt:cout.obj
 0002:000003b8       ?initlocks$initializer$@@3P6AXXZEA 00000001800383b8     libcpmt:cerr.obj
 0002:000003c0       ?ferr$initializer$@std@@3P6AXXZEA 00000001800383c0     libcpmt:cerr.obj
 0002:000003c8       ?cerr$initializer$@std@@3P6AXXZEA 00000001800383c8     libcpmt:cerr.obj
 0002:000003d0       ?init_cerr$initializer$@std@@3P6AXXZEA 00000001800383d0     libcpmt:cerr.obj
 0002:000003d8       ?initlocks$initializer$@std@@3P6AXXZEA 00000001800383d8     libcpmt:iosptrs.obj
 0002:000003e0       ?init_atexit$initializer$@@3P6AXXZEA 00000001800383e0     libcpmt:iosptrs.obj
 0002:000003e8       ?_Fac_tidy_reg$initializer$@std@@3P6AXXZEA 00000001800383e8     libcpmt:locale0.obj
 0002:000003f0       ?classic_locale$initializer$@std@@3P6AXXZEA 00000001800383f0     libcpmt:locale0.obj
 0002:000003f8       ?version_string$initializer$@nodereport@@3P6AXXZEA 00000001800383f8     node_report.obj
 0002:00000400       ?commandline_string$initializer$@nodereport@@3P6AXXZEA 0000000180038400     node_report.obj
 0002:00000420       ?pinit@@3P6AHXZEA          0000000180038420     libcpmt:winapisupp.obj
 0002:00000428       ?__scrt_initialize_tss_var@@3P6AHXZEA 0000000180038428     LIBCMT:thread_safe_statics.obj
 0002:000004b0       $cppxdata$??__Fcout@std@@YAXXZ 00000001800384b0     libcpmt:cout.obj
 0002:000007c8       $cppxdata$??_G_Fac_node@std@@QEAAPEAXI@Z 00000001800387c8     libcpmt:locale0.obj
 0002:000007f0       $cppxdata$?_Locimp_dtor@_Locimp@locale@std@@CAXPEAV123@@Z 00000001800387f0     libcpmt:locale0.obj
 0002:00000818       $cppxdata$??_G_Locimp@locale@std@@MEAAPEAXI@Z 0000000180038818     libcpmt:locale0.obj
 0002:00000840       $cppxdata$?_Init@locale@std@@CAPEAV_Locimp@12@_N@Z 0000000180038840     libcpmt:locale0.obj
 0002:00000868       $cppxdata$??__Fclassic_locale@std@@YAXXZ 0000000180038868     libcpmt:locale0.obj
 0002:00000930       $cppxdata$??__Fcerr@std@@YAXXZ 0000000180038930     libcpmt:cerr.obj
 0002:00000960       ?mods@?1??_Xfsopen@std@@YAPEAU_iobuf@@PEBDHH@Z@4QBQEBDB 0000000180038960     libcpmt:fiopen.obj
 0002:00000a50       ?_Win_errtab@std@@3QBU_Win_errtab_t@1@B 0000000180038a50     libcpmt:syserror.obj
 0002:00000ca0       ?_Sys_errtab@std@@3QBU_Sys_errtab_t@1@B 0000000180038ca0     libcpmt:syserror.obj
 0002:00001840       $cppxdata$??__Finit_atexit@@YAXXZ 0000000180039840     libcpmt:iosptrs.obj
 0002:00001d20       digits                     0000000180039d20     libcpmt:xstoul.obj
 0002:00001d48       ndigs                      0000000180039d48     libcpmt:xstoul.obj
 0002:00001d70       digits                     0000000180039d70     libcpmt:xstoull.obj
 0002:00001d98       ndigs                      0000000180039d98     libcpmt:xstoull.obj
 0002:000023f0       ?LcidToLocaleNameTable@@3QBULcidToLocaleName@@B 000000018003a3f0     libcpmt:winapinls.obj
 0002:00003230       ?LocaleNameToIndexTable@@3QBULocaleNameIndex@@B 000000018003b230     libcpmt:winapinls.obj
 0002:00005118       GS_ExceptionPointers       000000018003d118     LIBCMT:gs_report.obj
 0002:00005190       ?ExceptionTemplate@?1??_CxxThrowException@@9@4UEHExceptionRecord@@B 000000018003d190     libvcruntime:throw.obj
 0002:000051d0       ?ExceptionTemplate@?1??_UnwindNestedFrames@@9@4U_EXCEPTION_RECORD@@B 000000018003d1d0     libvcruntime:trnsctrl.obj
 0002:00005268       ?module_names@?A0x679b24ab@@3QBQEB_WB 000000018003d268     libvcruntime:winapi_downlevel.obj
 0002:00005338       ?candidate_modules@?1??try_get_FlsAlloc@@YAP6AKP6AXPEAX@Z@ZXZ@4QBW4module_id@?A0x679b24ab@@B 000000018003d338     libvcruntime:winapi_downlevel.obj
 0002:00005340       ?candidate_modules@?1??try_get_FlsFree@@YAP6AHK@ZXZ@4QBW4module_id@?A0x679b24ab@@B 000000018003d340     libvcruntime:winapi_downlevel.obj
 0002:00005348       ?candidate_modules@?1??try_get_FlsGetValue@@YAP6APEAXK@ZXZ@4QBW4module_id@?A0x679b24ab@@B 000000018003d348     libvcruntime:winapi_downlevel.obj
 0002:00005350       ?candidate_modules@?1??try_get_FlsSetValue@@YAP6AHKPEAX@ZXZ@4QBW4module_id@?A0x679b24ab@@B 000000018003d350     libvcruntime:winapi_downlevel.obj
 0002:00005358       ?candidate_modules@?1??try_get_InitializeCriticalSectionEx@@YAP6AHPEAU_RTL_CRITICAL_SECTION@@KK@ZXZ@4QBW4module_id@?A0x679b24ab@@B 000000018003d358     libvcruntime:winapi_downlevel.obj
 0002:00005360       ?tokenTable@@3QBQEBDB      000000018003d360     libvcruntime:undname.obj
 0002:000053d0       ?nameTable@@3QBQEBDB       000000018003d3d0     libvcruntime:undname.obj
 0002:00005658       ?rttiTable@@3QBQEBDB       000000018003d658     libvcruntime:undname.obj
 0002:00005db0       errtable                   000000018003ddb0     libucrt:errno.obj
 0002:00007630       __flag_x_one_y_snan        000000018003f630     libucrt:pow.obj
 0002:00007634       __flag_x_zero_z_inf        000000018003f634     libucrt:pow.obj
 0002:00007638       __flag_x_nan               000000018003f638     libucrt:pow.obj
 0002:0000763c       __flag_y_nan               000000018003f63c     libucrt:pow.obj
 0002:00007640       __flag_x_nan_y_nan         000000018003f640     libucrt:pow.obj
 0002:00007644       __flag_x_neg_y_notint      000000018003f644     libucrt:pow.obj
 0002:00007648       __flag_z_zero              000000018003f648     libucrt:pow.obj
 0002:0000764c       __flag_z_denormal          000000018003f64c     libucrt:pow.obj
 0002:00007650       __flag_z_inf               000000018003f650     libucrt:pow.obj
 0002:00007660       __ay_max_bound             000000018003f660     libucrt:pow.obj
 0002:00007668       __ay_min_bound             000000018003f668     libucrt:pow.obj
 0002:00007670       __sign_mask                000000018003f670     libucrt:pow.obj
 0002:00007678       __sign_and_exp_mask        000000018003f678     libucrt:pow.obj
 0002:00007680       __exp_mask                 000000018003f680     libucrt:pow.obj
 0002:00007688       __neg_inf                  000000018003f688     libucrt:pow.obj
 0002:00007690       __pos_inf                  000000018003f690     libucrt:pow.obj
 0002:00007698       __pos_one                  000000018003f698     libucrt:pow.obj
 0002:000076a0       __pos_zero                 000000018003f6a0     libucrt:pow.obj
 0002:000076a8       __exp_mant_mask            000000018003f6a8     libucrt:pow.obj
 0002:000076b0       __mant_mask                000000018003f6b0     libucrt:pow.obj
 0002:000076b8       __ind_pattern              000000018003f6b8     libucrt:pow.obj
 0002:000076c0       __neg_qnan                 000000018003f6c0     libucrt:pow.obj
 0002:000076c8       __qnan                     000000018003f6c8     libucrt:pow.obj
 0002:000076d0       __qnan_set                 000000018003f6d0     libucrt:pow.obj
 0002:000076d8       __neg_one                  000000018003f6d8     libucrt:pow.obj
 0002:000076e0       __neg_zero                 000000018003f6e0     libucrt:pow.obj
 0002:000076e8       __exp_shift                000000018003f6e8     libucrt:pow.obj
 0002:000076f0       __exp_bias                 000000018003f6f0     libucrt:pow.obj
 0002:000076f8       __exp_bias_m1              000000018003f6f8     libucrt:pow.obj
 0002:00007700       __yexp_53                  000000018003f700     libucrt:pow.obj
 0002:00007708       __mant_full                000000018003f708     libucrt:pow.obj
 0002:00007710       __1_before_mant            000000018003f710     libucrt:pow.obj
 0002:00007718       __mask_mant_all8           000000018003f718     libucrt:pow.obj
 0002:00007720       __mask_mant9               000000018003f720     libucrt:pow.obj
 0002:00007730       __real_fffffffff8000000    000000018003f730     libucrt:pow.obj
 0002:00007740       __mask_8000000000000000    000000018003f740     libucrt:pow.obj
 0002:00007750       __real_4090040000000000    000000018003f750     libucrt:pow.obj
 0002:00007760       __real_C090C80000000000    000000018003f760     libucrt:pow.obj
 0002:00007770       __real_ninf                000000018003f770     libucrt:pow.obj
 0002:00007780       __real_inf                 000000018003f780     libucrt:pow.obj
 0002:00007790       __real_nan                 000000018003f790     libucrt:pow.obj
 0002:000077a0       __real_mant                000000018003f7a0     libucrt:pow.obj
 0002:000077b0       __mask_1023                000000018003f7b0     libucrt:pow.obj
 0002:000077c0       __mask_001                 000000018003f7c0     libucrt:pow.obj
 0002:000077d0       __real_log2_lead           000000018003f7d0     libucrt:pow.obj
 0002:000077e0       __real_log2_tail           000000018003f7e0     libucrt:pow.obj
 0002:000077f0       __real_two                 000000018003f7f0     libucrt:pow.obj
 0002:00007800       __real_one                 000000018003f800     libucrt:pow.obj
 0002:00007810       __real_half                000000018003f810     libucrt:pow.obj
 0002:00007820       __mask_100                 000000018003f820     libucrt:pow.obj
 0002:00007830       __real_1_over_2            000000018003f830     libucrt:pow.obj
 0002:00007840       __real_1_over_3            000000018003f840     libucrt:pow.obj
 0002:00007850       __real_1_over_4            000000018003f850     libucrt:pow.obj
 0002:00007860       __real_1_over_5            000000018003f860     libucrt:pow.obj
 0002:00007870       __real_1_over_6            000000018003f870     libucrt:pow.obj
 0002:00007880       __real_1_over_7            000000018003f880     libucrt:pow.obj
 0002:00007890       __mask_1023_f              000000018003f890     libucrt:pow.obj
 0002:000078a0       __mask_2045                000000018003f8a0     libucrt:pow.obj
 0002:000078b0       __real_threshold           000000018003f8b0     libucrt:pow.obj
 0002:000078c0       __real_notsign             000000018003f8c0     libucrt:pow.obj
 0002:000078d0       __log_F_inv_head           000000018003f8d0     libucrt:pow.obj
 0002:000080e0       __log_F_inv_tail           00000001800400e0     libucrt:pow.obj
 0002:000088f0       __denormal_threshold       00000001800408f0     libucrt:pow.obj
 0002:00008900       __enable_almost_inf        0000000180040900     libucrt:pow.obj
 0002:00008910       __real_zero                0000000180040910     libucrt:pow.obj
 0002:00008920       __real_smallest_denormal   0000000180040920     libucrt:pow.obj
 0002:00008930       __denormal_tiny_threshold  0000000180040930     libucrt:pow.obj
 0002:00008940       __real_p65536              0000000180040940     libucrt:pow.obj
 0002:00008950       __real_m68800              0000000180040950     libucrt:pow.obj
 0002:00008960       __real_64_by_log2          0000000180040960     libucrt:pow.obj
 0002:00008970       __real_log2_by_64_head     0000000180040970     libucrt:pow.obj
 0002:00008980       __real_log2_by_64_tail     0000000180040980     libucrt:pow.obj
 0002:00008990       __real_1_by_720            0000000180040990     libucrt:pow.obj
 0002:000089a0       __real_1_by_120            00000001800409a0     libucrt:pow.obj
 0002:000089b0       __real_1_by_24             00000001800409b0     libucrt:pow.obj
 0002:000089c0       __real_1_by_6              00000001800409c0     libucrt:pow.obj
 0002:000089d0       __real_1_by_2              00000001800409d0     libucrt:pow.obj
 0002:000089e0       __flag_x_one_y_snan        00000001800409e0     libucrt:powf.obj
 0002:000089e4       __flag_x_zero_z_inf        00000001800409e4     libucrt:powf.obj
 0002:000089e8       __flag_x_nan               00000001800409e8     libucrt:powf.obj
 0002:000089ec       __flag_y_nan               00000001800409ec     libucrt:powf.obj
 0002:000089f0       __flag_x_nan_y_nan         00000001800409f0     libucrt:powf.obj
 0002:000089f4       __flag_x_neg_y_notint      00000001800409f4     libucrt:powf.obj
 0002:000089f8       __flag_z_zero              00000001800409f8     libucrt:powf.obj
 0002:000089fc       __flag_z_denormal          00000001800409fc     libucrt:powf.obj
 0002:00008a00       __flag_z_inf               0000000180040a00     libucrt:powf.obj
 0002:00008a04       L__1_by_3                  0000000180040a04     libucrt:powf.obj
 0002:00008a0c       L__log2                    0000000180040a0c     libucrt:powf.obj
 0002:00008a14       L__max_exp_arg             0000000180040a14     libucrt:powf.obj
 0002:00008a1c       L__min_exp_arg             0000000180040a1c     libucrt:powf.obj
 0002:00008a24       L__real_log2_by_64         0000000180040a24     libucrt:powf.obj
 0002:00008a2c       L__1_by_6                  0000000180040a2c     libucrt:powf.obj
 0002:00008a34       L__real_threshold          0000000180040a34     libucrt:powf.obj
 0002:00008a3c       L__real_one                0000000180040a3c     libucrt:powf.obj
 0002:00008a44       L__real_two                0000000180040a44     libucrt:powf.obj
 0002:00008a4c       L__neg_zero                0000000180040a4c     libucrt:powf.obj
 0002:00008a60       L__real_ca42               0000000180040a60     libucrt:powf.obj
 0002:00008a68       L__real_ca4                0000000180040a68     libucrt:powf.obj
 0002:00008a70       L__real_ca31               0000000180040a70     libucrt:powf.obj
 0002:00008a78       L__real_ca3                0000000180040a78     libucrt:powf.obj
 0002:00008a80       L__clear_sign              0000000180040a80     libucrt:powf.obj
 0002:00008a90       L__real_64_by_log2         0000000180040a90     libucrt:powf.obj
 0002:00008aa0       L__1_by_2                  0000000180040aa0     libucrt:powf.obj
 0002:00008ab0       L__1023                    0000000180040ab0     libucrt:powf.obj
 0002:00008ac0       L__xexp_bits_xmantissa_bits 0000000180040ac0     libucrt:powf.obj
 0002:000093c0       __acrt_initializers        00000001800413c0     libucrt:initialization.obj
 0002:00009620       _first_127char             0000000180041620     libucrt:wsetlocale.obj
 0002:00009d40       module_names               0000000180041d40     libucrt:winapi_thunks.obj
 0002:0000a270       ?candidate_modules@?1??try_get_AreFileApisANSI@@YAP6AHXZXZ@4QBW4module_id@?A0x63058377@@B 0000000180042270     libucrt:winapi_thunks.obj
 0002:0000a288       ?candidate_modules@?1??try_get_CompareStringEx@@YAP6AHPEB_WK0H0HPEAU_nlsversioninfo@@PEAX_J@ZXZ@4QBW4module_id@?A0x63058377@@B 0000000180042288     libucrt:winapi_thunks.obj
 0002:0000a290       ?candidate_modules@?1??try_get_EnumSystemLocalesEx@@YAP6AHP6AHPEA_WK_J@ZK1PEAX@ZXZ@4QBW4module_id@?A0x63058377@@B 0000000180042290     libucrt:winapi_thunks.obj
 0002:0000a2b0       ?candidate_modules@?1??try_get_FlsAlloc@@YAP6AKP6AXPEAX@Z@ZXZ@4QBW4module_id@?A0x63058377@@B 00000001800422b0     libucrt:winapi_thunks.obj
 0002:0000a2b8       ?candidate_modules@?1??try_get_FlsFree@@YAP6AHK@ZXZ@4QBW4module_id@?A0x63058377@@B 00000001800422b8     libucrt:winapi_thunks.obj
 0002:0000a2c0       ?candidate_modules@?1??try_get_FlsGetValue@@YAP6APEAXK@ZXZ@4QBW4module_id@?A0x63058377@@B 00000001800422c0     libucrt:winapi_thunks.obj
 0002:0000a2c8       ?candidate_modules@?1??try_get_FlsSetValue@@YAP6AHKPEAX@ZXZ@4QBW4module_id@?A0x63058377@@B 00000001800422c8     libucrt:winapi_thunks.obj
 0002:0000a2d0       ?candidate_modules@?1??try_get_GetActiveWindow@@YAP6APEAUHWND__@@XZXZ@4QBW4module_id@?A0x63058377@@B 00000001800422d0     libucrt:winapi_thunks.obj
 0002:0000a2e8       ?candidate_modules@?1??try_get_GetCurrentPackageId@@YAP6AJPEAIPEAE@ZXZ@4QBW4module_id@?A0x63058377@@B 00000001800422e8     libucrt:winapi_thunks.obj
 0002:0000a2f0       ?candidate_modules@?1??try_get_GetLastActivePopup@@YAP6APEAUHWND__@@PEAU2@@ZXZ@4QBW4module_id@?A0x63058377@@B 00000001800422f0     libucrt:winapi_thunks.obj
 0002:0000a310       ?candidate_modules@?1??try_get_GetLocaleInfoEx@@YAP6AHPEB_WKPEA_WH@ZXZ@4QBW4module_id@?A0x63058377@@B 0000000180042310     libucrt:winapi_thunks.obj
 0002:0000a318       ?candidate_modules@?1??try_get_GetProcessWindowStation@@YAP6APEAUHWINSTA__@@XZXZ@4QBW4module_id@?A0x63058377@@B 0000000180042318     libucrt:winapi_thunks.obj
 0002:0000a338       ?candidate_modules@?1??try_get_GetSystemTimePreciseAsFileTime@@YAP6AXPEAU_FILETIME@@@ZXZ@4QBW4module_id@?A0x63058377@@B 0000000180042338     libucrt:winapi_thunks.obj
 0002:0000a340       ?candidate_modules@?1??try_get_GetUserDefaultLocaleName@@YAP6AHPEA_WH@ZXZ@4QBW4module_id@?A0x63058377@@B 0000000180042340     libucrt:winapi_thunks.obj
 0002:0000a368       ?candidate_modules@?1??try_get_GetUserObjectInformationW@@YAP6AHPEAXH0KPEAK@ZXZ@4QBW4module_id@?A0x63058377@@B 0000000180042368     libucrt:winapi_thunks.obj
 0002:0000a390       ?candidate_modules@?1??try_get_InitializeCriticalSectionEx@@YAP6AHPEAU_RTL_CRITICAL_SECTION@@KK@ZXZ@4QBW4module_id@?A0x63058377@@B 0000000180042390     libucrt:winapi_thunks.obj
 0002:0000a398       ?candidate_modules@?1??try_get_IsValidLocaleName@@YAP6AHPEB_W@ZXZ@4QBW4module_id@?A0x63058377@@B 0000000180042398     libucrt:winapi_thunks.obj
 0002:0000a3b8       ?candidate_modules@?1??try_get_LCMapStringEx@@YAP6AHPEB_WK0HPEA_WHPEAU_nlsversioninfo@@PEAX_J@ZXZ@4QBW4module_id@?A0x63058377@@B 00000001800423b8     libucrt:winapi_thunks.obj
 0002:0000a3c0       ?candidate_modules@?1??try_get_LCIDToLocaleName@@YAP6AHKPEA_WHK@ZXZ@4QBW4module_id@?A0x63058377@@B 00000001800423c0     libucrt:winapi_thunks.obj
 0002:0000a3e0       ?candidate_modules@?1??try_get_LocaleNameToLCID@@YAP6AKPEB_WK@ZXZ@4QBW4module_id@?A0x63058377@@B 00000001800423e0     libucrt:winapi_thunks.obj
 0002:0000a400       ?candidate_modules@?1??try_get_MessageBoxA@@YAP6AHPEAUHWND__@@PEBD1I@ZXZ@4QBW4module_id@?A0x63058377@@B 0000000180042400     libucrt:winapi_thunks.obj
 0002:0000a418       ?candidate_modules@?1??try_get_MessageBoxW@@YAP6AHPEAUHWND__@@PEB_W1I@ZXZ@4QBW4module_id@?A0x63058377@@B 0000000180042418     libucrt:winapi_thunks.obj
 0002:0000a430       ?_names@?1??_get_fname@@9@9 0000000180042430     libucrt:fpexcept.obj
 0002:0000c540       _mb_locale_names           0000000180044540     libucrt:mbctype.obj
 0002:0000d560       LcidToLocaleNameTable      0000000180045560     libucrt:lcidtoname_downlevel.obj
 0002:0000e3a0       LocaleNameToIndexTable     00000001800463a0     libucrt:lcidtoname_downlevel.obj
 0002:0000f1e0       __real@433fffffffffffff    00000001800471e0     libucrt:fpsr.obj
 0002:0000f1e8       __real@c33fffffffffffff    00000001800471e8     libucrt:fpsr.obj
 0002:0000f200       __real_ninf                0000000180047200     libucrt:log10.obj
 0002:0000f210       __real_inf                 0000000180047210     libucrt:log10.obj
 0002:0000f220       __real_neg_qnan            0000000180047220     libucrt:log10.obj
 0002:0000f230       __real_qnanbit             0000000180047230     libucrt:log10.obj
 0002:0000f240       __int_1023                 0000000180047240     libucrt:log10.obj
 0002:0000f250       __mask_001                 0000000180047250     libucrt:log10.obj
 0002:0000f260       __mask_mant                0000000180047260     libucrt:log10.obj
 0002:0000f270       __mask_mant_top8           0000000180047270     libucrt:log10.obj
 0002:0000f280       __mask_mant9               0000000180047280     libucrt:log10.obj
 0002:0000f290       __real_log10_e             0000000180047290     libucrt:log10.obj
 0002:0000f2a0       __real_log10_e_lead        00000001800472a0     libucrt:log10.obj
 0002:0000f2b0       __real_log10_e_tail        00000001800472b0     libucrt:log10.obj
 0002:0000f2c0       __real_log10_2_lead        00000001800472c0     libucrt:log10.obj
 0002:0000f2d0       __real_log10_2_tail        00000001800472d0     libucrt:log10.obj
 0002:0000f2e0       __real_two                 00000001800472e0     libucrt:log10.obj
 0002:0000f2f0       __real_one                 00000001800472f0     libucrt:log10.obj
 0002:0000f300       __real_half                0000000180047300     libucrt:log10.obj
 0002:0000f310       __mask_100                 0000000180047310     libucrt:log10.obj
 0002:0000f320       __real_1_over_512          0000000180047320     libucrt:log10.obj
 0002:0000f330       __real_1_over_2            0000000180047330     libucrt:log10.obj
 0002:0000f340       __real_1_over_3            0000000180047340     libucrt:log10.obj
 0002:0000f350       __real_1_over_4            0000000180047350     libucrt:log10.obj
 0002:0000f360       __real_1_over_5            0000000180047360     libucrt:log10.obj
 0002:0000f370       __real_1_over_6            0000000180047370     libucrt:log10.obj
 0002:0000f380       __real_neg_1023            0000000180047380     libucrt:log10.obj
 0002:0000f390       __mask_2045                0000000180047390     libucrt:log10.obj
 0002:0000f3a0       __real_threshold           00000001800473a0     libucrt:log10.obj
 0002:0000f3b0       __real_near_one_lt         00000001800473b0     libucrt:log10.obj
 0002:0000f3c0       __real_near_one_gt         00000001800473c0     libucrt:log10.obj
 0002:0000f3d0       __real_min_norm            00000001800473d0     libucrt:log10.obj
 0002:0000f3e0       __real_notsign             00000001800473e0     libucrt:log10.obj
 0002:0000f3f0       __real_ca1                 00000001800473f0     libucrt:log10.obj
 0002:0000f400       __real_ca2                 0000000180047400     libucrt:log10.obj
 0002:0000f410       __real_ca3                 0000000180047410     libucrt:log10.obj
 0002:0000f420       __real_ca4                 0000000180047420     libucrt:log10.obj
 0002:0000f430       __mask_lower               0000000180047430     libucrt:log10.obj
 0002:0000f440       __flag_x_zero              0000000180047440     libucrt:log10.obj
 0002:0000f444       __flag_x_neg               0000000180047444     libucrt:log10.obj
 0002:0000f448       __flag_x_nan               0000000180047448     libucrt:log10.obj
 0002:00012fe0       $unwind$sprintf_s          000000018004afe0     node_report.obj
 0002:00012fe0       $unwind$swprintf           000000018004afe0     libucrt:assert.obj
 0002:00012fe0       $unwind$snprintf           000000018004afe0     node_report.obj
 0002:00012ff0       $unwind$??0bad_alloc@std@@QEAA@AEBV01@@Z 000000018004aff0     libcpmt:xthrow.obj
 0002:00012ff0       $unwind$?do_widen@?$ctype@D@std@@MEBAPEBDPEBD0PEAD@Z 000000018004aff0     node_report.obj
 0002:00012ff0       $unwind$_IsExceptionObjectToBeDestroyed 000000018004aff0     libvcruntime:trnsctrl.obj
 0002:00012ff0       $unwind$?DloadReleaseSectionWriteAccess@@YAXXZ 000000018004aff0     DelayImp:delayhlp.obj
 0002:00012ff0       $unwind$__acrt_can_show_message_box 000000018004aff0     libucrt:winapi_thunks.obj
 0002:00012ff0       $unwind$?do_narrow@?$ctype@D@std@@MEBAPEBDPEBD0DPEAD@Z 000000018004aff0     node_report.obj
 0002:00012ff0       $unwind$?underflow@?$basic_filebuf@DU?$char_traits@D@std@@@std@@MEAAHXZ 000000018004aff0     node_report.obj
 0002:00012ff0       $unwind$??$message_box_wait_thread@_W@@YAKQEAX@Z 000000018004aff0     libucrt:crtmbox.obj
 0002:00012ff0       $unwind$??0_Lockit@std@@QEAA@H@Z 000000018004aff0     libcpmt:xlock.obj
 0002:00012ff0       $unwind$??1?$basic_filebuf@DU?$char_traits@D@std@@@std@@UEAA@XZ 000000018004aff0     node_report.obj
 0002:00012ff0       $unwind$??_G_Facet_base@std@@UEAAPEAXI@Z 000000018004aff0     node_report.obj
 0002:00012ff0       $unwind$??_Gerror_category@std@@UEAAPEAXI@Z 000000018004aff0     node_report.obj
 0002:00012ff0       $unwind$__acrt_uninitialize_stdio 000000018004aff0     libucrt:_file.obj
 0002:00012ff0       $unwind$??0logic_error@std@@QEAA@AEBV01@@Z 000000018004aff0     libcpmt:xthrow.obj
 0002:00012ff0       $unwind$??__Fcommandline_string@nodereport@@YAXXZ 000000018004aff0     node_report.obj
 0002:00012ff0       $unwind$?load_exe_hook@@YAP6A_JXZIPEAUDelayLoadInfo@@@Z 000000018004aff0     win_delay_load_hook.obj
 0002:00012ff0       $unwind$??0?$output_processor@DV?$stream_output_adapter@D@__crt_stdio_output@@V?$standard_base@DV?$stream_output_adapter@D@__crt_stdio_output@@@2@@__crt_stdio_output@@QEAA@AEBV?$stream_output_adapter@D@1@_KQEBDQEAU__crt_locale_pointers@@QEAD@Z 000000018004aff0     libucrt:output.obj
 0002:00012ff0       $unwind$__scrt_release_startup_lock 000000018004aff0     LIBCMT:utility.obj
 0002:00012ff0       $unwind$__raise_securityfailure 000000018004aff0     LIBCMT:gs_report.obj
 0002:00012ff0       $unwind$__scrt_initialize_crt 000000018004aff0     LIBCMT:utility.obj
 0002:00012ff0       $unwind$?state_case_normal@?$output_processor@DV?$stream_output_adapter@D@__crt_stdio_output@@V?$standard_base@DV?$stream_output_adapter@D@__crt_stdio_output@@@2@@__crt_stdio_output@@AEAA_NXZ 000000018004aff0     libucrt:output.obj
 0002:00012ff0       $unwind$__scrt_uninitialize_crt 000000018004aff0     LIBCMT:utility.obj
 0002:00012ff0       $unwind$??_Gtype_info@@UEAAPEAXI@Z 000000018004aff0     LIBCMT:std_type_info_static.obj
 0002:00012ff0       $unwind$?state_case_normal_tchar@?$output_processor@DV?$stream_output_adapter@D@__crt_stdio_output@@V?$standard_base@DV?$stream_output_adapter@D@__crt_stdio_output@@@2@@__crt_stdio_output@@AEAA_ND@Z 000000018004aff0     libucrt:output.obj
 0002:00012ff0       $unwind$?initialize_pointers@@YAHXZ 000000018004aff0     libcpmt:winapisupp.obj
 0002:00012ff0       $unwind$??_Gexception@stdext@@UEAAPEAXI@Z 000000018004aff0     node_report.obj
 0002:00012ff0       $unwind$??_G_System_error@std@@UEAAPEAXI@Z 000000018004aff0     node_report.obj
 0002:00012ff0       $unwind$?message@_Iostream_error_category@std@@UEBA?AV?$basic_string@DU?$char_traits@D@std@@V?$allocator@D@2@@2@H@Z 000000018004aff0     node_report.obj
 0002:00012ff0       $unwind$__acrt_fp_strflt_to_string 000000018004aff0     libucrt:_fptostr.obj
 0002:00012ff0       $unwind$_calloc_base       000000018004aff0     libucrt:calloc_base.obj
 0002:00012ff0       $unwind$?type_case_integer@?$output_processor@DV?$stream_output_adapter@D@__crt_stdio_output@@V?$standard_base@DV?$stream_output_adapter@D@__crt_stdio_output@@@2@@__crt_stdio_output@@AEAA_NI_N@Z 000000018004aff0     libucrt:output.obj
 0002:00012ff0       $unwind$??__Eferr@std@@YAXXZ 000000018004aff0     libcpmt:cerr.obj
 0002:00012ff0       $unwind$?_Tidy@?$basic_stringbuf@DU?$char_traits@D@std@@V?$allocator@D@2@@std@@IEAAXXZ 000000018004aff0     module.obj
 0002:00012ff0       $unwind$??_G_Iostream_error_category@std@@UEAAPEAXI@Z 000000018004aff0     node_report.obj
 0002:00012ff0       $unwind$??0?$output_processor@_WV?$stream_output_adapter@_W@__crt_stdio_output@@V?$standard_base@_WV?$stream_output_adapter@_W@__crt_stdio_output@@@2@@__crt_stdio_output@@QEAA@AEBV?$stream_output_adapter@_W@1@_KQEB_WQEAU__crt_locale_pointers@@QEAD@Z 000000018004aff0     libucrt:output.obj
 0002:00012ff0       $unwind$__acrt_stdio_free_buffer_nolock 000000018004aff0     libucrt:_freebuf.obj
 0002:00012ff0       $unwind$??_Gfailure@ios_base@std@@UEAAPEAXI@Z 000000018004aff0     node_report.obj
 0002:00012ff0       $unwind$__acrt_stdio_allocate_buffer_nolock 000000018004aff0     libucrt:_getbuf.obj
 0002:00012ff0       $unwind$??0bad_array_new_length@std@@QEAA@AEBV01@@Z 000000018004aff0     LIBCMT:throw_bad_alloc.obj
 0002:00012ff0       $unwind$?setbuf@?$basic_filebuf@DU?$char_traits@D@std@@@std@@MEAAPEAV?$basic_streambuf@DU?$char_traits@D@std@@@2@PEAD_J@Z 000000018004aff0     node_report.obj
 0002:00012ff0       $unwind$??0length_error@std@@QEAA@AEBV01@@Z 000000018004aff0     libcpmt:xthrow.obj
 0002:00012ff0       $unwind$?ProcessNodeReportVerboseSwitch@nodereport@@YAIPEBD@Z 000000018004aff0     utilities.obj
 0002:00012ff0       $unwind$?uflow@?$basic_streambuf@DU?$char_traits@D@std@@@std@@MEAAHXZ 000000018004aff0     node_report.obj
 0002:00012ff0       $unwind$?type_case_integer@?$output_processor@_WV?$stream_output_adapter@_W@__crt_stdio_output@@V?$standard_base@_WV?$stream_output_adapter@_W@__crt_stdio_output@@@2@@__crt_stdio_output@@AEAA_NI_N@Z 000000018004aff0     libucrt:output.obj
 0002:00012ff0       $unwind$?sync@?$basic_filebuf@DU?$char_traits@D@std@@@std@@MEAAHXZ 000000018004aff0     node_report.obj
 0002:00012ff0       $unwind$_fflush_nolock     000000018004aff0     libucrt:fflush.obj
 0002:00012ff0       $unwind$?imbue@?$basic_filebuf@DU?$char_traits@D@std@@@std@@MEAAXAEBVlocale@2@@Z 000000018004aff0     node_report.obj
 0002:00012ff0       $unwind$??0?$output_processor@DV?$string_output_adapter@D@__crt_stdio_output@@V?$standard_base@DV?$string_output_adapter@D@__crt_stdio_output@@@2@@__crt_stdio_output@@QEAA@AEBV?$string_output_adapter@D@1@_KQEBDQEAU__crt_locale_pointers@@QEAD@Z 000000018004aff0     libucrt:output.obj
 0002:00012ff0       $unwind$??0bad_exception@std@@QEAA@AEBV01@@Z 000000018004aff0     libvcruntime:frame.obj
 0002:00012ff0       $unwind$?state_case_normal@?$output_processor@DV?$string_output_adapter@D@__crt_stdio_output@@V?$standard_base@DV?$string_output_adapter@D@__crt_stdio_output@@@2@@__crt_stdio_output@@AEAA_NXZ 000000018004aff0     libucrt:output.obj
 0002:00012ff0       $unwind$_malloc_base       000000018004aff0     libucrt:malloc_base.obj
 0002:00012ff0       $unwind$??1?$basic_ofstream@DU?$char_traits@D@std@@@std@@UEAA@XZ 000000018004aff0     node_report.obj
 0002:00012ff0       $unwind$??1?$basic_string@DU?$char_traits@D@std@@V?$allocator@D@2@@std@@QEAA@XZ 000000018004aff0     node_report.obj
 0002:00012ff0       $unwind$?_Setgloballocale@locale@std@@CAXPEAX@Z 000000018004aff0     libcpmt:locale0.obj
 0002:00012ff0       $unwind$_Init_thread_notify 000000018004aff0     LIBCMT:thread_safe_statics.obj
 0002:00012ff0       $unwind$??0exception@std@@QEAA@AEBV01@@Z 000000018004aff0     libcpmt:cout.obj
 0002:00012ff0       $unwind$strcpy_s           000000018004aff0     libucrt:strcpy_s.obj
 0002:00012ff0       $unwind$__acrt_uninitialize_winapi_thunks 000000018004aff0     libucrt:winapi_thunks.obj
 0002:00012ff0       $unwind$?type_case_integer@?$output_processor@DV?$string_output_adapter@D@__crt_stdio_output@@V?$standard_base@DV?$string_output_adapter@D@__crt_stdio_output@@@2@@__crt_stdio_output@@AEAA_NI_N@Z 000000018004aff0     libucrt:output.obj
 0002:00012ff0       $unwind$??__Efout@std@@YAXXZ 000000018004aff0     libcpmt:cout.obj
 0002:00012ff0       $unwind$??0out_of_range@std@@QEAA@AEBV01@@Z 000000018004aff0     libcpmt:xthrow.obj
 0002:00012ff0       $unwind$??0?$output_processor@_WV?$string_output_adapter@_W@__crt_stdio_output@@V?$standard_base@_WV?$string_output_adapter@_W@__crt_stdio_output@@@2@@__crt_stdio_output@@QEAA@AEBV?$string_output_adapter@_W@1@_KQEB_WQEAU__crt_locale_pointers@@QEAD@Z 000000018004aff0     libucrt:output.obj
 0002:00012ff0       $unwind$_Init_thread_footer 000000018004aff0     LIBCMT:thread_safe_statics.obj
 0002:00012ff0       $unwind$__acrt_allocate_buffer_for_argv 000000018004aff0     libucrt:argv_parsing.obj
 0002:00012ff0       $unwind$_Init_thread_header 000000018004aff0     LIBCMT:thread_safe_statics.obj
 0002:00012ff0       $unwind$__acrt_AreFileApisANSI 000000018004aff0     libucrt:winapi_thunks.obj
 0002:00012ff0       $unwind$_onexit            000000018004aff0     LIBCMT:utility.obj
 0002:00012ff0       $unwind$?_Facet_Register@std@@YAXPEAV_Facet_base@1@@Z 000000018004aff0     libcpmt:locale0.obj
 0002:00012ff0       $unwind$?exit_or_terminate_process@@YAXI@Z 000000018004aff0     libucrt:exit.obj
 0002:00012ff0       $unwind$wcscat_s           000000018004aff0     libucrt:wcscat_s.obj
 0002:00012ff0       $unwind$__acrt_initialize_locks 000000018004aff0     libucrt:locks.obj
 0002:00012ff0       $unwind$uninitialize_allocated_memory 000000018004aff0     libucrt:initialization.obj
 0002:00012ff0       $unwind$_setfpstatusword   000000018004aff0     libucrt:_fenvutils.obj
 0002:00012ff0       $unwind$__std_exception_destroy 000000018004aff0     libvcruntime:std_exception.obj
 0002:00012ff0       $unwind$__std_type_info_destroy_list 000000018004aff0     libvcruntime:std_type_info.obj
 0002:00012ff0       $unwind$__acrt_uninitialize_locks 000000018004aff0     libucrt:locks.obj
 0002:00012ff0       $unwind$?type_case_integer@?$output_processor@_WV?$string_output_adapter@_W@__crt_stdio_output@@V?$standard_base@_WV?$string_output_adapter@_W@__crt_stdio_output@@@2@@__crt_stdio_output@@AEAA_NI_N@Z 000000018004aff0     libucrt:output.obj
 0002:00012ff0       $unwind$??$common_get_or_create_environment_nolock@D@@YAPEAPEADXZ 000000018004aff0     libucrt:environment_initialization.obj
 0002:00012ff0       $unwind$__vcrt_initialize_locks 000000018004aff0     libvcruntime:locks.obj
 0002:00012ff0       $unwind$__vcrt_uninitialize_locks 000000018004aff0     libvcruntime:locks.obj
 0002:00012ff0       $unwind$__vcrt_freeptd     000000018004aff0     libvcruntime:per_thread_data.obj
 0002:00012ff0       $unwind$??0?$basic_ostream@DU?$char_traits@D@std@@@std@@QEAA@PEAV?$basic_streambuf@DU?$char_traits@D@std@@@1@_N@Z 000000018004aff0     node_report.obj
 0002:00012ff0       $unwind$?scan_optional_field_width@?$format_string_parser@D@__crt_stdio_input@@AEAA_NXZ 000000018004aff0     libucrt:input.obj
 0002:00012ff0       $unwind$??_G?$codecvt@DDU_Mbstatet@@@std@@MEAAPEAXI@Z 000000018004aff0     node_report.obj
 0002:00012ff0       $unwind$??_G?$num_put@DV?$ostreambuf_iterator@DU?$char_traits@D@std@@@std@@@std@@MEAAPEAXI@Z 000000018004aff0     node_report.obj
 0002:00012ff0       $unwind$?do_truename@?$numpunct@D@std@@MEBA?AV?$basic_string@DU?$char_traits@D@std@@V?$allocator@D@2@@2@XZ 000000018004aff0     node_report.obj
 0002:00012ff0       $unwind$?do_falsename@?$numpunct@D@std@@MEBA?AV?$basic_string@DU?$char_traits@D@std@@V?$allocator@D@2@@2@XZ 000000018004aff0     node_report.obj
 0002:00012ff0       $unwind$?do_grouping@?$numpunct@D@std@@MEBA?AV?$basic_string@DU?$char_traits@D@std@@V?$allocator@D@2@@2@XZ 000000018004aff0     node_report.obj
 0002:00012ff0       $unwind$wcscpy_s           000000018004aff0     libucrt:wcscpy_s.obj
 0002:00012ff0       $unwind$??__Fversion_string@nodereport@@YAXXZ 000000018004aff0     node_report.obj
 0002:00012ff0       $unwind$fesetenv           000000018004aff0     libucrt:fesetenv.obj
 0002:00012ff0       $unwind$feholdexcept       000000018004aff0     libucrt:feholdexcept.obj
 0002:00012ff0       $unwind$??0?$output_processor@DV?$string_output_adapter@D@__crt_stdio_output@@V?$format_validation_base@DV?$string_output_adapter@D@__crt_stdio_output@@@2@@__crt_stdio_output@@QEAA@AEBV?$string_output_adapter@D@1@_KQEBDQEAU__crt_locale_pointers@@QEAD@Z 000000018004aff0     libucrt:output.obj
 0002:00012ff0       $unwind$?state_case_normal@?$output_processor@DV?$string_output_adapter@D@__crt_stdio_output@@V?$format_validation_base@DV?$string_output_adapter@D@__crt_stdio_output@@@2@@__crt_stdio_output@@AEAA_NXZ 000000018004aff0     libucrt:output.obj
 0002:00012ff0       $unwind$_purecall          000000018004aff0     libvcruntime:purevirt.obj
 0002:00012ff0       $unwind$__acrt_freeptd     000000018004aff0     libucrt:per_thread_data.obj
 0002:00012ff0       $unwind$??$common_timespec_get@U_timespec64@@@@YAHQEAU_timespec64@@H@Z 000000018004aff0     libucrt:time.obj
 0002:00012ff0       $unwind$?_Addstd@ios_base@std@@SAXPEAV12@@Z 000000018004aff0     libcpmt:ios.obj
 0002:00012ff0       $unwind$?__GetUnwindTryBlock@@YAHPEA_KPEAU_xDISPATCHER_CONTEXT@@PEBU_s_FuncInfo@@@Z 000000018004aff0     libvcruntime:ehstate.obj
 0002:00012ff0       $unwind$??_Gruntime_error@std@@UEAAPEAXI@Z 000000018004aff0     node_report.obj
 0002:00012ff0       $unwind$??2@YAPEAX_K@Z     000000018004aff0     LIBCMT:new_scalar.obj
 0002:00012ff0       $unwind$?__StateFromIp@@YAHPEBU_s_FuncInfo@@PEAU_xDISPATCHER_CONTEXT@@_J@Z 000000018004aff0     libvcruntime:ehstate.obj
 0002:00012ff0       $unwind$_set_statfp        000000018004aff0     libucrt:fpctrl.obj
 0002:00012ff0       $unwind$?_Ios_base_dtor@ios_base@std@@CAXPEAV12@@Z 000000018004aff0     libcpmt:ios.obj
 0002:00012ff0       $unwind$_SetImageBase      000000018004aff0     libvcruntime:trnsctrl.obj
 0002:00012ff0       $unwind$_SetThrowImageBase 000000018004aff0     libvcruntime:trnsctrl.obj
 0002:00012ff0       $unwind$_clrfp             000000018004aff0     libucrt:fpctrl.obj
 0002:00012ff0       $unwind$_clearfp           000000018004aff0     libucrt:ieee.obj
 0002:00012ff0       $unwind$initialize_pointers 000000018004aff0     libucrt:initialization.obj
 0002:00012ff0       $unwind$__acrt_update_locale_info 000000018004aff0     libucrt:locale_update.obj
 0002:00012ff0       $unwind$?type_case_integer@?$output_processor@DV?$string_output_adapter@D@__crt_stdio_output@@V?$format_validation_base@DV?$string_output_adapter@D@__crt_stdio_output@@@2@@__crt_stdio_output@@AEAA_NI_N@Z 000000018004aff0     libucrt:output.obj
 0002:00012ff0       $unwind$__acrt_update_multibyte_info 000000018004aff0     libucrt:locale_update.obj
 0002:00012ff0       $unwind$fegetenv           000000018004aff0     libucrt:fegetenv.obj
 0002:00012ff0       $unwind$_CreateFrameInfo   000000018004aff0     libvcruntime:trnsctrl.obj
 0002:00012ff0       $unwind$??$?6U?$char_traits@D@std@@@std@@YAAEAV?$basic_ostream@DU?$char_traits@D@std@@@0@AEAV10@D@Z 000000018004aff0     utilities.obj
 0002:00012ff0       $unwind$_Getctype          000000018004aff0     libcpmt:_tolower.obj
 0002:00012ff8       $unwind$_stricmp_l         000000018004aff8     libucrt:stricmp.obj
 0002:00012ff8       $unwind$??0_Locinfo@std@@QEAA@PEBD@Z 000000018004aff8     node_report.obj
 0002:00012ff8       $unwind$?x_ismbbtype_l@@YAHPEAU__crt_locale_pointers@@IHH@Z 000000018004aff8     libucrt:ismbbyte.obj
 0002:00013008       $unwind$_updatetlocinfoEx_nolock 000000018004b008     libucrt:locale_refcounting.obj
 0002:00013008       $unwind$?__SetUnwindTryBlock@@YAXPEA_KPEAU_xDISPATCHER_CONTEXT@@PEBU_s_FuncInfo@@H@Z 000000018004b008     libvcruntime:ehstate.obj
 0002:00013008       $unwind$__acrt_locale_initialize_time 000000018004b008     libucrt:inittime.obj
 0002:00013008       $unwind$?DloadAcquireSectionWriteAccess@@YAXXZ 000000018004b008     DelayImp:delayhlp.obj
 0002:00013008       $unwind$??_G?$numpunct@D@std@@MEAAPEAXI@Z 000000018004b008     node_report.obj
 0002:00013008       $unwind$??0?$basic_streambuf@DU?$char_traits@D@std@@@std@@IEAA@XZ 000000018004b008     node_report.obj
 0002:00013008       $unwind$_ungetc_nolock     000000018004b008     libucrt:ungetc.obj
 0002:00013008       $unwind$__vcrt_FlsGetValue 000000018004b008     libvcruntime:winapi_downlevel.obj
 0002:00013008       $unwind$__vcrt_FlsFree     000000018004b008     libvcruntime:winapi_downlevel.obj
 0002:00013008       $unwind$??0_LocaleUpdate@@QEAA@QEAU__crt_locale_pointers@@@Z 000000018004b008     libucrt:output.obj
 0002:00013008       $unwind$_close_nolock      000000018004b008     libucrt:close.obj
 0002:00013008       $unwind$__vcrt_FlsAlloc    000000018004b008     libvcruntime:winapi_downlevel.obj
 0002:00013008       $unwind$__acrt_uninitialize_lowio 000000018004b008     libucrt:ioinit.obj
 0002:00013008       $unwind$?force_decimal_point@__crt_stdio_output@@YAXPEADQEAU__crt_locale_pointers@@@Z 000000018004b008     libucrt:output.obj
 0002:00013008       $unwind$?_Initcvt@?$basic_filebuf@DU?$char_traits@D@std@@@std@@IEAAXPEBV?$codecvt@DDU_Mbstatet@@@2@@Z 000000018004b008     node_report.obj
 0002:00013008       $unwind$?_Assign_rv@?$basic_string@DU?$char_traits@D@std@@V?$allocator@D@2@@std@@QEAAX$$QEAV12@@Z 000000018004b008     node_report.obj
 0002:00013008       $unwind$??$common_initialize_environment_nolock@D@@YAHXZ 000000018004b008     libucrt:environment_initialization.obj
 0002:00013008       $unwind$?ExFilterRethrow@@YAHPEAU_EXCEPTION_POINTERS@@PEAUEHExceptionRecord@@PEAH@Z 000000018004b008     libvcruntime:frame.obj
 0002:00013008       $unwind$?erase@?$basic_string@DU?$char_traits@D@std@@V?$allocator@D@2@@std@@QEAAAEAV12@_K0@Z 000000018004b008     node_report.obj
 0002:00013008       $unwind$GetLocaleNameFromLangCountry 000000018004b008     libucrt:get_qualified_locale.obj
 0002:00013008       $unwind$GetLocaleNameFromLanguage 000000018004b008     libucrt:get_qualified_locale.obj
 0002:00013008       $unwind$?type_case_c_tchar@?$output_processor@DV?$stream_output_adapter@D@__crt_stdio_output@@V?$standard_base@DV?$stream_output_adapter@D@__crt_stdio_output@@@2@@__crt_stdio_output@@AEAA_ND@Z 000000018004b008     libucrt:output.obj
 0002:00013008       $unwind$??_Gbad_exception@std@@UEAAPEAXI@Z 000000018004b008     libvcruntime:frame.obj
 0002:00013008       $unwind$_realloc_base      000000018004b008     libucrt:realloc_base.obj
 0002:00013008       $unwind$??0sentry@?$basic_ostream@DU?$char_traits@D@std@@@std@@QEAA@AEAV12@@Z 000000018004b008     node_report.obj
 0002:00013008       $unwind$??_G?$basic_ios@DU?$char_traits@D@std@@@std@@UEAAPEAXI@Z 000000018004b008     node_report.obj
 0002:00013008       $unwind$??_Glocale@std@@QEAAPEAXI@Z 000000018004b008     node_report.obj
 0002:00013008       $unwind$??_G?$basic_ostream@DU?$char_traits@D@std@@@std@@UEAAPEAXI@Z 000000018004b008     node_report.obj
 0002:00013008       $unwind$??_G?$basic_filebuf@DU?$char_traits@D@std@@@std@@UEAAPEAXI@Z 000000018004b008     node_report.obj
 0002:00013008       $unwind$_FindAndUnlinkFrame 000000018004b008     libvcruntime:trnsctrl.obj
 0002:00013008       $unwind$_callnewh          000000018004b008     libucrt:new_handler.obj
 0002:00013008       $unwind$GetLcidFromLangCountry 000000018004b008     libucrt:getqloc_downlevel.obj
 0002:00013008       $unwind$GetLcidFromLanguage 000000018004b008     libucrt:getqloc_downlevel.obj
 0002:00013008       $unwind$?pbackfail@?$basic_filebuf@DU?$char_traits@D@std@@@std@@MEAAHH@Z 000000018004b008     node_report.obj
 0002:00013008       $unwind$__acrt_FlsAlloc    000000018004b008     libucrt:winapi_thunks.obj
 0002:00013008       $unwind$__acrt_FlsFree     000000018004b008     libucrt:winapi_thunks.obj
 0002:00013008       $unwind$__acrt_errno_map_os_error 000000018004b008     libucrt:errno.obj
 0002:00013008       $unwind$__acrt_FlsGetValue 000000018004b008     libucrt:winapi_thunks.obj
 0002:00013008       $unwind$__acrt_GetSystemTimePreciseAsFileTime 000000018004b008     libucrt:winapi_thunks.obj
 0002:00013008       $unwind$??_Gbad_array_new_length@std@@UEAAPEAXI@Z 000000018004b008     LIBCMT:throw_bad_alloc.obj
 0002:00013008       $unwind$?DloadGetSRWLockFunctionPointers@@YAEXZ 000000018004b008     DelayImp:delayhlp.obj
 0002:00013008       $unwind$__acrt_stdio_begin_temporary_buffering_nolock 000000018004b008     libucrt:_sftbuf.obj
 0002:00013008       $unwind$__acrt_IsValidLocaleName 000000018004b008     libucrt:winapi_thunks.obj
 0002:00013008       $unwind$??_Gios_base@std@@UEAAPEAXI@Z 000000018004b008     node_report.obj
 0002:00013008       $unwind$?_Tidy@ios_base@std@@AEAAXXZ 000000018004b008     node_report.obj
 0002:00013008       $unwind$_fclose_nolock     000000018004b008     libucrt:fclose.obj
 0002:00013008       $unwind$?ProcessNodeReportEvents@nodereport@@YAIPEBD@Z 000000018004b008     utilities.obj
 0002:00013008       $unwind$__acrt_invoke_user_matherr 000000018004b008     libucrt:matherr.obj
 0002:00013008       $unwind$??_Gout_of_range@std@@UEAAPEAXI@Z 000000018004b008     libcpmt:xthrow.obj
 0002:00013008       $unwind$??_Glength_error@std@@UEAAPEAXI@Z 000000018004b008     libcpmt:xthrow.obj
 0002:00013008       $unwind$__acrt_get_parent_window 000000018004b008     libucrt:winapi_thunks.obj
 0002:00013008       $unwind$??_Glogic_error@std@@UEAAPEAXI@Z 000000018004b008     libcpmt:xthrow.obj
 0002:00013008       $unwind$??_G?$ctype@D@std@@MEAAPEAXI@Z 000000018004b008     node_report.obj
 0002:00013008       $unwind$fgetpos            000000018004b008     libucrt:fgetpos.obj
 0002:00013008       $unwind$??_Gbad_alloc@std@@UEAAPEAXI@Z 000000018004b008     libcpmt:xthrow.obj
 0002:00013008       $unwind$?type_case_c_tchar@?$output_processor@DV?$string_output_adapter@D@__crt_stdio_output@@V?$standard_base@DV?$string_output_adapter@D@__crt_stdio_output@@@2@@__crt_stdio_output@@AEAA_ND@Z 000000018004b008     libucrt:output.obj
 0002:00013008       $unwind$?<helper_func_cdecl>@<lambda_e2bb8337c48846e80c921ea5ddadc92d>@@CAHPEA_W@Z 000000018004b008     libucrt:winapi_thunks.obj
 0002:00013008       $unwind$??1_Init_locks@std@@QEAA@XZ 000000018004b008     libcpmt:xlock.obj
 0002:00013008       $unwind$??1_Locinfo@std@@QEAA@XZ 000000018004b008     node_report.obj
 0002:00013008       $unwind$??_Gexception@std@@UEAAPEAXI@Z 000000018004b008     libcpmt:cout.obj
 0002:00013008       $unwind$??_G?$basic_ofstream@DU?$char_traits@D@std@@@std@@UEAAPEAXI@Z 000000018004b008     node_report.obj
 0002:00013008       $unwind$??_G?$basic_ostringstream@DU?$char_traits@D@std@@V?$allocator@D@2@@std@@UEAAPEAXI@Z 000000018004b008     module.obj
 0002:00013008       $unwind$_Deletegloballocale 000000018004b008     libcpmt:locale0.obj
 0002:00013008       $unwind$?try_cor_exit_process@@YAXI@Z 000000018004b008     libucrt:exit.obj
 0002:00013008       $unwind$??1?$basic_ostringstream@DU?$char_traits@D@std@@V?$allocator@D@2@@std@@UEAA@XZ 000000018004b008     module.obj
 0002:00013008       $unwind$?write_integer@?$input_processor@DV?$string_input_adapter@D@__crt_stdio_input@@@__crt_stdio_input@@AEAA_N_K_N@Z 000000018004b008     libucrt:input.obj
 0002:00013008       $unwind$?process_floating_point_specifier@?$input_processor@DV?$string_input_adapter@D@__crt_stdio_input@@@__crt_stdio_input@@AEAA_NXZ 000000018004b008     libucrt:input.obj
 0002:00013008       $unwind$?process_conversion_specifier@?$input_processor@DV?$string_input_adapter@D@__crt_stdio_input@@@__crt_stdio_input@@AEAA_NXZ 000000018004b008     libucrt:input.obj
 0002:00013008       $unwind$?_New_Locimp@_Locimp@locale@std@@CAPEAV123@_N@Z 000000018004b008     libcpmt:locale0.obj
 0002:00013008       $unwind$?process_literal_character_tchar@?$input_processor@DV?$string_input_adapter@D@__crt_stdio_input@@@__crt_stdio_input@@AEAA_ND@Z 000000018004b008     libucrt:input.obj
 0002:00013008       $unwind$?process_state@?$input_processor@DV?$string_input_adapter@D@__crt_stdio_input@@@__crt_stdio_input@@AEAA_NXZ 000000018004b008     libucrt:input.obj
 0002:00013008       $unwind$?_Locinfo_ctor@_Locinfo@std@@SAXPEAV12@PEBD@Z 000000018004b008     libcpmt:locale0.obj
 0002:00013008       $unwind$??$common_xtox@K_W@@YAHKQEA_W_KI_N@Z 000000018004b008     libucrt:xtoa.obj
 0002:00013008       $unwind$?replace_current_thread_locale_nolock@@YAXQEAU__acrt_ptd@@QEAU__crt_locale_data@@@Z 000000018004b008     libucrt:per_thread_data.obj
 0002:00013008       $unwind$?type_case_c_tchar@?$output_processor@DV?$string_output_adapter@D@__crt_stdio_output@@V?$format_validation_base@DV?$string_output_adapter@D@__crt_stdio_output@@@2@@__crt_stdio_output@@AEAA_ND@Z 000000018004b008     libucrt:output.obj
 0002:00013008       $unwind$strncpy_s          000000018004b008     libucrt:strncpy_s.obj
 0002:00013008       $unwind$__acrt_getptd      000000018004b008     libucrt:per_thread_data.obj
 0002:00013008       $unwind$wcsncpy_s          000000018004b008     libucrt:wcsncpy_s.obj
 0002:00013008       $unwind$wcsncat_s          000000018004b008     libucrt:wcsncat_s.obj
 0002:00013008       $unwind$?internal_isupper_l@@YA_NHQEAU__crt_locale_pointers@@@Z 000000018004b008     libucrt:tolower_toupper.obj
 0002:00013014       $unwind$?_Getcat@?$ctype@D@std@@SA_KPEAPEBVfacet@locale@2@PEBV42@@Z 000000018004b014     node_report.obj
 0002:00013024       $chain$0$?_Getcat@?$ctype@D@std@@SA_KPEAPEBVfacet@locale@2@PEBV42@@Z 000000018004b024     node_report.obj
 0002:00013038       $chain$1$?_Getcat@?$ctype@D@std@@SA_KPEAPEBVfacet@locale@2@PEBV42@@Z 000000018004b038     node_report.obj
 0002:00013048       $unwind$?type_case_c_tchar@?$output_processor@_WV?$string_output_adapter@_W@__crt_stdio_output@@V?$standard_base@_WV?$string_output_adapter@_W@__crt_stdio_output@@@2@@__crt_stdio_output@@AEAA_N_W@Z 000000018004b048     libucrt:output.obj
 0002:00013048       $unwind$ProcessCodePage    000000018004b048     libucrt:get_qualified_locale.obj
 0002:00013048       $unwind$?type_case_c_tchar@?$output_processor@_WV?$stream_output_adapter@_W@__crt_stdio_output@@V?$standard_base@_WV?$stream_output_adapter@_W@__crt_stdio_output@@@2@@__crt_stdio_output@@AEAA_N_W@Z 000000018004b048     libucrt:output.obj
 0002:00013048       $unwind$ProcessCodePage    000000018004b048     libucrt:getqloc_downlevel.obj
 0002:00013048       $unwind$TestDefaultLanguage 000000018004b048     libucrt:getqloc_downlevel.obj
 0002:00013048       $unwind$?do_tolower@?$ctype@D@std@@MEBAPEBDPEADPEBD@Z 000000018004b048     node_report.obj
 0002:00013048       $unwind$??R<lambda_b721fa326cdb32351d23dfa67958c160>@@QEBAHXZ 000000018004b048     libucrt:setvbuf.obj
 0002:00013048       $unwind$?truncate_ctrl_z_if_present@@YAHH@Z 000000018004b048     libucrt:open.obj
 0002:00013048       $unwind$?do_toupper@?$ctype@D@std@@MEBAPEBDPEADPEBD@Z 000000018004b048     node_report.obj
 0002:00013058       $chain$0$?do_tolower@?$ctype@D@std@@MEBAPEBDPEADPEBD@Z 000000018004b058     node_report.obj
 0002:0001306c       $chain$1$?do_tolower@?$ctype@D@std@@MEBAPEBDPEADPEBD@Z 000000018004b06c     node_report.obj
 0002:0001307c       $chain$0$?do_toupper@?$ctype@D@std@@MEBAPEBDPEADPEBD@Z 000000018004b07c     node_report.obj
 0002:00013090       $chain$1$?do_toupper@?$ctype@D@std@@MEBAPEBDPEADPEBD@Z 000000018004b090     node_report.obj
 0002:000130a0       $unwind$??0length_error@std@@QEAA@PEBD@Z 000000018004b0a0     libcpmt:xthrow.obj
 0002:000130a0       $unwind$wcstol             000000018004b0a0     libucrt:strtox.obj
 0002:000130a0       $unwind$strtol             000000018004b0a0     libucrt:strtox.obj
 0002:000130a0       $unwind$?equivalent@error_category@std@@UEBA_NHAEBVerror_condition@2@@Z 000000018004b0a0     node_report.obj
 0002:000130a0       $unwind$?OnUncaughtException@nodereport@@YA_NPEAVIsolate@v8@@@Z 000000018004b0a0     module.obj
 0002:000130a0       $unwind$??$common_xtox_s@K_W@@YAHKQEA_W_KI_N@Z 000000018004b0a0     libucrt:xtoa.obj
 0002:000130a0       $unwind$__stdio_common_vsprintf_s 000000018004b0a0     libucrt:output.obj
 0002:000130a0       $unwind$?flush@?$basic_ostream@DU?$char_traits@D@std@@@std@@QEAAAEAV12@XZ 000000018004b0a0     node_report.obj
 0002:000130a0       $unwind$??0out_of_range@std@@QEAA@PEBD@Z 000000018004b0a0     libcpmt:xthrow.obj
 0002:000130a0       $unwind$strtoull           000000018004b0a0     libucrt:strtox.obj
 0002:000130a0       $unwind$_time64            000000018004b0a0     libucrt:time.obj
 0002:000130a8       $unwind$??0_System_error@std@@IEAA@Verror_code@1@AEBV?$basic_string@DU?$char_traits@D@std@@V?$allocator@D@2@@1@@Z 000000018004b0a8     node_report.obj
 0002:000130c4       $unwind$?clear@ios_base@std@@QEAAXH_N@Z 000000018004b0c4     node_report.obj
 0002:000130d8       $chain$0$?clear@ios_base@std@@QEAAXH_N@Z 000000018004b0d8     node_report.obj
 0002:000130ec       $chain$1$?clear@ios_base@std@@QEAAXH_N@Z 000000018004b0ec     node_report.obj
 0002:000130fc       $chain$2$?clear@ios_base@std@@QEAAXH_N@Z 000000018004b0fc     node_report.obj
 0002:00013110       $unwind$?copyfmt@ios_base@std@@QEAAAEAV12@AEBV12@@Z 000000018004b110     node_report.obj
 0002:0001311c       $chain$0$?copyfmt@ios_base@std@@QEAAAEAV12@AEBV12@@Z 000000018004b11c     node_report.obj
 0002:00013130       $chain$2$?copyfmt@ios_base@std@@QEAAAEAV12@AEBV12@@Z 000000018004b130     node_report.obj
 0002:00013148       $chain$3$?copyfmt@ios_base@std@@QEAAAEAV12@AEBV12@@Z 000000018004b148     node_report.obj
 0002:00013158       $chain$4$?copyfmt@ios_base@std@@QEAAAEAV12@AEBV12@@Z 000000018004b158     node_report.obj
 0002:00013168       $unwind$??0Utf8String@Nan@@QEAA@V?$Local@VValue@v8@@@v8@@@Z 000000018004b168     node_report.obj
 0002:00013168       $unwind$?ThrowError@Nan@@YAXPEBD@Z 000000018004b168     module.obj
 0002:00013170       $chain$0$??0Utf8String@Nan@@QEAA@V?$Local@VValue@v8@@@v8@@@Z 000000018004b170     node_report.obj
 0002:00013184       $chain$1$??0Utf8String@Nan@@QEAA@V?$Local@VValue@v8@@@v8@@@Z 000000018004b184     node_report.obj
 0002:00013194       $unwind$__pctype_func      000000018004b194     libucrt:ctype.obj
 0002:00013194       $unwind$__scrt_acquire_startup_lock 000000018004b194     LIBCMT:utility.obj
 0002:00013194       $unwind$_wcsnicmp          000000018004b194     libucrt:wcsnicmp.obj
 0002:00013194       $unwind$?allocate@?$allocator@D@std@@QEAAPEAD_K@Z 000000018004b194     node_report.obj
 0002:00013194       $unwind$__acrt_initialize_multibyte 000000018004b194     libucrt:mbctype.obj
 0002:00013194       $unwind$atexit             000000018004b194     LIBCMT:utility.obj
 0002:00013194       $unwind$??__Ecerr@std@@YAXXZ 000000018004b194     libcpmt:cerr.obj
 0002:00013194       $unwind$_get_fmode         000000018004b194     libucrt:setmode.obj
 0002:00013194       $unwind$__acrt_release_locale_ref 000000018004b194     libucrt:locale_refcounting.obj
 0002:00013194       $unwind$?dllmain_crt_dispatch@@YAHQEAUHINSTANCE__@@KQEAX@Z 000000018004b194     LIBCMT:dll_dllmain.obj
 0002:00013194       $unwind$?state_case_size@?$output_processor@_WV?$stream_output_adapter@_W@__crt_stdio_output@@V?$standard_base@_WV?$stream_output_adapter@_W@__crt_stdio_output@@@2@@__crt_stdio_output@@AEAA_NXZ 000000018004b194     libucrt:output.obj
 0002:00013194       $unwind$_msize             000000018004b194     libucrt:msize.obj
 0002:00013194       $unwind$__doserrno         000000018004b194     libucrt:errno.obj
 0002:00013194       $unwind$?validate_stream_is_ansi_if_required@?$__acrt_stdio_char_traits@D@@SA_NQEAU_iobuf@@@Z 000000018004b194     libucrt:output.obj
 0002:00013194       $unwind$___mb_cur_max_func 000000018004b194     libucrt:initctype.obj
 0002:00013194       $unwind$_set_errno_from_matherr 000000018004b194     libucrt:fpexcept.obj
 0002:00013194       $unwind$??__Einitlocks@std@@YAXXZ 000000018004b194     libcpmt:iosptrs.obj
 0002:00013194       $unwind$_errno             000000018004b194     libucrt:errno.obj
 0002:00013194       $unwind$_invoke_watson     000000018004b194     libucrt:invalid_parameter.obj
 0002:00013194       $unwind$_set_error_mode    000000018004b194     libucrt:set_error_mode.obj
 0002:00013194       $unwind$__vcrt_freefls     000000018004b194     libvcruntime:per_thread_data.obj
 0002:00013194       $unwind$?__scrt_uninitialize_thread_safe_statics@@YAXXZ 000000018004b194     LIBCMT:thread_safe_statics.obj
 0002:00013194       $unwind$___lc_locale_name_func 000000018004b194     libucrt:initctype.obj
 0002:00013194       $unwind$abort              000000018004b194     libucrt:abort.obj
 0002:00013194       $unwind$__acrt_initialize_command_line 000000018004b194     libucrt:argv_data.obj
 0002:00013194       $unwind$??__Einitlocks@@YAXXZ 000000018004b194     libcpmt:cerr.obj
 0002:00013194       $unwind$__acrt_initialize_heap 000000018004b194     libucrt:heap_handle.obj
 0002:00013194       $unwind$?initialize_multibyte@@YAHXZ 000000018004b194     libucrt:multibyte_initializer.obj
 0002:00013194       $unwind$__vcrt_getptd      000000018004b194     libvcruntime:per_thread_data.obj
 0002:00013194       $unwind$__acrt_uninitialize_critical 000000018004b194     libucrt:initialization.obj
 0002:00013194       $unwind$__vcrt_uninitialize_ptd 000000018004b194     libvcruntime:per_thread_data.obj
 0002:00013194       $unwind$?state_case_normal_tchar@?$output_processor@DV?$string_output_adapter@D@__crt_stdio_output@@V?$format_validation_base@DV?$string_output_adapter@D@__crt_stdio_output@@@2@@__crt_stdio_output@@AEAA_ND@Z 000000018004b194     libucrt:output.obj
 0002:00013194       $unwind$??__F_Fac_tidy_reg@std@@YAXXZ 000000018004b194     libcpmt:locale0.obj
 0002:00013194       $unwind$__acrt_uninitialize_ptd 000000018004b194     libucrt:per_thread_data.obj
 0002:00013194       $unwind$?state_case_size@?$output_processor@_WV?$string_output_adapter@_W@__crt_stdio_output@@V?$standard_base@_WV?$string_output_adapter@_W@__crt_stdio_output@@@2@@__crt_stdio_output@@AEAA_NXZ 000000018004b194     libucrt:output.obj
 0002:00013194       $unwind$__vcrt_initialize_ptd 000000018004b194     libvcruntime:per_thread_data.obj
 0002:00013194       $unwind$?_Locinfo_dtor@_Locinfo@std@@SAXPEAV12@@Z 000000018004b194     libcpmt:locale0.obj
 0002:00013194       $unwind$??$_Immortalize@V_Iostream_error_category@std@@@std@@YAAEAV_Iostream_error_category@0@XZ 000000018004b194     node_report.obj
 0002:00013194       $unwind$_get_osfhandle     000000018004b194     libucrt:osfinfo.obj
 0002:00013194       $unwind$___lc_codepage_func 000000018004b194     libucrt:initctype.obj
 0002:00013194       $unwind$??__Ecout@std@@YAXXZ 000000018004b194     libcpmt:cout.obj
 0002:00013194       $unwind$fegetround         000000018004b194     libucrt:fegetround.obj
 0002:00013194       $unwind$_get_stream_buffer_pointers 000000018004b194     libucrt:_file.obj
 0002:00013194       $unwind$__acrt_can_use_vista_locale_apis 000000018004b194     libucrt:winapi_thunks.obj
 0002:00013194       $unwind$_GetThrowImageBase 000000018004b194     libvcruntime:trnsctrl.obj
 0002:00013194       $unwind$__dcrt_uninitialize_environments_nolock 000000018004b194     libucrt:environment_initialization.obj
 0002:00013194       $unwind$__vcrt_thread_detach 000000018004b194     libvcruntime:initialization.obj
 0002:00013194       $unwind$__crtDownlevelLocaleNameToLCID 000000018004b194     libcpmt:winapinls.obj
 0002:00013194       $unwind$?state_case_size@?$output_processor@DV?$string_output_adapter@D@__crt_stdio_output@@V?$format_validation_base@DV?$string_output_adapter@D@__crt_stdio_output@@@2@@__crt_stdio_output@@AEAA_NXZ 000000018004b194     libucrt:output.obj
 0002:00013194       $unwind$__vcrt_thread_attach 000000018004b194     libvcruntime:initialization.obj
 0002:00013194       $unwind$??$uninitialize_environment_internal@D@@YAXAEAPEAPEAD@Z 000000018004b194     libucrt:environment_initialization.obj
 0002:00013194       $unwind$__vcrt_uninitialize_critical 000000018004b194     libvcruntime:initialization.obj
 0002:00013194       $unwind$??$uninitialize_environment_internal@_W@@YAXAEAPEAPEA_W@Z 000000018004b194     libucrt:environment_initialization.obj
 0002:00013194       $unwind$_stricmp           000000018004b194     libucrt:stricmp.obj
 0002:00013194       $unwind$__scrt_dllmain_crt_thread_attach 000000018004b194     LIBCMT:utility.obj
 0002:00013194       $unwind$?deallocate@?$allocator@D@std@@QEAAXPEAD_K@Z 000000018004b194     node_report.obj
 0002:00013194       $unwind$__vcrt_initialize  000000018004b194     libvcruntime:initialization.obj
 0002:00013194       $unwind$__vcrt_uninitialize 000000018004b194     libvcruntime:initialization.obj
 0002:00013194       $unwind$_statfp            000000018004b194     libucrt:fpctrl.obj
 0002:00013194       $unwind$__scrt_initialize_default_local_stdio_options 000000018004b194     LIBCMT:default_local_stdio_options.obj
 0002:00013194       $unwind$??__Einitlocks@@YAXXZ 000000018004b194     libcpmt:cout.obj
 0002:00013194       $unwind$_copytlocinfo_nolock 000000018004b194     libucrt:wsetlocale.obj
 0002:00013194       $unwind$tidy_global        000000018004b194     libcpmt:locale0.obj
 0002:00013194       $unwind$?_Atexit@@YAXP6AXXZ@Z 000000018004b194     libcpmt:iosptrs.obj
 0002:00013194       $unwind$?state_case_normal_tchar@?$output_processor@DV?$string_output_adapter@D@__crt_stdio_output@@V?$standard_base@DV?$string_output_adapter@D@__crt_stdio_output@@@2@@__crt_stdio_output@@AEAA_ND@Z 000000018004b194     libucrt:output.obj
 0002:00013194       $unwind$_isatty            000000018004b194     libucrt:isatty.obj
 0002:00013194       $unwind$__dcrt_terminate_console_output 000000018004b194     libucrt:initcon.obj
 0002:00013194       $unwind$__scrt_dllmain_crt_thread_detach 000000018004b194     LIBCMT:utility.obj
 0002:00013194       $unwind$_strnicmp          000000018004b194     libucrt:strnicmp.obj
 0002:00013194       $unwind$_fgetc_nolock      000000018004b194     libucrt:fgetc.obj
 0002:00013194       $unwind$localeconv         000000018004b194     libucrt:localeconv.obj
 0002:00013194       $unwind$__scrt_dllmain_before_initialize_c 000000018004b194     LIBCMT:utility.obj
 0002:00013194       $unwind$_getfpcontrolword  000000018004b194     libucrt:_fenvutils.obj
 0002:00013194       $unwind$_getfpstatusword   000000018004b194     libucrt:_fenvutils.obj
 0002:00013194       $unwind$__acrt_thread_attach 000000018004b194     libucrt:initialization.obj
 0002:00013194       $unwind$?state_case_size@?$output_processor@DV?$stream_output_adapter@D@__crt_stdio_output@@V?$standard_base@DV?$stream_output_adapter@D@__crt_stdio_output@@@2@@__crt_stdio_output@@AEAA_NXZ 000000018004b194     libucrt:output.obj
 0002:00013194       $unwind$__std_terminate    000000018004b194     libvcruntime:frame.obj
 0002:00013194       $unwind$uninitialize_environment 000000018004b194     libucrt:initialization.obj
 0002:00013194       $unwind$fsetpos            000000018004b194     libucrt:fsetpos.obj
 0002:00013194       $unwind$__report_rangecheckfailure 000000018004b194     LIBCMT:gs_report.obj
 0002:00013194       $unwind$__scrt_dllmain_after_initialize_c 000000018004b194     LIBCMT:utility.obj
 0002:00013194       $unwind$__acrt_thread_detach 000000018004b194     libucrt:initialization.obj
 0002:00013194       $unwind$__acrt_initialize_ptd 000000018004b194     libucrt:per_thread_data.obj
 0002:00013194       $unwind$?state_case_size@?$output_processor@DV?$string_output_adapter@D@__crt_stdio_output@@V?$standard_base@DV?$string_output_adapter@D@__crt_stdio_output@@@2@@__crt_stdio_output@@AEAA_NXZ 000000018004b194     libucrt:output.obj
 0002:00013194       $unwind$??__Ecommandline_string@nodereport@@YAXXZ 000000018004b194     node_report.obj
 0002:00013194       $unwind$??1_Lockit@std@@QEAA@XZ 000000018004b194     libcpmt:xlock.obj
 0002:00013194       $unwind$_GetImageBase      000000018004b194     libvcruntime:trnsctrl.obj
 0002:00013194       $unwind$__GSHandlerCheck   000000018004b194     LIBCMT:_gshandler_.obj
 0002:00013194       $unwind$??__Eversion_string@nodereport@@YAXXZ 000000018004b194     node_report.obj
 0002:00013194       $unwind$__scrt_dllmain_uninitialize_c 000000018004b194     LIBCMT:utility.obj
 0002:00013194       $unwind$?ProcessNodeReportFileName@nodereport@@YAXPEBD@Z 000000018004b194     utilities.obj
 0002:00013194       $unwind$__FrameUnwindFilter 000000018004b194     libvcruntime:frame.obj
 0002:00013194       $unwind$??__Einitlocks@std@@YAXXZ 000000018004b194     libcpmt:xlock.obj
 0002:00013194       $unwind$__acrt_DownlevelLocaleNameToLCID 000000018004b194     libucrt:lcidtoname_downlevel.obj
 0002:00013194       $unwind$__scrt_dllmain_uninitialize_critical 000000018004b194     LIBCMT:utility.obj
 0002:00013194       $unwind$tolower            000000018004b194     libucrt:tolower_toupper.obj
 0002:00013194       $unwind$initialize_c       000000018004b194     libucrt:initialization.obj
 0002:00013194       $unwind$?__GetCurrentState@@YAHPEA_KPEAU_xDISPATCHER_CONTEXT@@PEBU_s_FuncInfo@@@Z 000000018004b194     libvcruntime:ehstate.obj
 0002:00013194       $unwind$_fileno            000000018004b194     libucrt:fileno.obj
 0002:00013194       $unwind$_wcsicmp           000000018004b194     libucrt:wcsicmp.obj
 0002:00013194       $unwind$?ProcessNodeReportDirectory@nodereport@@YAXPEBD@Z 000000018004b194     utilities.obj
 0002:0001319c       $unwind$?TriggerNodeReport@nodereport@@YAXPEAVIsolate@v8@@W4DumpEvent@1@PEBD2PEADV?$MaybeLocal@VValue@v8@@@3@@Z 000000018004b19c     node_report.obj
 0002:000131b4       $chain$3$?TriggerNodeReport@nodereport@@YAXPEAVIsolate@v8@@W4DumpEvent@1@PEBD2PEADV?$MaybeLocal@VValue@v8@@@3@@Z 000000018004b1b4     node_report.obj
 0002:000131d4       $chain$4$?TriggerNodeReport@nodereport@@YAXPEAVIsolate@v8@@W4DumpEvent@1@PEBD2PEADV?$MaybeLocal@VValue@v8@@@3@@Z 000000018004b1d4     node_report.obj
 0002:000131e4       $unwind$?WriteNodeReport@nodereport@@YAXPEAVIsolate@v8@@W4DumpEvent@1@PEBD2PEADAEAV?$basic_ostream@DU?$char_traits@D@std@@@std@@V?$MaybeLocal@VValue@v8@@@3@PEAU_SYSTEMTIME@@@Z 000000018004b1e4     node_report.obj
 0002:00013208       $unwind$?PrintVersionInformation@nodereport@@YAXAEAV?$basic_ostream@DU?$char_traits@D@std@@@std@@@Z 000000018004b208     node_report.obj
 0002:00013220       $unwind$?PrintJavaScriptErrorStack@nodereport@@YAXAEAV?$basic_ostream@DU?$char_traits@D@std@@@std@@PEAVIsolate@v8@@V?$MaybeLocal@VValue@v8@@@5@@Z 000000018004b220     node_report.obj
 0002:00013234       $chain$0$?PrintJavaScriptErrorStack@nodereport@@YAXAEAV?$basic_ostream@DU?$char_traits@D@std@@@std@@PEAVIsolate@v8@@V?$MaybeLocal@VValue@v8@@@5@@Z 000000018004b234     node_report.obj
 0002:00013248       $chain$1$?PrintJavaScriptErrorStack@nodereport@@YAXAEAV?$basic_ostream@DU?$char_traits@D@std@@@std@@PEAVIsolate@v8@@V?$MaybeLocal@VValue@v8@@@5@@Z 000000018004b248     node_report.obj
 0002:00013258       $unwind$?PrintStackFromStackTrace@nodereport@@YAXAEAV?$basic_ostream@DU?$char_traits@D@std@@@std@@PEAVIsolate@v8@@W4DumpEvent@1@@Z 000000018004b258     node_report.obj
 0002:00013270       $chain$0$?PrintStackFromStackTrace@nodereport@@YAXAEAV?$basic_ostream@DU?$char_traits@D@std@@@std@@PEAVIsolate@v8@@W4DumpEvent@1@@Z 000000018004b270     node_report.obj
 0002:00013284       $chain$1$?PrintStackFromStackTrace@nodereport@@YAXAEAV?$basic_ostream@DU?$char_traits@D@std@@@std@@PEAVIsolate@v8@@W4DumpEvent@1@@Z 000000018004b284     node_report.obj
 0002:00013298       $chain$2$?PrintStackFromStackTrace@nodereport@@YAXAEAV?$basic_ostream@DU?$char_traits@D@std@@@std@@PEAVIsolate@v8@@W4DumpEvent@1@@Z 000000018004b298     node_report.obj
 0002:000132a8       $chain$3$?PrintStackFromStackTrace@nodereport@@YAXAEAV?$basic_ostream@DU?$char_traits@D@std@@@std@@PEAVIsolate@v8@@W4DumpEvent@1@@Z 000000018004b2a8     node_report.obj
 0002:000132b8       $unwind$?PrintStackFrame@nodereport@@YAXAEAV?$basic_ostream@DU?$char_traits@D@std@@@std@@PEAVIsolate@v8@@V?$Local@VStackFrame@v8@@@5@HPEAX@Z 000000018004b2b8     node_report.obj
 0002:000132d8       $unwind$?PrintNativeStack@nodereport@@YAXAEAV?$basic_ostream@DU?$char_traits@D@std@@@std@@@Z 000000018004b2d8     node_report.obj
 0002:000132f4       $chain$1$?PrintNativeStack@nodereport@@YAXAEAV?$basic_ostream@DU?$char_traits@D@std@@@std@@@Z 000000018004b2f4     node_report.obj
 0002:0001330c       $chain$2$?PrintNativeStack@nodereport@@YAXAEAV?$basic_ostream@DU?$char_traits@D@std@@@std@@@Z 000000018004b30c     node_report.obj
 0002:0001331c       $unwind$?PrintGCStatistics@nodereport@@YAXAEAV?$basic_ostream@DU?$char_traits@D@std@@@std@@PEAVIsolate@v8@@@Z 000000018004b31c     node_report.obj
 0002:00013330       $chain$0$?PrintGCStatistics@nodereport@@YAXAEAV?$basic_ostream@DU?$char_traits@D@std@@@std@@PEAVIsolate@v8@@@Z 000000018004b330     node_report.obj
 0002:00013344       $chain$1$?PrintGCStatistics@nodereport@@YAXAEAV?$basic_ostream@DU?$char_traits@D@std@@@std@@PEAVIsolate@v8@@@Z 000000018004b344     node_report.obj
 0002:00013354       $unwind$?PrintSystemInformation@nodereport@@YAXAEAV?$basic_ostream@DU?$char_traits@D@std@@@std@@PEAVIsolate@v8@@@Z 000000018004b354     node_report.obj
 0002:00013360       $chain$0$?PrintSystemInformation@nodereport@@YAXAEAV?$basic_ostream@DU?$char_traits@D@std@@@std@@PEAVIsolate@v8@@@Z 000000018004b360     node_report.obj
 0002:00013374       $chain$1$?PrintSystemInformation@nodereport@@YAXAEAV?$basic_ostream@DU?$char_traits@D@std@@@std@@PEAVIsolate@v8@@@Z 000000018004b374     node_report.obj
 0002:00013384       $unwind$?PrintLoadedLibraries@nodereport@@YAXAEAV?$basic_ostream@DU?$char_traits@D@std@@@std@@PEAVIsolate@v8@@@Z 000000018004b384     node_report.obj
 0002:00013398       $chain$1$?PrintLoadedLibraries@nodereport@@YAXAEAV?$basic_ostream@DU?$char_traits@D@std@@@std@@PEAVIsolate@v8@@@Z 000000018004b398     node_report.obj
 0002:000133b0       $chain$2$?PrintLoadedLibraries@nodereport@@YAXAEAV?$basic_ostream@DU?$char_traits@D@std@@@std@@PEAVIsolate@v8@@@Z 000000018004b3b0     node_report.obj
 0002:000133c4       $chain$3$?PrintLoadedLibraries@nodereport@@YAXAEAV?$basic_ostream@DU?$char_traits@D@std@@@std@@PEAVIsolate@v8@@@Z 000000018004b3c4     node_report.obj
 0002:000133d4       $chain$4$?PrintLoadedLibraries@nodereport@@YAXAEAV?$basic_ostream@DU?$char_traits@D@std@@@std@@PEAVIsolate@v8@@@Z 000000018004b3d4     node_report.obj
 0002:000133e4       $unwind$??0?$basic_ofstream@DU?$char_traits@D@std@@@std@@QEAA@XZ 000000018004b3e4     node_report.obj
 0002:000133f8       $unwind$?seekpos@?$basic_filebuf@DU?$char_traits@D@std@@@std@@MEAA?AV?$fpos@U_Mbstatet@@@2@V32@H@Z 000000018004b3f8     node_report.obj
 0002:0001340c       $unwind$?seekoff@?$basic_filebuf@DU?$char_traits@D@std@@@std@@MEAA?AV?$fpos@U_Mbstatet@@@2@_JHH@Z 000000018004b40c     node_report.obj
 0002:00013420       $unwind$?uflow@?$basic_filebuf@DU?$char_traits@D@std@@@std@@MEAAHXZ 000000018004b420     node_report.obj
 0002:00013434       $chain$0$?uflow@?$basic_filebuf@DU?$char_traits@D@std@@@std@@MEAAHXZ 000000018004b434     node_report.obj
 0002:00013448       $chain$4$?uflow@?$basic_filebuf@DU?$char_traits@D@std@@@std@@MEAAHXZ 000000018004b448     node_report.obj
 0002:00013468       $chain$5$?uflow@?$basic_filebuf@DU?$char_traits@D@std@@@std@@MEAAHXZ 000000018004b468     node_report.obj
 0002:00013478       $chain$6$?uflow@?$basic_filebuf@DU?$char_traits@D@std@@@std@@MEAAHXZ 000000018004b478     node_report.obj
 0002:00013488       $chain$7$?uflow@?$basic_filebuf@DU?$char_traits@D@std@@@std@@MEAAHXZ 000000018004b488     node_report.obj
 0002:000134ac       $chain$0$?underflow@?$basic_filebuf@DU?$char_traits@D@std@@@std@@MEAAHXZ 000000018004b4ac     node_report.obj
 0002:000134c0       $chain$2$?underflow@?$basic_filebuf@DU?$char_traits@D@std@@@std@@MEAAHXZ 000000018004b4c0     node_report.obj
 0002:000134d4       $unwind$?overflow@?$basic_filebuf@DU?$char_traits@D@std@@@std@@MEAAHH@Z 000000018004b4d4     node_report.obj
 0002:000134ec       $chain$0$?overflow@?$basic_filebuf@DU?$char_traits@D@std@@@std@@MEAAHH@Z 000000018004b4ec     node_report.obj
 0002:00013500       $chain$3$?overflow@?$basic_filebuf@DU?$char_traits@D@std@@@std@@MEAAHH@Z 000000018004b500     node_report.obj
 0002:0001351c       $chain$4$?overflow@?$basic_filebuf@DU?$char_traits@D@std@@@std@@MEAAHH@Z 000000018004b51c     node_report.obj
 0002:0001352c       $chain$5$?overflow@?$basic_filebuf@DU?$char_traits@D@std@@@std@@MEAAHH@Z 000000018004b52c     node_report.obj
 0002:0001353c       $chain$6$?overflow@?$basic_filebuf@DU?$char_traits@D@std@@@std@@MEAAHH@Z 000000018004b53c     node_report.obj
 0002:0001355c       $unwind$??6?$basic_ostream@DU?$char_traits@D@std@@@std@@QEAAAEAV01@_K@Z 000000018004b55c     node_report.obj
 0002:0001355c       $unwind$??6?$basic_ostream@DU?$char_traits@D@std@@@std@@QEAAAEAV01@PEBX@Z 000000018004b55c     utilities.obj
 0002:0001355c       $unwind$??6?$basic_ostream@DU?$char_traits@D@std@@@std@@QEAAAEAV01@K@Z 000000018004b55c     node_report.obj
 0002:0001355c       $unwind$??6?$basic_ostream@DU?$char_traits@D@std@@@std@@QEAAAEAV01@H@Z 000000018004b55c     node_report.obj
 0002:00013564       $chain$1$??6?$basic_ostream@DU?$char_traits@D@std@@@std@@QEAAAEAV01@_K@Z 000000018004b564     node_report.obj
 0002:0001357c       $chain$3$??6?$basic_ostream@DU?$char_traits@D@std@@@std@@QEAAAEAV01@_K@Z 000000018004b57c     node_report.obj
 0002:00013594       $chain$4$??6?$basic_ostream@DU?$char_traits@D@std@@@std@@QEAAAEAV01@_K@Z 000000018004b594     node_report.obj
 0002:000135a8       $chain$5$??6?$basic_ostream@DU?$char_traits@D@std@@@std@@QEAAAEAV01@_K@Z 000000018004b5a8     node_report.obj
 0002:000135b8       $chain$6$??6?$basic_ostream@DU?$char_traits@D@std@@@std@@QEAAAEAV01@_K@Z 000000018004b5b8     node_report.obj
 0002:000135cc       $chain$7$??6?$basic_ostream@DU?$char_traits@D@std@@@std@@QEAAAEAV01@_K@Z 000000018004b5cc     node_report.obj
 0002:000135dc       $chain$1$??6?$basic_ostream@DU?$char_traits@D@std@@@std@@QEAAAEAV01@K@Z 000000018004b5dc     node_report.obj
 0002:000135f4       $chain$3$??6?$basic_ostream@DU?$char_traits@D@std@@@std@@QEAAAEAV01@K@Z 000000018004b5f4     node_report.obj
 0002:0001360c       $chain$4$??6?$basic_ostream@DU?$char_traits@D@std@@@std@@QEAAAEAV01@K@Z 000000018004b60c     node_report.obj
 0002:00013620       $chain$5$??6?$basic_ostream@DU?$char_traits@D@std@@@std@@QEAAAEAV01@K@Z 000000018004b620     node_report.obj
 0002:00013630       $chain$6$??6?$basic_ostream@DU?$char_traits@D@std@@@std@@QEAAAEAV01@K@Z 000000018004b630     node_report.obj
 0002:00013644       $chain$7$??6?$basic_ostream@DU?$char_traits@D@std@@@std@@QEAAAEAV01@K@Z 000000018004b644     node_report.obj
 0002:00013654       $chain$1$??6?$basic_ostream@DU?$char_traits@D@std@@@std@@QEAAAEAV01@H@Z 000000018004b654     node_report.obj
 0002:0001366c       $chain$3$??6?$basic_ostream@DU?$char_traits@D@std@@@std@@QEAAAEAV01@H@Z 000000018004b66c     node_report.obj
 0002:00013684       $chain$4$??6?$basic_ostream@DU?$char_traits@D@std@@@std@@QEAAAEAV01@H@Z 000000018004b684     node_report.obj
 0002:00013698       $chain$5$??6?$basic_ostream@DU?$char_traits@D@std@@@std@@QEAAAEAV01@H@Z 000000018004b698     node_report.obj
 0002:000136a8       $chain$6$??6?$basic_ostream@DU?$char_traits@D@std@@@std@@QEAAAEAV01@H@Z 000000018004b6a8     node_report.obj
 0002:000136bc       $chain$7$??6?$basic_ostream@DU?$char_traits@D@std@@@std@@QEAAAEAV01@H@Z 000000018004b6bc     node_report.obj
 0002:000136cc       $unwind$?xsputn@?$basic_streambuf@DU?$char_traits@D@std@@@std@@MEAA_JPEBD_J@Z 000000018004b6cc     node_report.obj
 0002:000136cc       $unwind$?xsgetn@?$basic_streambuf@DU?$char_traits@D@std@@@std@@MEAA_JPEAD_J@Z 000000018004b6cc     node_report.obj
 0002:000136e0       $chain$0$?xsputn@?$basic_streambuf@DU?$char_traits@D@std@@@std@@MEAA_JPEBD_J@Z 000000018004b6e0     node_report.obj
 0002:000136f4       $chain$1$?xsputn@?$basic_streambuf@DU?$char_traits@D@std@@@std@@MEAA_JPEBD_J@Z 000000018004b6f4     node_report.obj
 0002:00013704       $chain$0$?xsgetn@?$basic_streambuf@DU?$char_traits@D@std@@@std@@MEAA_JPEAD_J@Z 000000018004b704     node_report.obj
 0002:00013718       $chain$1$?xsgetn@?$basic_streambuf@DU?$char_traits@D@std@@@std@@MEAA_JPEAD_J@Z 000000018004b718     node_report.obj
 0002:00013728       $unwind$?type_case_s@?$output_processor@_WV?$string_output_adapter@_W@__crt_stdio_output@@V?$standard_base@_WV?$string_output_adapter@_W@__crt_stdio_output@@@2@@__crt_stdio_output@@AEAA_NXZ 000000018004b728     libucrt:output.obj
 0002:00013728       $unwind$_DllMainCRTStartup 000000018004b728     LIBCMT:dll_dllmain.obj
 0002:00013728       $unwind$??$common_lseek_nolock@_J@@YA_JH_JH@Z 000000018004b728     libucrt:lseek.obj
 0002:00013728       $unwind$__acrt_GetUserDefaultLocaleName 000000018004b728     libucrt:winapi_thunks.obj
 0002:00013728       $unwind$??_G?$basic_stringbuf@DU?$char_traits@D@std@@V?$allocator@D@2@@std@@UEAAPEAXI@Z 000000018004b728     module.obj
 0002:00013728       $unwind$?type_case_n@?$output_processor@DV?$string_output_adapter@D@__crt_stdio_output@@V?$standard_base@DV?$string_output_adapter@D@__crt_stdio_output@@@2@@__crt_stdio_output@@AEAA_NXZ 000000018004b728     libucrt:output.obj
 0002:00013728       $unwind$?type_case_s@?$output_processor@DV?$string_output_adapter@D@__crt_stdio_output@@V?$standard_base@DV?$string_output_adapter@D@__crt_stdio_output@@@2@@__crt_stdio_output@@AEAA_NXZ 000000018004b728     libucrt:output.obj
 0002:00013728       $unwind$?process_string_specifier@?$input_processor@DV?$string_input_adapter@D@__crt_stdio_input@@@__crt_stdio_input@@AEAA_NW4conversion_mode@2@@Z 000000018004b728     libucrt:input.obj
 0002:00013728       $unwind$?type_case_n@?$output_processor@DV?$string_output_adapter@D@__crt_stdio_output@@V?$format_validation_base@DV?$string_output_adapter@D@__crt_stdio_output@@@2@@__crt_stdio_output@@AEAA_NXZ 000000018004b728     libucrt:output.obj
 0002:00013728       $unwind$?type_case_s@?$output_processor@DV?$stream_output_adapter@D@__crt_stdio_output@@V?$standard_base@DV?$stream_output_adapter@D@__crt_stdio_output@@@2@@__crt_stdio_output@@AEAA_NXZ 000000018004b728     libucrt:output.obj
 0002:00013728       $unwind$__acrt_stdio_flush_and_write_wide_nolock 000000018004b728     libucrt:_flsbuf.obj
 0002:00013728       $unwind$_RTC_Terminate     000000018004b728     LIBCMT:_initsect_.obj
 0002:00013728       $unwind$_Getcvt            000000018004b728     libcpmt:xwctomb.obj
 0002:00013728       $unwind$??4?$_Yarn@D@std@@QEAAAEAV01@PEBD@Z 000000018004b728     libcpmt:locale0.obj
 0002:00013728       $unwind$?free_crt_array_internal@@YAXQEAPEBX_K@Z 000000018004b728     libucrt:inittime.obj
 0002:00013728       $unwind$_initterm_e        000000018004b728     libucrt:initterm.obj
 0002:00013728       $unwind$?process@?$input_processor@DV?$string_input_adapter@D@__crt_stdio_input@@@__crt_stdio_input@@QEAAHXZ 000000018004b728     libucrt:input.obj
 0002:00013728       $unwind$??$common_getenv_nolock@D@@YAPEADQEBD@Z 000000018004b728     libucrt:getenv.obj
 0002:00013728       $unwind$__acrt_execute_uninitializers 000000018004b728     libucrt:shared_initialization.obj
 0002:00013728       $unwind$_RTC_Initialize    000000018004b728     LIBCMT:_initsect_.obj
 0002:00013728       $unwind$__vcrt_getptd_noexit 000000018004b728     libvcruntime:per_thread_data.obj
 0002:00013728       $unwind$?type_case_Z@?$output_processor@_WV?$stream_output_adapter@_W@__crt_stdio_output@@V?$standard_base@_WV?$stream_output_adapter@_W@__crt_stdio_output@@@2@@__crt_stdio_output@@AEAA_NXZ 000000018004b728     libucrt:output.obj
 0002:00013728       $unwind$__acrt_LocaleNameToLCID 000000018004b728     libucrt:winapi_thunks.obj
 0002:00013728       $unwind$?type_case_s@?$output_processor@DV?$string_output_adapter@D@__crt_stdio_output@@V?$format_validation_base@DV?$string_output_adapter@D@__crt_stdio_output@@@2@@__crt_stdio_output@@AEAA_NXZ 000000018004b728     libucrt:output.obj
 0002:00013728       $unwind$?assign@?$basic_string@DU?$char_traits@D@std@@V?$allocator@D@2@@std@@QEAAAEAV12@PEBD_K@Z 000000018004b728     node_report.obj
 0002:00013728       $unwind$?scan_scanset_range@?$format_string_parser@D@__crt_stdio_input@@AEAA_NXZ 000000018004b728     libucrt:input.obj
 0002:00013728       $unwind$_Init_thread_wait  000000018004b728     LIBCMT:thread_safe_statics.obj
 0002:00013728       $unwind$?type_case_s@?$output_processor@_WV?$stream_output_adapter@_W@__crt_stdio_output@@V?$standard_base@_WV?$stream_output_adapter@_W@__crt_stdio_output@@@2@@__crt_stdio_output@@AEAA_NXZ 000000018004b728     libucrt:output.obj
 0002:00013728       $unwind$??R<lambda_ad1ced32f4ac17aa236e5ef05d6b3b7c>@@QEBAXXZ 000000018004b728     libucrt:mbctype.obj
 0002:00013728       $unwind$memcpy_s           000000018004b728     libucrt:cfout.obj
 0002:00013728       $unwind$?advance@?$format_string_parser@D@__crt_stdio_input@@QEAA_NXZ 000000018004b728     libucrt:input.obj
 0002:00013728       $unwind$?assign@?$basic_string@DU?$char_traits@D@std@@V?$allocator@D@2@@std@@QEAAAEAV12@_KD@Z 000000018004b728     node_report.obj
 0002:00013728       $unwind$??_G?$basic_streambuf@DU?$char_traits@D@std@@@std@@UEAAPEAXI@Z 000000018004b728     node_report.obj
 0002:00013728       $unwind$?__scrt_initialize_thread_safe_statics@@YAHXZ 000000018004b728     LIBCMT:thread_safe_statics.obj
 0002:00013728       $unwind$__acrt_stdio_flush_and_write_narrow_nolock 000000018004b728     libucrt:_flsbuf.obj
 0002:00013728       $unwind$__acrt_FlsSetValue 000000018004b728     libucrt:winapi_thunks.obj
 0002:00013728       $unwind$?close@?$basic_filebuf@DU?$char_traits@D@std@@@std@@QEAAPEAV12@XZ 000000018004b728     node_report.obj
 0002:00013728       $unwind$?type_case_Z@?$output_processor@_WV?$string_output_adapter@_W@__crt_stdio_output@@V?$standard_base@_WV?$string_output_adapter@_W@__crt_stdio_output@@@2@@__crt_stdio_output@@AEAA_NXZ 000000018004b728     libucrt:output.obj
 0002:00013728       $unwind$??0_Init_locks@std@@QEAA@XZ 000000018004b728     libcpmt:xlock.obj
 0002:00013728       $unwind$?type_case_Z@?$output_processor@DV?$string_output_adapter@D@__crt_stdio_output@@V?$format_validation_base@DV?$string_output_adapter@D@__crt_stdio_output@@@2@@__crt_stdio_output@@AEAA_NXZ 000000018004b728     libucrt:output.obj
 0002:00013728       $unwind$memcpy_s           000000018004b728     libucrt:input.obj
 0002:00013728       $unwind$_exception_enabled 000000018004b728     libucrt:libm_error.obj
 0002:00013728       $unwind$?type_case_n@?$output_processor@_WV?$stream_output_adapter@_W@__crt_stdio_output@@V?$standard_base@_WV?$stream_output_adapter@_W@__crt_stdio_output@@@2@@__crt_stdio_output@@AEAA_NXZ 000000018004b728     libucrt:output.obj
 0002:00013728       $unwind$?type_case_Z@?$output_processor@DV?$string_output_adapter@D@__crt_stdio_output@@V?$standard_base@DV?$string_output_adapter@D@__crt_stdio_output@@@2@@__crt_stdio_output@@AEAA_NXZ 000000018004b728     libucrt:output.obj
 0002:00013728       $unwind$?put@?$basic_ostream@DU?$char_traits@D@std@@@std@@QEAAAEAV12@D@Z 000000018004b728     node_report.obj
 0002:00013728       $unwind$__vcrt_FlsSetValue 000000018004b728     libvcruntime:winapi_downlevel.obj
 0002:00013728       $unwind$__acrt_getptd_noexit 000000018004b728     libucrt:per_thread_data.obj
 0002:00013728       $unwind$?type_case_n@?$output_processor@DV?$stream_output_adapter@D@__crt_stdio_output@@V?$standard_base@DV?$stream_output_adapter@D@__crt_stdio_output@@@2@@__crt_stdio_output@@AEAA_NXZ 000000018004b728     libucrt:output.obj
 0002:00013728       $unwind$__acrt_stdio_flush_nolock 000000018004b728     libucrt:fflush.obj
 0002:00013728       $unwind$??R<lambda_532e024f4337e6fc7ad266c2bef9f4ed>@@QEBA_KXZ 000000018004b728     libucrt:fwrite.obj
 0002:00013728       $unwind$?type_case_Z@?$output_processor@DV?$stream_output_adapter@D@__crt_stdio_output@@V?$standard_base@DV?$stream_output_adapter@D@__crt_stdio_output@@@2@@__crt_stdio_output@@AEAA_NXZ 000000018004b728     libucrt:output.obj
 0002:00013728       $unwind$?type_case_n@?$output_processor@_WV?$string_output_adapter@_W@__crt_stdio_output@@V?$standard_base@_WV?$string_output_adapter@_W@__crt_stdio_output@@@2@@__crt_stdio_output@@AEAA_NXZ 000000018004b728     libucrt:output.obj
 0002:00013738       $unwind$?do_put@?$num_put@DV?$ostreambuf_iterator@DU?$char_traits@D@std@@@std@@@std@@MEBA?AV?$ostreambuf_iterator@DU?$char_traits@D@std@@@2@V32@AEAVios_base@2@DPEBX@Z 000000018004b738     node_report.obj
 0002:00013750       $unwind$?do_put@?$num_put@DV?$ostreambuf_iterator@DU?$char_traits@D@std@@@std@@@std@@MEBA?AV?$ostreambuf_iterator@DU?$char_traits@D@std@@@2@V32@AEAVios_base@2@DO@Z 000000018004b750     node_report.obj
 0002:00013750       $unwind$?do_put@?$num_put@DV?$ostreambuf_iterator@DU?$char_traits@D@std@@@std@@@std@@MEBA?AV?$ostreambuf_iterator@DU?$char_traits@D@std@@@2@V32@AEAVios_base@2@DN@Z 000000018004b750     node_report.obj
 0002:00013774       $unwind$?do_put@?$num_put@DV?$ostreambuf_iterator@DU?$char_traits@D@std@@@std@@@std@@MEBA?AV?$ostreambuf_iterator@DU?$char_traits@D@std@@@2@V32@AEAVios_base@2@D_J@Z 000000018004b774     node_report.obj
 0002:00013774       $unwind$?do_put@?$num_put@DV?$ostreambuf_iterator@DU?$char_traits@D@std@@@std@@@std@@MEBA?AV?$ostreambuf_iterator@DU?$char_traits@D@std@@@2@V32@AEAVios_base@2@DK@Z 000000018004b774     node_report.obj
 0002:00013774       $unwind$?do_put@?$num_put@DV?$ostreambuf_iterator@DU?$char_traits@D@std@@@std@@@std@@MEBA?AV?$ostreambuf_iterator@DU?$char_traits@D@std@@@2@V32@AEAVios_base@2@D_K@Z 000000018004b774     node_report.obj
 0002:00013774       $unwind$?do_put@?$num_put@DV?$ostreambuf_iterator@DU?$char_traits@D@std@@@std@@@std@@MEBA?AV?$ostreambuf_iterator@DU?$char_traits@D@std@@@2@V32@AEAVios_base@2@DJ@Z 000000018004b774     node_report.obj
 0002:0001378c       $unwind$?do_put@?$num_put@DV?$ostreambuf_iterator@DU?$char_traits@D@std@@@std@@@std@@MEBA?AV?$ostreambuf_iterator@DU?$char_traits@D@std@@@2@V32@AEAVios_base@2@D_N@Z 000000018004b78c     node_report.obj
 0002:000137a8       $chain$1$?do_put@?$num_put@DV?$ostreambuf_iterator@DU?$char_traits@D@std@@@std@@@std@@MEBA?AV?$ostreambuf_iterator@DU?$char_traits@D@std@@@2@V32@AEAVios_base@2@D_N@Z 000000018004b7a8     node_report.obj
 0002:000137c0       $chain$2$?do_put@?$num_put@DV?$ostreambuf_iterator@DU?$char_traits@D@std@@@std@@@std@@MEBA?AV?$ostreambuf_iterator@DU?$char_traits@D@std@@@2@V32@AEAVios_base@2@D_N@Z 000000018004b7c0     node_report.obj
 0002:000137d4       $chain$3$?do_put@?$num_put@DV?$ostreambuf_iterator@DU?$char_traits@D@std@@@std@@@std@@MEBA?AV?$ostreambuf_iterator@DU?$char_traits@D@std@@@2@V32@AEAVios_base@2@D_N@Z 000000018004b7d4     node_report.obj
 0002:000137e4       $chain$4$?do_put@?$num_put@DV?$ostreambuf_iterator@DU?$char_traits@D@std@@@std@@@std@@MEBA?AV?$ostreambuf_iterator@DU?$char_traits@D@std@@@2@V32@AEAVios_base@2@D_N@Z 000000018004b7e4     node_report.obj
 0002:000137f4       $chain$5$?do_put@?$num_put@DV?$ostreambuf_iterator@DU?$char_traits@D@std@@@std@@@std@@MEBA?AV?$ostreambuf_iterator@DU?$char_traits@D@std@@@2@V32@AEAVios_base@2@D_N@Z 000000018004b7f4     node_report.obj
 0002:0001380c       $unwind$_free_osfhnd       000000018004b80c     libucrt:osfinfo.obj
 0002:0001380c       $unwind$__std_exception_copy 000000018004b80c     libvcruntime:std_exception.obj
 0002:0001380c       $unwind$_wcstombs_s_l      000000018004b80c     libucrt:wcstombs.obj
 0002:0001380c       $unwind$?initialize_stdio_handles_nolock@@YAXXZ 000000018004b80c     libucrt:ioinit.obj
 0002:0001380c       $unwind$?assign@?$basic_string@DU?$char_traits@D@std@@V?$allocator@D@2@@std@@QEAAAEAV12@AEBV12@_K1@Z 000000018004b80c     node_report.obj
 0002:00013820       $unwind$?append@?$basic_string@DU?$char_traits@D@std@@V?$allocator@D@2@@std@@QEAAAEAV12@PEBD_K@Z 000000018004b820     node_report.obj
 0002:00013820       $unwind$?append@?$basic_string@DU?$char_traits@D@std@@V?$allocator@D@2@@std@@QEAAAEAV12@_KD@Z 000000018004b820     node_report.obj
 0002:00013830       $chain$0$?append@?$basic_string@DU?$char_traits@D@std@@V?$allocator@D@2@@std@@QEAAAEAV12@_KD@Z 000000018004b830     node_report.obj
 0002:00013844       $chain$1$?append@?$basic_string@DU?$char_traits@D@std@@V?$allocator@D@2@@std@@QEAAAEAV12@_KD@Z 000000018004b844     node_report.obj
 0002:00013854       $chain$2$?append@?$basic_string@DU?$char_traits@D@std@@V?$allocator@D@2@@std@@QEAAAEAV12@_KD@Z 000000018004b854     node_report.obj
 0002:00013868       $chain$0$?append@?$basic_string@DU?$char_traits@D@std@@V?$allocator@D@2@@std@@QEAAAEAV12@PEBD_K@Z 000000018004b868     node_report.obj
 0002:0001387c       $chain$1$?append@?$basic_string@DU?$char_traits@D@std@@V?$allocator@D@2@@std@@QEAAAEAV12@PEBD_K@Z 000000018004b87c     node_report.obj
 0002:0001388c       $chain$2$?append@?$basic_string@DU?$char_traits@D@std@@V?$allocator@D@2@@std@@QEAAAEAV12@PEBD_K@Z 000000018004b88c     node_report.obj
 0002:000138a0       $unwind$?append@?$basic_string@DU?$char_traits@D@std@@V?$allocator@D@2@@std@@QEAAAEAV12@AEBV12@_K1@Z 000000018004b8a0     node_report.obj
 0002:000138b4       $chain$0$?append@?$basic_string@DU?$char_traits@D@std@@V?$allocator@D@2@@std@@QEAAAEAV12@AEBV12@_K1@Z 000000018004b8b4     node_report.obj
 0002:000138c8       $chain$1$?append@?$basic_string@DU?$char_traits@D@std@@V?$allocator@D@2@@std@@QEAAAEAV12@AEBV12@_K1@Z 000000018004b8c8     node_report.obj
 0002:000138d8       $chain$2$?append@?$basic_string@DU?$char_traits@D@std@@V?$allocator@D@2@@std@@QEAAAEAV12@AEBV12@_K1@Z 000000018004b8d8     node_report.obj
 0002:000138ec       $unwind$?_Endwrite@?$basic_filebuf@DU?$char_traits@D@std@@@std@@IEAA_NXZ 000000018004b8ec     node_report.obj
 0002:00013900       $chain$2$?_Endwrite@?$basic_filebuf@DU?$char_traits@D@std@@@std@@IEAA_NXZ 000000018004b900     node_report.obj
 0002:0001391c       $chain$3$?_Endwrite@?$basic_filebuf@DU?$char_traits@D@std@@@std@@IEAA_NXZ 000000018004b91c     node_report.obj
 0002:0001392c       $chain$4$?_Endwrite@?$basic_filebuf@DU?$char_traits@D@std@@@std@@IEAA_NXZ 000000018004b92c     node_report.obj
 0002:00013948       $unwind$?_Init@?$basic_filebuf@DU?$char_traits@D@std@@@std@@IEAAXPEAU_iobuf@@W4_Initfl@12@@Z 000000018004b948     node_report.obj
 0002:00013954       $unwind$?init@?$basic_ios@DU?$char_traits@D@std@@@std@@IEAAXPEAV?$basic_streambuf@DU?$char_traits@D@std@@@2@_N@Z 000000018004b954     node_report.obj
 0002:00013954       $unwind$??$?6DU?$char_traits@D@std@@V?$allocator@D@1@@std@@YAAEAV?$basic_ostream@DU?$char_traits@D@std@@@0@AEAV10@AEBV?$basic_string@DU?$char_traits@D@std@@V?$allocator@D@2@@0@@Z 000000018004b954     node_report.obj
 0002:0001396c       $unwind$?_Iput@?$num_put@DV?$ostreambuf_iterator@DU?$char_traits@D@std@@@std@@@std@@AEBA?AV?$ostreambuf_iterator@DU?$char_traits@D@std@@@2@V32@AEAVios_base@2@DPEAD_K@Z 000000018004b96c     node_report.obj
 0002:00013990       $unwind$?_Fput@?$num_put@DV?$ostreambuf_iterator@DU?$char_traits@D@std@@@std@@@std@@AEBA?AV?$ostreambuf_iterator@DU?$char_traits@D@std@@@2@V32@AEAVios_base@2@DPEBD_K@Z 000000018004b990     node_report.obj
 0002:000139b4       $chain$0$?flush@?$basic_ostream@DU?$char_traits@D@std@@@std@@QEAAAEAV12@XZ 000000018004b9b4     node_report.obj
 0002:000139c8       $chain$1$?flush@?$basic_ostream@DU?$char_traits@D@std@@@std@@QEAAAEAV12@XZ 000000018004b9c8     node_report.obj
 0002:000139d8       $unwind$?widen@?$basic_ios@DU?$char_traits@D@std@@@std@@QEBADD@Z 000000018004b9d8     node_report.obj
 0002:000139d8       $unwind$__acrt_copy_locale_name 000000018004b9d8     libucrt:wsetlocale.obj
 0002:000139e8       $unwind$?_Copy@?$basic_string@DU?$char_traits@D@std@@V?$allocator@D@2@@std@@QEAAX_K0@Z 000000018004b9e8     node_report.obj
 0002:000139fc       $unwind$??$use_facet@V?$ctype@D@std@@@std@@YAAEBV?$ctype@D@0@AEBVlocale@0@@Z 000000018004b9fc     node_report.obj
 0002:000139fc       $unwind$??$use_facet@V?$numpunct@D@std@@@std@@YAAEBV?$numpunct@D@0@AEBVlocale@0@@Z 000000018004b9fc     node_report.obj
 0002:00013a0c       $unwind$??$?6U?$char_traits@D@std@@@std@@YAAEAV?$basic_ostream@DU?$char_traits@D@std@@@0@AEAV10@PEBD@Z 000000018004ba0c     node_report.obj
 0002:00013a14       $chain$3$??$?6U?$char_traits@D@std@@@std@@YAAEAV?$basic_ostream@DU?$char_traits@D@std@@@0@AEAV10@PEBD@Z 000000018004ba14     node_report.obj
 0002:00013a34       $chain$4$??$?6U?$char_traits@D@std@@@std@@YAAEAV?$basic_ostream@DU?$char_traits@D@std@@@0@AEAV10@PEBD@Z 000000018004ba34     node_report.obj
 0002:00013a48       $chain$5$??$?6U?$char_traits@D@std@@@std@@YAAEAV?$basic_ostream@DU?$char_traits@D@std@@@0@AEAV10@PEBD@Z 000000018004ba48     node_report.obj
 0002:00013a58       $unwind$??$use_facet@V?$codecvt@DDU_Mbstatet@@@std@@@std@@YAAEBV?$codecvt@DDU_Mbstatet@@@0@AEBVlocale@0@@Z 000000018004ba58     node_report.obj
 0002:00013a58       $unwind$??$use_facet@V?$num_put@DV?$ostreambuf_iterator@DU?$char_traits@D@std@@@std@@@std@@@std@@YAAEBV?$num_put@DV?$ostreambuf_iterator@DU?$char_traits@D@std@@@std@@@0@AEBVlocale@0@@Z 000000018004ba58     node_report.obj
 0002:00013a6c       $unwind$?_Getcat@?$numpunct@D@std@@SA_KPEAPEBVfacet@locale@2@PEBV42@@Z 000000018004ba6c     node_report.obj
 0002:00013a7c       $chain$0$?_Getcat@?$numpunct@D@std@@SA_KPEAPEBVfacet@locale@2@PEBV42@@Z 000000018004ba7c     node_report.obj
 0002:00013a90       $chain$1$?_Getcat@?$numpunct@D@std@@SA_KPEAPEBVfacet@locale@2@PEBV42@@Z 000000018004ba90     node_report.obj
 0002:00013aa0       $unwind$?_Init@?$numpunct@D@std@@IEAAXAEBV_Locinfo@2@_N@Z 000000018004baa0     node_report.obj
 0002:00013ab8       $unwind$fprintf            000000018004bab8     module.obj
 0002:00013ab8       $unwind$sscanf             000000018004bab8     module.obj
 0002:00013ab8       $unwind$fwprintf           000000018004bab8     libucrt:assert.obj
 0002:00013ac4       $unwind$?FunctionCallbackWrapper@imp@Nan@@YAXAEBV?$FunctionCallbackInfo@VValue@v8@@@v8@@@Z 000000018004bac4     module.obj
 0002:00013ad4       $unwind$?New@?$Factory@VFunctionTemplate@v8@@@imp@Nan@@SA?AV?$Local@VFunctionTemplate@v8@@@v8@@P6AXAEBV?$FunctionCallbackInfo@VValue@v8@@@3@@ZV?$Local@VValue@v8@@@5@V?$Local@VSignature@v8@@@5@@Z 000000018004bad4     module.obj
 0002:00013ae4       $chain$0$?New@?$Factory@VFunctionTemplate@v8@@@imp@Nan@@SA?AV?$Local@VFunctionTemplate@v8@@@v8@@P6AXAEBV?$FunctionCallbackInfo@VValue@v8@@@3@@ZV?$Local@VValue@v8@@@5@V?$Local@VSignature@v8@@@5@@Z 000000018004bae4     module.obj
 0002:00013af8       $chain$1$?New@?$Factory@VFunctionTemplate@v8@@@imp@Nan@@SA?AV?$Local@VFunctionTemplate@v8@@@v8@@P6AXAEBV?$FunctionCallbackInfo@VValue@v8@@@3@@ZV?$Local@VValue@v8@@@5@V?$Local@VSignature@v8@@@5@@Z 000000018004baf8     module.obj
 0002:00013b0c       $chain$2$?New@?$Factory@VFunctionTemplate@v8@@@imp@Nan@@SA?AV?$Local@VFunctionTemplate@v8@@@v8@@P6AXAEBV?$FunctionCallbackInfo@VValue@v8@@@3@@ZV?$Local@VValue@v8@@@5@V?$Local@VSignature@v8@@@5@@Z 000000018004bb0c     module.obj
 0002:00013b1c       $chain$3$?New@?$Factory@VFunctionTemplate@v8@@@imp@Nan@@SA?AV?$Local@VFunctionTemplate@v8@@@v8@@P6AXAEBV?$FunctionCallbackInfo@VValue@v8@@@3@@ZV?$Local@VValue@v8@@@5@V?$Local@VSignature@v8@@@5@@Z 000000018004bb1c     module.obj
 0002:00013b2c       $unwind$?TriggerReport@nodereport@@YAXAEBV?$FunctionCallbackInfo@VValue@v8@@@Nan@@@Z 000000018004bb2c     module.obj
 0002:00013b4c       $unwind$?GetReport@nodereport@@YAXAEBV?$FunctionCallbackInfo@VValue@v8@@@Nan@@@Z 000000018004bb4c     module.obj
 0002:00013b6c       $unwind$?SetEvents@nodereport@@YAXAEBV?$FunctionCallbackInfo@VValue@v8@@@Nan@@@Z 000000018004bb6c     module.obj
 0002:00013b80       $unwind$?SetFileName@nodereport@@YAXAEBV?$FunctionCallbackInfo@VValue@v8@@@Nan@@@Z 000000018004bb80     module.obj
 0002:00013b80       $unwind$?SetDirectory@nodereport@@YAXAEBV?$FunctionCallbackInfo@VValue@v8@@@Nan@@@Z 000000018004bb80     module.obj
 0002:00013b80       $unwind$?SetVerbose@nodereport@@YAXAEBV?$FunctionCallbackInfo@VValue@v8@@@Nan@@@Z 000000018004bb80     module.obj
 0002:00013b90       $unwind$?OnFatalError@nodereport@@YAXPEBD0@Z 000000018004bb90     module.obj
 0002:00013b9c       $unwind$?PrintStackFromStackTrace@nodereport@@YAXPEAVIsolate@v8@@PEAU_iobuf@@@Z 000000018004bb9c     module.obj
 0002:00013bb4       $chain$1$?PrintStackFromStackTrace@nodereport@@YAXPEAVIsolate@v8@@PEAU_iobuf@@@Z 000000018004bbb4     module.obj
 0002:00013bcc       $chain$2$?PrintStackFromStackTrace@nodereport@@YAXPEAVIsolate@v8@@PEAU_iobuf@@@Z 000000018004bbcc     module.obj
 0002:00013bdc       $unwind$?Initialize@nodereport@@YAXV?$Local@VObject@v8@@@v8@@@Z 000000018004bbdc     module.obj
 0002:00013be8       $unwind$??0?$basic_ostringstream@DU?$char_traits@D@std@@V?$allocator@D@2@@std@@QEAA@H@Z 000000018004bbe8     module.obj
 0002:00013bfc       $unwind$?seekpos@?$basic_stringbuf@DU?$char_traits@D@std@@V?$allocator@D@2@@std@@MEAA?AV?$fpos@U_Mbstatet@@@2@V32@H@Z 000000018004bbfc     module.obj
 0002:00013c08       $unwind$?seekoff@?$basic_stringbuf@DU?$char_traits@D@std@@V?$allocator@D@2@@std@@MEAA?AV?$fpos@U_Mbstatet@@@2@_JHH@Z 000000018004bc08     module.obj
 0002:00013c18       $unwind$__CxxCallCatchBlock$fin$1 000000018004bc18     libvcruntime:frame.obj
 0002:00013c18       $unwind$?overflow@?$basic_stringbuf@DU?$char_traits@D@std@@V?$allocator@D@2@@std@@MEAAHH@Z 000000018004bc18     module.obj
 0002:00013c24       $chain$0$?overflow@?$basic_stringbuf@DU?$char_traits@D@std@@V?$allocator@D@2@@std@@MEAAHH@Z 000000018004bc24     module.obj
 0002:00013c38       $chain$6$?overflow@?$basic_stringbuf@DU?$char_traits@D@std@@V?$allocator@D@2@@std@@MEAAHH@Z 000000018004bc38     module.obj
 0002:00013c5c       $chain$7$?overflow@?$basic_stringbuf@DU?$char_traits@D@std@@V?$allocator@D@2@@std@@MEAAHH@Z 000000018004bc5c     module.obj
 0002:00013c78       $unwind$?find@?$basic_string@DU?$char_traits@D@std@@V?$allocator@D@2@@std@@QEBA_KPEBD_K1@Z 000000018004bc78     module.obj
 0002:00013c94       $unwind$?str@?$basic_stringbuf@DU?$char_traits@D@std@@V?$allocator@D@2@@std@@QEBA?AV?$basic_string@DU?$char_traits@D@std@@V?$allocator@D@2@@2@XZ 000000018004bc94     module.obj
 0002:00013cac       $unwind$?Get@Nan@@YA?AV?$MaybeLocal@VValue@v8@@@v8@@V?$Local@VObject@v8@@@3@V?$Local@VValue@v8@@@3@@Z 000000018004bcac     utilities.obj
 0002:00013cb8       $unwind$?SetVersionString@nodereport@@YAXPEAVIsolate@v8@@@Z 000000018004bcb8     utilities.obj
 0002:00013cd8       $chain$1$?SetVersionString@nodereport@@YAXPEAVIsolate@v8@@@Z 000000018004bcd8     utilities.obj
 0002:00013cf0       $chain$4$?SetVersionString@nodereport@@YAXPEAVIsolate@v8@@@Z 000000018004bcf0     utilities.obj
 0002:00013cf0       $chain$2$?SetVersionString@nodereport@@YAXPEAVIsolate@v8@@@Z 000000018004bcf0     utilities.obj
 0002:00013d00       $chain$3$?SetVersionString@nodereport@@YAXPEAVIsolate@v8@@@Z 000000018004bd00     utilities.obj
 0002:00013d18       $unwind$?reportEndpoint@nodereport@@YAXPEAUuv_handle_s@@PEAUsockaddr@@PEBDAEAV?$basic_ostringstream@DU?$char_traits@D@std@@V?$allocator@D@2@@std@@@Z 000000018004bd18     utilities.obj
 0002:00013d30       $unwind$?reportEndpoints@nodereport@@YAXPEAUuv_handle_s@@AEAV?$basic_ostringstream@DU?$char_traits@D@std@@V?$allocator@D@2@@std@@@Z 000000018004bd30     utilities.obj
 0002:00013d48       $unwind$?reportPath@nodereport@@YAXPEAUuv_handle_s@@AEAV?$basic_ostringstream@DU?$char_traits@D@std@@V?$allocator@D@2@@std@@@Z 000000018004bd48     utilities.obj
 0002:00013d5c       $chain$0$?reportPath@nodereport@@YAXPEAUuv_handle_s@@AEAV?$basic_ostringstream@DU?$char_traits@D@std@@V?$allocator@D@2@@std@@@Z 000000018004bd5c     utilities.obj
 0002:00013d70       $chain$1$?reportPath@nodereport@@YAXPEAUuv_handle_s@@AEAV?$basic_ostringstream@DU?$char_traits@D@std@@V?$allocator@D@2@@std@@@Z 000000018004bd70     utilities.obj
 0002:00013d80       $chain$2$?reportPath@nodereport@@YAXPEAUuv_handle_s@@AEAV?$basic_ostringstream@DU?$char_traits@D@std@@V?$allocator@D@2@@std@@@Z 000000018004bd80     utilities.obj
 0002:00013d94       $unwind$?walkHandle@nodereport@@YAXPEAUuv_handle_s@@PEAX@Z 000000018004bd94     utilities.obj
 0002:00013da8       $chain$0$?walkHandle@nodereport@@YAXPEAUuv_handle_s@@PEAX@Z 000000018004bda8     utilities.obj
 0002:00013dbc       $chain$1$?walkHandle@nodereport@@YAXPEAUuv_handle_s@@PEAX@Z 000000018004bdbc     utilities.obj
 0002:00013dd0       $chain$2$?walkHandle@nodereport@@YAXPEAUuv_handle_s@@PEAX@Z 000000018004bdd0     utilities.obj
 0002:00013de4       $chain$6$?walkHandle@nodereport@@YAXPEAUuv_handle_s@@PEAX@Z 000000018004bde4     utilities.obj
 0002:00013e04       $chain$7$?walkHandle@nodereport@@YAXPEAUuv_handle_s@@PEAX@Z 000000018004be04     utilities.obj
 0002:00013e20       $chain$8$?walkHandle@nodereport@@YAXPEAUuv_handle_s@@PEAX@Z 000000018004be20     utilities.obj
 0002:00013e3c       $chain$9$?walkHandle@nodereport@@YAXPEAUuv_handle_s@@PEAX@Z 000000018004be3c     utilities.obj
 0002:00013e54       $chain$10$?walkHandle@nodereport@@YAXPEAUuv_handle_s@@PEAX@Z 000000018004be54     utilities.obj
 0002:00013e6c       $chain$11$?walkHandle@nodereport@@YAXPEAUuv_handle_s@@PEAX@Z 000000018004be6c     utilities.obj
 0002:00013e80       $chain$12$?walkHandle@nodereport@@YAXPEAUuv_handle_s@@PEAX@Z 000000018004be80     utilities.obj
 0002:00013e90       $unwind$?WriteInteger@nodereport@@YAXAEAV?$basic_ostream@DU?$char_traits@D@std@@@std@@_K@Z 000000018004be90     utilities.obj
 0002:00013eb0       $chain$1$??6?$basic_ostream@DU?$char_traits@D@std@@@std@@QEAAAEAV01@PEBX@Z 000000018004beb0     utilities.obj
 0002:00013ec8       $chain$3$??6?$basic_ostream@DU?$char_traits@D@std@@@std@@QEAAAEAV01@PEBX@Z 000000018004bec8     utilities.obj
 0002:00013ee0       $chain$4$??6?$basic_ostream@DU?$char_traits@D@std@@@std@@QEAAAEAV01@PEBX@Z 000000018004bee0     utilities.obj
 0002:00013ef4       $chain$5$??6?$basic_ostream@DU?$char_traits@D@std@@@std@@QEAAAEAV01@PEBX@Z 000000018004bef4     utilities.obj
 0002:00013f04       $chain$6$??6?$basic_ostream@DU?$char_traits@D@std@@@std@@QEAAAEAV01@PEBX@Z 000000018004bf04     utilities.obj
 0002:00013f18       $chain$7$??6?$basic_ostream@DU?$char_traits@D@std@@@std@@QEAAAEAV01@PEBX@Z 000000018004bf18     utilities.obj
 0002:00013f28       $chain$1$??$?6U?$char_traits@D@std@@@std@@YAAEAV?$basic_ostream@DU?$char_traits@D@std@@@0@AEAV10@D@Z 000000018004bf28     utilities.obj
 0002:00013f40       $chain$2$??$?6U?$char_traits@D@std@@@std@@YAAEAV?$basic_ostream@DU?$char_traits@D@std@@@0@AEAV10@D@Z 000000018004bf40     utilities.obj
 0002:00013f54       $chain$3$??$?6U?$char_traits@D@std@@@std@@YAAEAV?$basic_ostream@DU?$char_traits@D@std@@@0@AEAV10@D@Z 000000018004bf54     utilities.obj
 0002:00013f64       $chain$4$??$?6U?$char_traits@D@std@@@std@@YAAEAV?$basic_ostream@DU?$char_traits@D@std@@@0@AEAV10@D@Z 000000018004bf64     utilities.obj
 0002:00013f78       $chain$5$??$?6U?$char_traits@D@std@@@std@@YAAEAV?$basic_ostream@DU?$char_traits@D@std@@@0@AEAV10@D@Z 000000018004bf78     utilities.obj
 0002:00013f88       xdata                      000000018004bf88     node:node.exe
 0002:00013f90       $unwind$??__Fcout@std@@YAXXZ 000000018004bf90     libcpmt:cout.obj
 0002:00013fa0       $stateUnwindMap$??_G_Fac_node@std@@QEAAPEAXI@Z 000000018004bfa0     libcpmt:locale0.obj
 0002:00013fa0       $stateUnwindMap$??__Finit_atexit@@YAXXZ 000000018004bfa0     libcpmt:iosptrs.obj
 0002:00013fa0       $stateUnwindMap$??__Fclassic_locale@std@@YAXXZ 000000018004bfa0     libcpmt:locale0.obj
 0002:00013fa0       $stateUnwindMap$??_G_Locimp@locale@std@@MEAAPEAXI@Z 000000018004bfa0     libcpmt:locale0.obj
 0002:00013fa0       $stateUnwindMap$??__Fcerr@std@@YAXXZ 000000018004bfa0     libcpmt:cerr.obj
 0002:00013fa0       $stateUnwindMap$??__Fcout@std@@YAXXZ 000000018004bfa0     libcpmt:cout.obj
 0002:00013fa8       $ip2state$??__Fcout@std@@YAXXZ 000000018004bfa8     libcpmt:cout.obj
 0002:00013fc0       $unwind$??_G_Fac_node@std@@QEAAPEAXI@Z 000000018004bfc0     libcpmt:locale0.obj
 0002:00013fe0       $ip2state$??_G_Fac_node@std@@QEAAPEAXI@Z 000000018004bfe0     libcpmt:locale0.obj
 0002:00013ff8       $unwind$?_Locimp_dtor@_Locimp@locale@std@@CAXPEAV123@@Z 000000018004bff8     libcpmt:locale0.obj
 0002:00014018       $ip2state$?_Locimp_dtor@_Locimp@locale@std@@CAXPEAV123@@Z 000000018004c018     libcpmt:locale0.obj
 0002:00014030       $unwind$??_G_Locimp@locale@std@@MEAAPEAXI@Z 000000018004c030     libcpmt:locale0.obj
 0002:00014048       $ip2state$??_G_Locimp@locale@std@@MEAAPEAXI@Z 000000018004c048     libcpmt:locale0.obj
 0002:00014060       $unwind$?_Init@locale@std@@CAPEAV_Locimp@12@_N@Z 000000018004c060     libcpmt:locale0.obj
 0002:00014078       $stateUnwindMap$?_Init@locale@std@@CAPEAV_Locimp@12@_N@Z 000000018004c078     libcpmt:locale0.obj
 0002:00014078       $stateUnwindMap$?_Locimp_dtor@_Locimp@locale@std@@CAXPEAV123@@Z 000000018004c078     libcpmt:locale0.obj
 0002:00014080       $ip2state$?_Init@locale@std@@CAPEAV_Locimp@12@_N@Z 000000018004c080     libcpmt:locale0.obj
 0002:00014098       $unwind$??__Fclassic_locale@std@@YAXXZ 000000018004c098     libcpmt:locale0.obj
 0002:000140b0       $ip2state$??__Fclassic_locale@std@@YAXXZ 000000018004c0b0     libcpmt:locale0.obj
 0002:000140c8       $unwind$??__Fcerr@std@@YAXXZ 000000018004c0c8     libcpmt:cerr.obj
 0002:000140d8       $ip2state$??__Fcerr@std@@YAXXZ 000000018004c0d8     libcpmt:cerr.obj
 0002:000140f0       $unwind$_Tolower           000000018004c0f0     libcpmt:_tolower.obj
 0002:00014100       $unwind$_Toupper           000000018004c100     libcpmt:_toupper.obj
 0002:00014114       $unwind$??__Finit_atexit@@YAXXZ 000000018004c114     libcpmt:iosptrs.obj
 0002:00014128       $ip2state$??__Finit_atexit@@YAXXZ 000000018004c128     libcpmt:iosptrs.obj
 0002:00014140       $unwind$__crtLCMapStringA  000000018004c140     libcpmt:StlLCMapStringA.obj
 0002:00014168       $xdatasym                  000000018004c168     LIBCMT:_amdsecgs_.obj
 0002:0001416c       $unwind$__scrt_is_nonwritable_in_current_image 000000018004c16c     LIBCMT:utility.obj
 0002:0001418c       $unwind$__scrt_is_nonwritable_in_current_image$filt$0 000000018004c18c     LIBCMT:utility.obj
 0002:00014194       $unwind$__scrt_initialize_onexit_tables 000000018004c194     LIBCMT:utility.obj
 0002:000141a0       $unwind$?dllmain_crt_process_attach@@YAHQEAUHINSTANCE__@@QEAX@Z 000000018004c1a0     LIBCMT:dll_dllmain.obj
 0002:000141cc       $unwind$?dllmain_crt_process_detach@@YAH_N@Z 000000018004c1cc     LIBCMT:dll_dllmain.obj
 0002:000141f4       $unwind$?filt$0@?0??common_exit@@YAXHW4_crt_exit_cleanup_mode@@W4_crt_exit_return_mode@@@Z@4HA 000000018004c1f4     libucrt:exit.obj
 0002:000141f4       $unwind$?fin$0@?0???$?RV<lambda_b8c45f8f788dd370798f47cfe8ac3a86>@@AEAV<lambda_4e60a939b0d047cfe11ddc22648dfba9>@@V<lambda_332c3edc96d0294ec56c57d38c1cdfd5>@@@?$__crt_seh_guarded_call@H@@QEAAH$$QEAV<lambda_b8c45f8f788dd370798f47cfe8ac3a86>@@AEAV<lambda_4e60a939b0d047cfe11ddc22648dfba9>@@$$QEAV<lambda_332c3edc96d0294ec56c57d38c1cdfd5>@@@Z@4HA 000000018004c1f4     libucrt:onexit.obj
 0002:000141f4       $unwind$?fin$1@?0??common_exit@@YAXHW4_crt_exit_cleanup_mode@@W4_crt_exit_return_mode@@@Z@4HA 000000018004c1f4     libucrt:exit.obj
 0002:000141f4       $unwind$__CxxCallCatchBlock$filt$0 000000018004c1f4     libvcruntime:frame.obj
 0002:000141f4       $unwind$__acrt_lowio_ensure_fh_exists$fin$0 000000018004c1f4     libucrt:osfinfo.obj
 0002:000141f4       $unwind$_alloc_osfhnd$fin$0 000000018004c1f4     libucrt:osfinfo.obj
 0002:000141f4       $unwind$_fcloseall$fin$0   000000018004c1f4     libucrt:closeall.obj
 0002:000141f4       $unwind$_IsNonwritableInCurrentImage$filt$0 000000018004c1f4     LIBCMT:pesect.obj
 0002:000141f4       $unwind$?fin$0@?0???$common_getenv@D@@YAPEADQEBD@Z@4HA 000000018004c1f4     libucrt:getenv.obj
 0002:000141f4       $unwind$?fin$0@?0???$?RV<lambda_d67e8342c384adda8f857579ab50b2ae>@@AEAV<lambda_30712929f77e709619002f448b6a9510>@@V<lambda_4525336fd7e478d965fb7ca7a337cad8>@@@?$__crt_seh_guarded_call@X@@QEAAX$$QEAV<lambda_d67e8342c384adda8f857579ab50b2ae>@@AEAV<lambda_30712929f77e709619002f448b6a9510>@@$$QEAV<lambda_4525336fd7e478d965fb7ca7a337cad8>@@@Z@4HA 000000018004c1f4     libucrt:wsetlocale.obj
 0002:000141f4       $unwind$fclose$fin$0       000000018004c1f4     libucrt:fclose.obj
 0002:000141f4       $unwind$common_control87$filt$0 000000018004c1f4     libucrt:ieee.obj
 0002:000141f4       $unwind$?fin$0@?0???$?RV<lambda_c36588078e9f5dfd39652860aa6b3aaf>@@AEAV<lambda_ec61778202f4f5fc7e7711acc23c3bca>@@V<lambda_dc9d2797ccde5d239b4a0efae8ebd7db>@@@?$__crt_seh_guarded_call@P6AXH@Z@@QEAAP6AXH@Z$$QEAV<lambda_c36588078e9f5dfd39652860aa6b3aaf>@@AEAV<lambda_ec61778202f4f5fc7e7711acc23c3bca>@@$$QEAV<lambda_dc9d2797ccde5d239b4a0efae8ebd7db>@@@Z@4HA 000000018004c1f4     libucrt:signal.obj
 0002:000141f4       $unwind$?fin$0@?0???$?RV<lambda_b521505b218e5242e90febf6bfebc422>@@AEAV<lambda_6978c1fb23f02e42e1d9e99668cc68aa>@@V<lambda_314360699dd331753a4119843814e9a7>@@@?$__crt_seh_guarded_call@H@@QEAAH$$QEAV<lambda_b521505b218e5242e90febf6bfebc422>@@AEAV<lambda_6978c1fb23f02e42e1d9e99668cc68aa>@@$$QEAV<lambda_314360699dd331753a4119843814e9a7>@@@Z@4HA 000000018004c1f4     libucrt:commit.obj
 0002:000141f4       $unwind$common_flush_all$fin$1 000000018004c1f4     libucrt:fflush.obj
 0002:000141f4       $unwind$?fin$0@?0???$?RV<lambda_5e887d1dcbef67a5eb4283622ba103bf>@@AEAV<lambda_4466841279450cc726390878d4a41900>@@V<lambda_341c25c0346d94847f1f3c463c57e077>@@@?$__crt_seh_guarded_call@X@@QEAAX$$QEAV<lambda_5e887d1dcbef67a5eb4283622ba103bf>@@AEAV<lambda_4466841279450cc726390878d4a41900>@@$$QEAV<lambda_341c25c0346d94847f1f3c463c57e077>@@@Z@4HA 000000018004c1f4     libucrt:per_thread_data.obj
 0002:000141f4       $unwind$?fin$0@?0???$?RV<lambda_46352004c1216016012b18bd6f87e700>@@AEAV<lambda_3bd07e1a1191394380780325891bf33f>@@V<lambda_334532d3f185bcaa59b5be82d7d22bff>@@@?$__crt_seh_guarded_call@X@@QEAAX$$QEAV<lambda_46352004c1216016012b18bd6f87e700>@@AEAV<lambda_3bd07e1a1191394380780325891bf33f>@@$$QEAV<lambda_334532d3f185bcaa59b5be82d7d22bff>@@@Z@4HA 000000018004c1f4     libucrt:per_thread_data.obj
 0002:000141f4       $unwind$_read$fin$0        000000018004c1f4     libucrt:read.obj
 0002:000141f4       $unwind$__FrameUnwindToState$filt$0 000000018004c1f4     libvcruntime:frame.obj
 0002:000141f4       $unwind$?fin$0@?0???$?RV<lambda_bfedae4ebbf01fab1bb6dcc6a9e276e0>@@AEAV<lambda_2fe9b910cf3cbf4a0ab98a02ba45b3ec>@@V<lambda_237c231691f317818eb88cc1d5d642d6>@@@?$__crt_seh_guarded_call@H@@QEAAH$$QEAV<lambda_bfedae4ebbf01fab1bb6dcc6a9e276e0>@@AEAV<lambda_2fe9b910cf3cbf4a0ab98a02ba45b3ec>@@$$QEAV<lambda_237c231691f317818eb88cc1d5d642d6>@@@Z@4HA 000000018004c1f4     libucrt:close.obj
 0002:000141f4       $unwind$?fin$0@?0???$?RV<lambda_7a5ef57ff966f610505f1d28a3d40618>@@AEAV<lambda_b721fa326cdb32351d23dfa67958c160>@@V<lambda_5e0fb27672408a07956fe59e48ccb2aa>@@@?$__crt_seh_guarded_call@H@@QEAAH$$QEAV<lambda_7a5ef57ff966f610505f1d28a3d40618>@@AEAV<lambda_b721fa326cdb32351d23dfa67958c160>@@$$QEAV<lambda_5e0fb27672408a07956fe59e48ccb2aa>@@@Z@4HA 000000018004c1f4     libucrt:setvbuf.obj
 0002:000141f4       $unwind$__acrt_initialize_lowio$fin$0 000000018004c1f4     libucrt:ioinit.obj
 0002:000141f4       $unwind$?fin$0@?0???$?RV<lambda_72d1df2b273a38828b1ce30cbf4cdab5>@@AEAV<lambda_876a65b173b8412d3a47c70a915b0cf4>@@V<lambda_41932305e351933ebe8f8be3ed8bb5dc>@@@?$__crt_seh_guarded_call@X@@QEAAX$$QEAV<lambda_72d1df2b273a38828b1ce30cbf4cdab5>@@AEAV<lambda_876a65b173b8412d3a47c70a915b0cf4>@@$$QEAV<lambda_41932305e351933ebe8f8be3ed8bb5dc>@@@Z@4HA 000000018004c1f4     libucrt:per_thread_data.obj
 0002:000141f4       $unwind$?fin$0@?0??dllmain_crt_process_attach@@YAHQEAUHINSTANCE__@@QEAX@Z@4HA 000000018004c1f4     LIBCMT:dll_dllmain.obj
 0002:000141f4       $unwind$raise$fin$0        000000018004c1f4     libucrt:signal.obj
 0002:000141f4       $unwind$?fin$0@?0???$?RV<lambda_5d4c3fee44080f75d5d9762853974fe0>@@AEAV<lambda_532e024f4337e6fc7ad266c2bef9f4ed>@@V<lambda_c87bdc10097eb2402edb8ba9bdf0697b>@@@?$__crt_seh_guarded_call@_K@@QEAA_K$$QEAV<lambda_5d4c3fee44080f75d5d9762853974fe0>@@AEAV<lambda_532e024f4337e6fc7ad266c2bef9f4ed>@@$$QEAV<lambda_c87bdc10097eb2402edb8ba9bdf0697b>@@@Z@4HA 000000018004c1f4     libucrt:fwrite.obj
 0002:000141f4       $unwind$common_flush_all$fin$0 000000018004c1f4     libucrt:fflush.obj
 0002:000141f4       $unwind$?fin$0@?0??dllmain_crt_process_detach@@YAH_N@Z@4HA 000000018004c1f4     LIBCMT:dll_dllmain.obj
 0002:000141f4       $unwind$__FrameUnwindToState$fin$1 000000018004c1f4     libvcruntime:frame.obj
 0002:000141f4       $unwind$fflush$fin$0       000000018004c1f4     libucrt:fflush.obj
 0002:000141f4       $unwind$?fin$0@?0???$?RV<lambda_5df02c53a8f32f81fd64e5bbb78039f1>@@AEAV<lambda_2af78c5f5901b1372d98f9ab3177dfa6>@@AEAV<lambda_f51fe5fd7c79a33db34fc9310f277369>@@@?$__crt_seh_guarded_call@X@@QEAAX$$QEAV<lambda_5df02c53a8f32f81fd64e5bbb78039f1>@@AEAV<lambda_2af78c5f5901b1372d98f9ab3177dfa6>@@AEAV<lambda_f51fe5fd7c79a33db34fc9310f277369>@@@Z@4HA 000000018004c1f4     libucrt:wsetlocale.obj
 0002:000141f4       $unwind$_query_new_handler$fin$0 000000018004c1f4     libucrt:new_handler.obj
 0002:000141f4       $unwind$?fin$0@?0???$?RV<lambda_fb3a7dec4e47f37f22dae91bb15c9095>@@AEAV<lambda_698284760c8add0bfb0756c19673e34b>@@V<lambda_dfb8eca1e75fef3034a8fb18dd509707>@@@?$__crt_seh_guarded_call@X@@QEAAX$$QEAV<lambda_fb3a7dec4e47f37f22dae91bb15c9095>@@AEAV<lambda_698284760c8add0bfb0756c19673e34b>@@$$QEAV<lambda_dfb8eca1e75fef3034a8fb18dd509707>@@@Z@4HA 000000018004c1f4     libucrt:per_thread_data.obj
 0002:000141f4       $unwind$fgetc$fin$0        000000018004c1f4     libucrt:fgetc.obj
 0002:000141f4       $unwind$__acrt_update_thread_locale_data$fin$0 000000018004c1f4     libucrt:locale_refcounting.obj
 0002:000141f4       $unwind$?fin$0@?0???$common_lseek@_J@@YA_JH_JH@Z@4HA 000000018004c1f4     libucrt:lseek.obj
 0002:000141f4       $unwind$?fin$0@?0???$common_fsopen@D@@YAPEAU_iobuf@@QEBD0H@Z@4HA 000000018004c1f4     libucrt:fopen.obj
 0002:000141f4       $unwind$?fin$0@?0??__acrt_stdio_allocate_stream@@YA?AV__crt_stdio_stream@@XZ@4HA 000000018004c1f4     libucrt:stream.obj
 0002:000141f4       $unwind$__DestructExceptionObject$filt$0 000000018004c1f4     libvcruntime:frame.obj
 0002:000141f4       $unwind$_ctrlfp$filt$0     000000018004c1f4     libucrt:fpctrl.obj
 0002:000141f4       $unwind$?fin$0@?0???$common_ftell@_J@@YA_JV__crt_stdio_stream@@@Z@4HA 000000018004c1f4     libucrt:ftell.obj
 0002:000141f4       $unwind$?fin$0@?0???$?RV<lambda_7b91131dde12e1c3dfc74ff76b3f2eac>@@AEAV<lambda_dd75445284c072d0bd3768540cc698fa>@@V<lambda_16bc4ecb55b4718497c16bceaea2ceaf>@@@?$__crt_seh_guarded_call@H@@QEAAH$$QEAV<lambda_7b91131dde12e1c3dfc74ff76b3f2eac>@@AEAV<lambda_dd75445284c072d0bd3768540cc698fa>@@$$QEAV<lambda_16bc4ecb55b4718497c16bceaea2ceaf>@@@Z@4HA 000000018004c1f4     libucrt:output.obj
 0002:000141f4       $unwind$__acrt_update_thread_multibyte_data$fin$0 000000018004c1f4     libucrt:mbctype.obj
 0002:000141f4       $unwind$fputc$fin$0        000000018004c1f4     libucrt:fputc.obj
 0002:000141f4       $unwind$?fin$0@?0???$?RV<lambda_aa279a7bcb127014629d5b1d62c7325d>@@AEAV<lambda_0a64b6a4deda75c01876f29c44fc5eb3>@@V<lambda_3323e69fbefe9d1a11713e670d47cdfa>@@@?$__crt_seh_guarded_call@H@@QEAAH$$QEAV<lambda_aa279a7bcb127014629d5b1d62c7325d>@@AEAV<lambda_0a64b6a4deda75c01876f29c44fc5eb3>@@$$QEAV<lambda_3323e69fbefe9d1a11713e670d47cdfa>@@@Z@4HA 000000018004c1f4     libucrt:output.obj
 0002:000141f4       $unwind$?fin$0@?0??common_fseek@@YAHV__crt_stdio_stream@@_JH@Z@4HA 000000018004c1f4     libucrt:fseek.obj
 0002:000141f4       $unwind$?fin$0@?0???$?RV<lambda_e24bbb7b643b32fcea6fa61b31d4c984>@@AEAV<lambda_275893d493268fdec8709772e3fcec0e>@@V<lambda_9d71df4d7cf3f480f8d633942495c3b0>@@@?$__crt_seh_guarded_call@H@@QEAAH$$QEAV<lambda_e24bbb7b643b32fcea6fa61b31d4c984>@@AEAV<lambda_275893d493268fdec8709772e3fcec0e>@@$$QEAV<lambda_9d71df4d7cf3f480f8d633942495c3b0>@@@Z@4HA 000000018004c1f4     libucrt:onexit.obj
 0002:000141f4       $unwind$_write$fin$0       000000018004c1f4     libucrt:write.obj
 0002:000141f4       $unwind$?fin$0@?0???$?RV<lambda_630b2aca97f6d20d5b5ea6529ea6b6af>@@AEAV<lambda_af91936f1d075d609f72d9d8cba980af>@@V<lambda_e82fa975f615b5c7c7b0e4d178fdae67>@@@?$__crt_seh_guarded_call@H@@QEAAH$$QEAV<lambda_630b2aca97f6d20d5b5ea6529ea6b6af>@@AEAV<lambda_af91936f1d075d609f72d9d8cba980af>@@$$QEAV<lambda_e82fa975f615b5c7c7b0e4d178fdae67>@@@Z@4HA 000000018004c1f4     libucrt:winapi_thunks.obj
 0002:000141f4       $unwind$?fin$0@?0???$?RV<lambda_99476a1ad63dd22509b5d3e65b0ffc95>@@AEAV<lambda_ad1ced32f4ac17aa236e5ef05d6b3b7c>@@V<lambda_f7424dd8d45958661754dc4f2697e9c3>@@@?$__crt_seh_guarded_call@X@@QEAAX$$QEAV<lambda_99476a1ad63dd22509b5d3e65b0ffc95>@@AEAV<lambda_ad1ced32f4ac17aa236e5ef05d6b3b7c>@@$$QEAV<lambda_f7424dd8d45958661754dc4f2697e9c3>@@@Z@4HA 000000018004c1f4     libucrt:mbctype.obj
 0002:000141f4       $unwind$__acrt_uninitialize_locale$fin$0 000000018004c1f4     libucrt:wsetlocale.obj
 0002:000141f4       $unwind$ungetc$fin$0       000000018004c1f4     libucrt:ungetc.obj
 0002:000141fc       $unwind$?dllmain_dispatch@@YAHQEAUHINSTANCE__@@KQEAX@Z 000000018004c1fc     LIBCMT:dll_dllmain.obj
 0002:00014224       $unwind$?filt$0@?0??dllmain_dispatch@@YAHQEAUHINSTANCE__@@KQEAX@Z@4HA 000000018004c224     LIBCMT:dll_dllmain.obj
 0002:00014224       $unwind$setlocale$fin$0    000000018004c224     libucrt:setlocale.obj
 0002:0001422c       $unwind$__GSHandlerCheckCommon 000000018004c22c     LIBCMT:_gshandler_.obj
 0002:00014238       $xdatasym                  000000018004c238     LIBCMT:_chkstk_.obj
 0002:00014240       $unwind$__report_securityfailure 000000018004c240     LIBCMT:gs_report.obj
 0002:00014248       $unwind$__report_gsfailure 000000018004c248     LIBCMT:gs_report.obj
 0002:00014248       $unwind$_putwch_nolock     000000018004c248     libucrt:putwch.obj
 0002:00014250       $unwind$capture_current_context 000000018004c250     LIBCMT:gs_report.obj
 0002:0001425c       $unwind$capture_previous_context 000000018004c25c     LIBCMT:gs_report.obj
 0002:00014268       $unwind$__scrt_fastfail    000000018004c268     LIBCMT:utility_desktop.obj
 0002:00014278       $unwind$_raise_exc         000000018004c278     libucrt:fpexcept.obj
 0002:00014278       $unwind$?__scrt_throw_std_bad_alloc@@YAXXZ 000000018004c278     LIBCMT:throw_bad_alloc.obj
 0002:00014278       $unwind$_raise_excf        000000018004c278     libucrt:fpexcept.obj
 0002:00014278       $unwind$?_Xbad_alloc@std@@YAXXZ 000000018004c278     libcpmt:xthrow.obj
 0002:00014278       $unwind$?_Xlength_error@std@@YAXPEBD@Z 000000018004c278     libcpmt:xthrow.obj
 0002:00014278       $unwind$?__scrt_throw_std_bad_array_new_length@@YAXXZ 000000018004c278     LIBCMT:throw_bad_alloc.obj
 0002:00014278       $unwind$__dcrt_lowio_initialize_console_output 000000018004c278     libucrt:initcon.obj
 0002:00014278       $unwind$?_Xout_of_range@std@@YAXPEBD@Z 000000018004c278     libcpmt:xthrow.obj
 0002:00014280       $unwind$__isa_available_init 000000018004c280     LIBCMT:_cpu_disp_.obj
 0002:00014290       $unwind$__security_init_cookie 000000018004c290     LIBCMT:gs_support.obj
 0002:000142a0       $xdatasym                  000000018004c2a0     LIBCMT:_guard_dispatch_.obj
 0002:000142a8       $xdatasym                  000000018004c2a8     libvcruntime:memcpy.obj
 0002:000142ac       $unwind$__CxxCallCatchBlock 000000018004c2ac     libvcruntime:frame.obj
 0002:000142e8       $unwind$__FrameUnwindToState 000000018004c2e8     libvcruntime:frame.obj
 0002:00014324       $unwind$?FindHandler@@YAXPEAUEHExceptionRecord@@PEA_KPEAU_CONTEXT@@PEAU_xDISPATCHER_CONTEXT@@PEBU_s_FuncInfo@@EH1@Z 000000018004c324     libvcruntime:frame.obj
 0002:00014344       $unwind$?CatchIt@@YAXPEAUEHExceptionRecord@@PEA_KPEAU_CONTEXT@@PEAU_xDISPATCHER_CONTEXT@@PEBU_s_FuncInfo@@PEBU_s_HandlerType@@PEBU_s_CatchableType@@PEBU_s_TryBlockMapEntry@@H1EE@Z 000000018004c344     libvcruntime:frame.obj
 0002:0001435c       $unwind$__BuildCatchObject 000000018004c35c     libvcruntime:frame.obj
 0002:00014388       $unwind$?FindHandlerForForeignException@@YAXPEAUEHExceptionRecord@@PEA_KPEAU_CONTEXT@@PEAU_xDISPATCHER_CONTEXT@@PEBU_s_FuncInfo@@HH1@Z 000000018004c388     libvcruntime:frame.obj
 0002:000143a0       $unwind$__DestructExceptionObject 000000018004c3a0     libvcruntime:frame.obj
 0002:000143c4       $unwind$?write_string@?$string_output_adapter@_W@__crt_stdio_output@@QEBAXQEB_WHQEAH1@Z 000000018004c3c4     libucrt:output.obj
 0002:000143c4       $unwind$?IsInExceptionSpec@@YAEPEAUEHExceptionRecord@@PEBU_s_ESTypeList@@@Z 000000018004c3c4     libvcruntime:frame.obj
 0002:000143c4       $unwind$_fwrite_nolock     000000018004c3c4     libucrt:fwrite.obj
 0002:000143c4       $unwind$?try_get_function@@YAPEAXW4function_id@?A0x679b24ab@@QEBDQEBW4module_id@2@2@Z 000000018004c3c4     libvcruntime:winapi_downlevel.obj
 0002:000143c4       $unwind$?try_get_function@@YAPEAXW4function_id@?A0x63058377@@QEBDQEBW4module_id@2@2@Z 000000018004c3c4     libucrt:winapi_thunks.obj
 0002:000143e0       $unwind$__BuildCatchObjectHelper 000000018004c3e0     libvcruntime:frame.obj
 0002:00014420       $unwind$_CxxThrowException 000000018004c420     libvcruntime:throw.obj
 0002:00014434       $unwind$?_GetEstablisherFrame@@YAPEA_KPEA_KPEAU_xDISPATCHER_CONTEXT@@PEBU_s_FuncInfo@@0@Z 000000018004c434     libvcruntime:trnsctrl.obj
 0002:0001444c       $unwind$?__FrameUnwindToEmptyState@@YAXPEA_KPEAU_xDISPATCHER_CONTEXT@@PEBU_s_FuncInfo@@@Z 000000018004c44c     libvcruntime:trnsctrl.obj
 0002:00014460       $unwind$_CallSETranslator  000000018004c460     libvcruntime:trnsctrl.obj
 0002:00014484       $unwind$_UnwindNestedFrames 000000018004c484     libvcruntime:trnsctrl.obj
 0002:00014498       $unwind$__CxxFrameHandler3 000000018004c498     libvcruntime:trnsctrl.obj
 0002:000144a8       $xdatasym                  000000018004c4a8     libvcruntime:memset.obj
 0002:000144b0       $xdatasym                  000000018004c4b0     libvcruntime:memcmp.obj
 0002:000144b4       $unwind$__InternalCxxFrameHandler 000000018004c4b4     libvcruntime:frame.obj
 0002:000144b4       $unwind$__C_specific_handler 000000018004c4b4     libvcruntime:_chandler_.obj
 0002:000144b4       $unwind$__acrt_locale_initialize_numeric 000000018004c4b4     libucrt:initnum.obj
 0002:000144d0       $xdatasym                  000000018004c4d0     libvcruntime:handlers.obj
 0002:000144d8       $xdatasym                  000000018004c4d8     libvcruntime:_jmpuwind_.obj
 0002:000144ec       $unwind$fputc              000000018004c4ec     libucrt:fputc.obj
 0002:00014520       $unwind$__acrt_call_reportfault 000000018004c520     libucrt:invalid_parameter.obj
 0002:00014540       $unwind$_invalid_parameter 000000018004c540     libucrt:invalid_parameter.obj
 0002:00014558       $unwind$fflush             000000018004c558     libucrt:fflush.obj
 0002:0001457c       $unwind$common_flush_all   000000018004c57c     libucrt:fflush.obj
 0002:000145b8       $unwind$fclose             000000018004c5b8     libucrt:fclose.obj
 0002:000145dc       $unwind$__stdio_common_vfprintf 000000018004c5dc     libucrt:output.obj
 0002:000145dc       $unwind$__stdio_common_vfwprintf 000000018004c5dc     libucrt:output.obj
 0002:000145e4       $unwind$__stdio_common_vswprintf 000000018004c5e4     libucrt:output.obj
 0002:000145e4       $unwind$__stdio_common_vsprintf 000000018004c5e4     libucrt:output.obj
 0002:00014608       $unwind$?parse_int_from_format_string@?$output_processor@DV?$string_output_adapter@D@__crt_stdio_output@@V?$format_validation_base@DV?$string_output_adapter@D@__crt_stdio_output@@@2@@__crt_stdio_output@@AEAA_NQEAH@Z 000000018004c608     libucrt:output.obj
 0002:00014608       $unwind$?parse_int_from_format_string@?$output_processor@DV?$string_output_adapter@D@__crt_stdio_output@@V?$standard_base@DV?$string_output_adapter@D@__crt_stdio_output@@@2@@__crt_stdio_output@@AEAA_NQEAH@Z 000000018004c608     libucrt:output.obj
 0002:00014608       $unwind$?parse_int_from_format_string@?$output_processor@DV?$stream_output_adapter@D@__crt_stdio_output@@V?$standard_base@DV?$stream_output_adapter@D@__crt_stdio_output@@@2@@__crt_stdio_output@@AEAA_NQEAH@Z 000000018004c608     libucrt:output.obj
 0002:0001461c       $unwind$?write_stored_string_tchar@?$output_processor@DV?$stream_output_adapter@D@__crt_stdio_output@@V?$standard_base@DV?$stream_output_adapter@D@__crt_stdio_output@@@2@@__crt_stdio_output@@AEAA_ND@Z 000000018004c61c     libucrt:output.obj
 0002:0001461c       $unwind$?write_stored_string_tchar@?$output_processor@DV?$string_output_adapter@D@__crt_stdio_output@@V?$standard_base@DV?$string_output_adapter@D@__crt_stdio_output@@@2@@__crt_stdio_output@@AEAA_ND@Z 000000018004c61c     libucrt:output.obj
 0002:0001461c       $unwind$?write_stored_string_tchar@?$output_processor@DV?$string_output_adapter@D@__crt_stdio_output@@V?$format_validation_base@DV?$string_output_adapter@D@__crt_stdio_output@@@2@@__crt_stdio_output@@AEAA_ND@Z 000000018004c61c     libucrt:output.obj
 0002:00014634       $unwind$?write_string@?$stream_output_adapter@_W@__crt_stdio_output@@QEBAXQEB_WHQEAH1@Z 000000018004c634     libucrt:output.obj
 0002:0001464c       $unwind$?process@?$output_processor@_WV?$stream_output_adapter@_W@__crt_stdio_output@@V?$standard_base@_WV?$stream_output_adapter@_W@__crt_stdio_output@@@2@@__crt_stdio_output@@QEAAHXZ 000000018004c64c     libucrt:output.obj
 0002:00014664       $unwind$?parse_int_from_format_string@?$output_processor@_WV?$string_output_adapter@_W@__crt_stdio_output@@V?$standard_base@_WV?$string_output_adapter@_W@__crt_stdio_output@@@2@@__crt_stdio_output@@AEAA_NQEAH@Z 000000018004c664     libucrt:output.obj
 0002:00014664       $unwind$?parse_int_from_format_string@?$output_processor@_WV?$stream_output_adapter@_W@__crt_stdio_output@@V?$standard_base@_WV?$stream_output_adapter@_W@__crt_stdio_output@@@2@@__crt_stdio_output@@AEAA_NQEAH@Z 000000018004c664     libucrt:output.obj
 0002:00014678       $unwind$?type_case_a@?$output_processor@_WV?$stream_output_adapter@_W@__crt_stdio_output@@V?$standard_base@_WV?$stream_output_adapter@_W@__crt_stdio_output@@@2@@__crt_stdio_output@@AEAA_NXZ 000000018004c678     libucrt:output.obj
 0002:00014678       $unwind$?type_case_a@?$output_processor@_WV?$string_output_adapter@_W@__crt_stdio_output@@V?$standard_base@_WV?$string_output_adapter@_W@__crt_stdio_output@@@2@@__crt_stdio_output@@AEAA_NXZ 000000018004c678     libucrt:output.obj
 0002:00014688       $unwind$?write_stored_string_tchar@?$output_processor@_WV?$stream_output_adapter@_W@__crt_stdio_output@@V?$standard_base@_WV?$stream_output_adapter@_W@__crt_stdio_output@@@2@@__crt_stdio_output@@AEAA_N_W@Z 000000018004c688     libucrt:output.obj
 0002:0001469c       $unwind$??R<lambda_0a64b6a4deda75c01876f29c44fc5eb3>@@QEBAHXZ 000000018004c69c     libucrt:output.obj
 0002:0001469c       $unwind$??R<lambda_dd75445284c072d0bd3768540cc698fa>@@QEBAHXZ 000000018004c69c     libucrt:output.obj
 0002:000146b8       $unwind$?process@?$output_processor@DV?$string_output_adapter@D@__crt_stdio_output@@V?$standard_base@DV?$string_output_adapter@D@__crt_stdio_output@@@2@@__crt_stdio_output@@QEAAHXZ 000000018004c6b8     libucrt:output.obj
 0002:000146b8       $unwind$?process@?$output_processor@DV?$stream_output_adapter@D@__crt_stdio_output@@V?$standard_base@DV?$stream_output_adapter@D@__crt_stdio_output@@@2@@__crt_stdio_output@@QEAAHXZ 000000018004c6b8     libucrt:output.obj
 0002:000146c8       $unwind$?state_case_type@?$output_processor@_WV?$string_output_adapter@_W@__crt_stdio_output@@V?$standard_base@_WV?$string_output_adapter@_W@__crt_stdio_output@@@2@@__crt_stdio_output@@AEAA_NXZ 000000018004c6c8     libucrt:output.obj
 0002:000146c8       $unwind$?state_case_type@?$output_processor@_WV?$stream_output_adapter@_W@__crt_stdio_output@@V?$standard_base@_WV?$stream_output_adapter@_W@__crt_stdio_output@@@2@@__crt_stdio_output@@AEAA_NXZ 000000018004c6c8     libucrt:output.obj
 0002:000146ec       $unwind$?write_stored_string_tchar@?$output_processor@_WV?$string_output_adapter@_W@__crt_stdio_output@@V?$standard_base@_WV?$string_output_adapter@_W@__crt_stdio_output@@@2@@__crt_stdio_output@@AEAA_N_W@Z 000000018004c6ec     libucrt:output.obj
 0002:00014700       $unwind$??$common_vsprintf@Vformat_validation_base@__crt_stdio_output@@D@@YAH_KQEAD0QEBDQEAU__crt_locale_pointers@@1@Z 000000018004c700     libucrt:output.obj
 0002:00014720       $unwind$??$write_multiple_characters@V?$stream_output_adapter@D@__crt_stdio_output@@D@__crt_stdio_output@@YAXAEBV?$stream_output_adapter@D@0@DHQEAH@Z 000000018004c720     libucrt:output.obj
 0002:00014738       $unwind$??$write_multiple_characters@V?$stream_output_adapter@_W@__crt_stdio_output@@D@__crt_stdio_output@@YAXAEBV?$stream_output_adapter@_W@0@DHQEAH@Z 000000018004c738     libucrt:output.obj
 0002:00014750       $unwind$??$write_multiple_characters@V?$string_output_adapter@_W@__crt_stdio_output@@D@__crt_stdio_output@@YAXAEBV?$string_output_adapter@_W@0@DHQEAH@Z 000000018004c750     libucrt:output.obj
 0002:0001475c       $unwind$??$type_case_integer_parse_into_buffer@_K@?$output_processor@DV?$string_output_adapter@D@__crt_stdio_output@@V?$format_validation_base@DV?$string_output_adapter@D@__crt_stdio_output@@@2@@__crt_stdio_output@@AEAAX_KI_N@Z 000000018004c75c     libucrt:output.obj
 0002:0001475c       $unwind$??$type_case_integer_parse_into_buffer@_K@?$output_processor@DV?$stream_output_adapter@D@__crt_stdio_output@@V?$standard_base@DV?$stream_output_adapter@D@__crt_stdio_output@@@2@@__crt_stdio_output@@AEAAX_KI_N@Z 000000018004c75c     libucrt:output.obj
 0002:0001475c       $unwind$??$type_case_integer_parse_into_buffer@I@?$output_processor@DV?$stream_output_adapter@D@__crt_stdio_output@@V?$standard_base@DV?$stream_output_adapter@D@__crt_stdio_output@@@2@@__crt_stdio_output@@AEAAXII_N@Z 000000018004c75c     libucrt:output.obj
 0002:0001475c       $unwind$??$type_case_integer_parse_into_buffer@I@?$output_processor@DV?$string_output_adapter@D@__crt_stdio_output@@V?$standard_base@DV?$string_output_adapter@D@__crt_stdio_output@@@2@@__crt_stdio_output@@AEAAXII_N@Z 000000018004c75c     libucrt:output.obj
 0002:0001475c       $unwind$??$type_case_integer_parse_into_buffer@_K@?$output_processor@_WV?$stream_output_adapter@_W@__crt_stdio_output@@V?$standard_base@_WV?$stream_output_adapter@_W@__crt_stdio_output@@@2@@__crt_stdio_output@@AEAAX_KI_N@Z 000000018004c75c     libucrt:output.obj
 0002:0001475c       $unwind$??$type_case_integer_parse_into_buffer@_K@?$output_processor@_WV?$string_output_adapter@_W@__crt_stdio_output@@V?$standard_base@_WV?$string_output_adapter@_W@__crt_stdio_output@@@2@@__crt_stdio_output@@AEAAX_KI_N@Z 000000018004c75c     libucrt:output.obj
 0002:0001475c       $unwind$??$write_multiple_characters@V?$string_output_adapter@D@__crt_stdio_output@@D@__crt_stdio_output@@YAXAEBV?$string_output_adapter@D@0@DHQEAH@Z 000000018004c75c     libucrt:output.obj
 0002:0001475c       $unwind$??$type_case_integer_parse_into_buffer@I@?$output_processor@_WV?$string_output_adapter@_W@__crt_stdio_output@@V?$standard_base@_WV?$string_output_adapter@_W@__crt_stdio_output@@@2@@__crt_stdio_output@@AEAAXII_N@Z 000000018004c75c     libucrt:output.obj
 0002:0001475c       $unwind$??$type_case_integer_parse_into_buffer@I@?$output_processor@DV?$string_output_adapter@D@__crt_stdio_output@@V?$format_validation_base@DV?$string_output_adapter@D@__crt_stdio_output@@@2@@__crt_stdio_output@@AEAAXII_N@Z 000000018004c75c     libucrt:output.obj
 0002:0001475c       $unwind$??$type_case_integer_parse_into_buffer@_K@?$output_processor@DV?$string_output_adapter@D@__crt_stdio_output@@V?$standard_base@DV?$string_output_adapter@D@__crt_stdio_output@@@2@@__crt_stdio_output@@AEAAX_KI_N@Z 000000018004c75c     libucrt:output.obj
 0002:0001475c       $unwind$??$parse_floating_point_possible_nan_is_ind@DV?$input_adapter_character_source@V?$string_input_adapter@D@__crt_stdio_input@@@__crt_strtox@@@__crt_strtox@@YA_NAEADAEAV?$input_adapter_character_source@V?$string_input_adapter@D@__crt_stdio_input@@@0@@Z 000000018004c75c     libucrt:input.obj
 0002:0001475c       $unwind$??$parse_floating_point_possible_nan_is_snan@DV?$input_adapter_character_source@V?$string_input_adapter@D@__crt_stdio_input@@@__crt_strtox@@@__crt_strtox@@YA_NAEADAEAV?$input_adapter_character_source@V?$string_input_adapter@D@__crt_stdio_input@@@0@@Z 000000018004c75c     libucrt:input.obj
 0002:0001475c       $unwind$??$type_case_integer_parse_into_buffer@I@?$output_processor@_WV?$stream_output_adapter@_W@__crt_stdio_output@@V?$standard_base@_WV?$stream_output_adapter@_W@__crt_stdio_output@@@2@@__crt_stdio_output@@AEAAXII_N@Z 000000018004c75c     libucrt:output.obj
 0002:00014764       $unwind$??$?RV<lambda_aa279a7bcb127014629d5b1d62c7325d>@@AEAV<lambda_0a64b6a4deda75c01876f29c44fc5eb3>@@V<lambda_3323e69fbefe9d1a11713e670d47cdfa>@@@?$__crt_seh_guarded_call@H@@QEAAH$$QEAV<lambda_aa279a7bcb127014629d5b1d62c7325d>@@AEAV<lambda_0a64b6a4deda75c01876f29c44fc5eb3>@@$$QEAV<lambda_3323e69fbefe9d1a11713e670d47cdfa>@@@Z 000000018004c764     libucrt:output.obj
 0002:00014788       $unwind$??$?RV<lambda_7b91131dde12e1c3dfc74ff76b3f2eac>@@AEAV<lambda_dd75445284c072d0bd3768540cc698fa>@@V<lambda_16bc4ecb55b4718497c16bceaea2ceaf>@@@?$__crt_seh_guarded_call@H@@QEAAH$$QEAV<lambda_7b91131dde12e1c3dfc74ff76b3f2eac>@@AEAV<lambda_dd75445284c072d0bd3768540cc698fa>@@$$QEAV<lambda_16bc4ecb55b4718497c16bceaea2ceaf>@@@Z 000000018004c788     libucrt:output.obj
 0002:000147ac       $unwind$?state_case_type@?$output_processor@DV?$stream_output_adapter@D@__crt_stdio_output@@V?$standard_base@DV?$stream_output_adapter@D@__crt_stdio_output@@@2@@__crt_stdio_output@@AEAA_NXZ 000000018004c7ac     libucrt:output.obj
 0002:000147ac       $unwind$?state_case_type@?$output_processor@DV?$string_output_adapter@D@__crt_stdio_output@@V?$format_validation_base@DV?$string_output_adapter@D@__crt_stdio_output@@@2@@__crt_stdio_output@@AEAA_NXZ 000000018004c7ac     libucrt:output.obj
 0002:000147ac       $unwind$?state_case_type@?$output_processor@DV?$string_output_adapter@D@__crt_stdio_output@@V?$standard_base@DV?$string_output_adapter@D@__crt_stdio_output@@@2@@__crt_stdio_output@@AEAA_NXZ 000000018004c7ac     libucrt:output.obj
 0002:000147ac       $unwind$?configure_text_mode@@YAHHUfile_options@?A0x656cf9f4@@HAEAW4__crt_lowio_text_mode@@@Z 000000018004c7ac     libucrt:open.obj
 0002:000147c4       $unwind$?type_case_a@?$output_processor@DV?$string_output_adapter@D@__crt_stdio_output@@V?$standard_base@DV?$string_output_adapter@D@__crt_stdio_output@@@2@@__crt_stdio_output@@AEAA_NXZ 000000018004c7c4     libucrt:output.obj
 0002:000147c4       $unwind$?type_case_a@?$output_processor@DV?$string_output_adapter@D@__crt_stdio_output@@V?$format_validation_base@DV?$string_output_adapter@D@__crt_stdio_output@@@2@@__crt_stdio_output@@AEAA_NXZ 000000018004c7c4     libucrt:output.obj
 0002:000147c4       $unwind$?type_case_a@?$output_processor@DV?$stream_output_adapter@D@__crt_stdio_output@@V?$standard_base@DV?$stream_output_adapter@D@__crt_stdio_output@@@2@@__crt_stdio_output@@AEAA_NXZ 000000018004c7c4     libucrt:output.obj
 0002:000147d0       $unwind$fgetc              000000018004c7d0     libucrt:fgetc.obj
 0002:00014804       $unwind$GetTableIndexFromLocaleName 000000018004c804     libcpmt:winapinls.obj
 0002:00014804       $unwind$__acrt_GetLocaleInfoEx 000000018004c804     libucrt:winapi_thunks.obj
 0002:00014804       $unwind$TranslateName      000000018004c804     libucrt:getqloc_downlevel.obj
 0002:00014804       $unwind$__TypeMatch        000000018004c804     libvcruntime:frame.obj
 0002:00014804       $unwind$__acrt_lowio_set_os_handle 000000018004c804     libucrt:osfinfo.obj
 0002:00014804       $unwind$_initterm          000000018004c804     libucrt:initterm.obj
 0002:00014804       $unwind$__acrt_LCIDToLocaleName 000000018004c804     libucrt:winapi_thunks.obj
 0002:00014804       $unwind$__acrt_MessageBoxW 000000018004c804     libucrt:winapi_thunks.obj
 0002:00014804       $unwind$??$_Xfiopen@D@std@@YAPEAU_iobuf@@PEBDHH@Z 000000018004c804     libcpmt:fiopen.obj
 0002:00014804       $unwind$?process@?$output_processor@_WV?$string_output_adapter@_W@__crt_stdio_output@@V?$standard_base@_WV?$string_output_adapter@_W@__crt_stdio_output@@@2@@__crt_stdio_output@@QEAAHXZ 000000018004c804     libucrt:output.obj
 0002:00014804       $unwind$??$process_string_specifier_tchar@D@?$input_processor@DV?$string_input_adapter@D@__crt_stdio_input@@@__crt_stdio_input@@AEAA_NW4conversion_mode@1@D@Z 000000018004c804     libucrt:input.obj
 0002:00014804       $unwind$__acrt_initialize_stdio 000000018004c804     libucrt:_file.obj
 0002:00014820       $xdatasym                  000000018004c820     libucrt:strncmp.obj
 0002:00014824       $unwind$fwrite             000000018004c824     libucrt:fwrite.obj
 0002:0001482c       $unwind$??$?RV<lambda_5d4c3fee44080f75d5d9762853974fe0>@@AEAV<lambda_532e024f4337e6fc7ad266c2bef9f4ed>@@V<lambda_c87bdc10097eb2402edb8ba9bdf0697b>@@@?$__crt_seh_guarded_call@_K@@QEAA_K$$QEAV<lambda_5d4c3fee44080f75d5d9762853974fe0>@@AEAV<lambda_532e024f4337e6fc7ad266c2bef9f4ed>@@$$QEAV<lambda_c87bdc10097eb2402edb8ba9bdf0697b>@@@Z 000000018004c82c     libucrt:fwrite.obj
 0002:00014850       $unwind$setvbuf            000000018004c850     libucrt:setvbuf.obj
 0002:00014858       $unwind$??$?RV<lambda_7a5ef57ff966f610505f1d28a3d40618>@@AEAV<lambda_b721fa326cdb32351d23dfa67958c160>@@V<lambda_5e0fb27672408a07956fe59e48ccb2aa>@@@?$__crt_seh_guarded_call@H@@QEAAH$$QEAV<lambda_7a5ef57ff966f610505f1d28a3d40618>@@AEAV<lambda_b721fa326cdb32351d23dfa67958c160>@@$$QEAV<lambda_5e0fb27672408a07956fe59e48ccb2aa>@@@Z 000000018004c858     libucrt:setvbuf.obj
 0002:0001487c       $unwind$ungetc             000000018004c87c     libucrt:ungetc.obj
 0002:000148a0       $unwind$frexp              000000018004c8a0     libucrt:frexp.obj
 0002:000148b4       $unwind$?_wcstombs_l_helper@@YA_KPEADPEB_W_KPEAU__crt_locale_pointers@@@Z 000000018004c8b4     libucrt:wcstombs.obj
 0002:000148d4       $unwind$?common_fseek_binary_mode_read_only_fast_track_nolock@@YA_NV__crt_stdio_stream@@_JH@Z 000000018004c8d4     libucrt:fseek.obj
 0002:000148e0       $unwind$_raise_exc_ex      000000018004c8e0     libucrt:fpexcept.obj
 0002:000148e0       $unwind$?common_fseek_nolock@@YAHV__crt_stdio_stream@@_JH@Z 000000018004c8e0     libucrt:fseek.obj
 0002:000148e0       $unwind$??$common_refill_and_read_nolock@D@@YAHV__crt_stdio_stream@@@Z 000000018004c8e0     libucrt:_filbuf.obj
 0002:000148f4       $unwind$?common_fseek@@YAHV__crt_stdio_stream@@_JH@Z 000000018004c8f4     libucrt:fseek.obj
 0002:00014918       $unwind$??$common_assert_to_stderr@_W@@YAXQEB_W0I@Z 000000018004c918     libucrt:assert.obj
 0002:00014934       $unwind$??$common_assert_to_message_box@_W@@YAXQEB_W0IQEAX@Z 000000018004c934     libucrt:assert.obj
 0002:00014950       $unwind$??$common_assert_to_message_box_build_string@_W@@YAXQEA_W_KQEB_W2IQEAX@Z 000000018004c950     libucrt:assert.obj
 0002:00014970       $unwind$?common_exit@@YAXHW4_crt_exit_cleanup_mode@@W4_crt_exit_return_mode@@@Z 000000018004c970     libucrt:exit.obj
 0002:000149b0       $unwind$__acrt_get_sigabrt_handler 000000018004c9b0     libucrt:signal.obj
 0002:000149b8       $unwind$raise              000000018004c9b8     libucrt:signal.obj
 0002:000149e4       $unwind$??$?RV<lambda_c36588078e9f5dfd39652860aa6b3aaf>@@AEAV<lambda_ec61778202f4f5fc7e7711acc23c3bca>@@V<lambda_dc9d2797ccde5d239b4a0efae8ebd7db>@@@?$__crt_seh_guarded_call@P6AXH@Z@@QEAAP6AXH@Z$$QEAV<lambda_c36588078e9f5dfd39652860aa6b3aaf>@@AEAV<lambda_ec61778202f4f5fc7e7711acc23c3bca>@@$$QEAV<lambda_dc9d2797ccde5d239b4a0efae8ebd7db>@@@Z 000000018004c9e4     libucrt:signal.obj
 0002:00014a08       $unwind$__stdio_common_vsscanf 000000018004ca08     libucrt:input.obj
 0002:00014a2c       $unwind$?divide@__crt_strtox@@YA_KAEAUbig_integer@1@AEBU21@@Z 000000018004ca2c     libucrt:input.obj
 0002:00014a4c       $chain$5$?divide@__crt_strtox@@YA_KAEAUbig_integer@1@AEBU21@@Z 000000018004ca4c     libucrt:input.obj
 0002:00014a60       $chain$6$?divide@__crt_strtox@@YA_KAEAUbig_integer@1@AEBU21@@Z 000000018004ca60     libucrt:input.obj
 0002:00014a70       $unwind$_wsetlocale_get_all 000000018004ca70     libucrt:wsetlocale.obj
 0002:00014a70       $unwind$?assemble_floating_point_value_from_big_integer@__crt_strtox@@YA?AW4SLD_STATUS@@AEBUbig_integer@1@I_N1AEBVfloating_point_value@1@@Z 000000018004ca70     libucrt:input.obj
 0002:00014a8c       $unwind$?convert_decimal_string_to_floating_type_common@__crt_strtox@@YA?AW4SLD_STATUS@@AEBUfloating_point_string@1@AEBVfloating_point_value@1@@Z 000000018004ca8c     libucrt:input.obj
 0002:00014ab0       $unwind$??$__acrt_stdio_parse_mode@D@@YA?AU__acrt_stdio_stream_mode@@QEBD@Z 000000018004cab0     libucrt:openfile.obj
 0002:00014ab0       $unwind$?convert_hexadecimal_string_to_floating_type_common@__crt_strtox@@YA?AW4SLD_STATUS@@AEBUfloating_point_string@1@AEBVfloating_point_value@1@@Z 000000018004cab0     libucrt:input.obj
 0002:00014abc       $unwind$?write_character@?$input_processor@DV?$string_input_adapter@D@__crt_stdio_input@@@__crt_stdio_input@@AEAA_NQEFA_W_KAEAPEFA_WAEA_KD@Z 000000018004cabc     libucrt:input.obj
 0002:00014acc       $unwind$?process_integer_specifier@?$input_processor@DV?$string_input_adapter@D@__crt_stdio_input@@@__crt_stdio_input@@AEAA_NI_N@Z 000000018004cacc     libucrt:input.obj
 0002:00014ae0       $unwind$??$process_string_specifier_tchar@_W@?$input_processor@DV?$string_input_adapter@D@__crt_stdio_input@@@__crt_stdio_input@@AEAA_NW4conversion_mode@1@_W@Z 000000018004cae0     libucrt:input.obj
 0002:00014af8       $unwind$??$process_floating_point_specifier_t@M@?$input_processor@DV?$string_input_adapter@D@__crt_stdio_input@@@__crt_stdio_input@@AEAA_NXZ 000000018004caf8     libucrt:input.obj
 0002:00014af8       $unwind$??$process_floating_point_specifier_t@N@?$input_processor@DV?$string_input_adapter@D@__crt_stdio_input@@@__crt_stdio_input@@AEAA_NXZ 000000018004caf8     libucrt:input.obj
 0002:00014b04       $unwind$??$parse_floating_point@V?$input_adapter_character_source@V?$string_input_adapter@D@__crt_stdio_input@@@__crt_strtox@@M@__crt_strtox@@YA?AW4SLD_STATUS@@QEAU__crt_locale_pointers@@V?$input_adapter_character_source@V?$string_input_adapter@D@__crt_stdio_input@@@0@QEAM@Z 000000018004cb04     libucrt:input.obj
 0002:00014b04       $unwind$??$parse_floating_point@V?$input_adapter_character_source@V?$string_input_adapter@D@__crt_stdio_input@@@__crt_strtox@@N@__crt_strtox@@YA?AW4SLD_STATUS@@QEAU__crt_locale_pointers@@V?$input_adapter_character_source@V?$string_input_adapter@D@__crt_stdio_input@@@0@QEAN@Z 000000018004cb04     libucrt:input.obj
 0002:00014b1c       $unwind$??$parse_floating_point_from_source@V?$input_adapter_character_source@V?$string_input_adapter@D@__crt_stdio_input@@@__crt_strtox@@@__crt_strtox@@YA?AW4floating_point_parse_result@0@QEAU__crt_locale_pointers@@AEAV?$input_adapter_character_source@V?$string_input_adapter@D@__crt_stdio_input@@@0@AEAUfloating_point_string@0@@Z 000000018004cb1c     libucrt:input.obj
 0002:00014b34       $unwind$??$parse_floating_point_possible_infinity@DV?$input_adapter_character_source@V?$string_input_adapter@D@__crt_stdio_input@@@__crt_strtox@@_K@__crt_strtox@@YA?AW4floating_point_parse_result@0@AEADAEAV?$input_adapter_character_source@V?$string_input_adapter@D@__crt_stdio_input@@@0@_K@Z 000000018004cb34     libucrt:input.obj
 0002:00014b3c       $unwind$??$parse_floating_point_possible_nan@DV?$input_adapter_character_source@V?$string_input_adapter@D@__crt_stdio_input@@@__crt_strtox@@_K@__crt_strtox@@YA?AW4floating_point_parse_result@0@AEADAEAV?$input_adapter_character_source@V?$string_input_adapter@D@__crt_stdio_input@@@0@_K@Z 000000018004cb3c     libucrt:input.obj
 0002:00014b48       $unwind$??$common_getenv@D@@YAPEADQEBD@Z 000000018004cb48     libucrt:getenv.obj
 0002:00014b68       $unwind$setlocale          000000018004cb68     libucrt:setlocale.obj
 0002:00014b98       $unwind$call_wsetlocale    000000018004cb98     libucrt:setlocale.obj
 0002:00014bac       $unwind$??$common_fsopen@D@@YAPEAU_iobuf@@QEBD0H@Z 000000018004cbac     libucrt:fopen.obj
 0002:00014bd4       $unwind$isupper            000000018004cbd4     libucrt:_ctype.obj
 0002:00014bd4       $unwind$isspace            000000018004cbd4     libucrt:_ctype.obj
 0002:00014bd4       $unwind$islower            000000018004cbd4     libucrt:_ctype.obj
 0002:00014bd4       $unwind$?getSystemCP@@YAHH@Z 000000018004cbd4     libucrt:mbctype.obj
 0002:00014bd4       $unwind$isdigit            000000018004cbd4     libucrt:_ctype.obj
 0002:00014bd4       $unwind$_isleadbyte_l      000000018004cbd4     libucrt:_wctype.obj
 0002:00014bdc       $unwind$_wcsdup            000000018004cbdc     libucrt:wcsdup.obj
 0002:00014bdc       $unwind$__lc_lctowcs       000000018004cbdc     libucrt:wsetlocale.obj
 0002:00014bdc       $unwind$__acrt_DownlevelLCIDToLocaleName 000000018004cbdc     libucrt:lcidtoname_downlevel.obj
 0002:00014bf0       $unwind$__acrt_locale_initialize_ctype 000000018004cbf0     libucrt:initctype.obj
 0002:00014c18       $xdatasym                  000000018004cc18     libucrt:pow.obj
 0002:00014c28       $xdatasym                  000000018004cc28     libucrt:powf.obj
 0002:00014c38       $unwind$_tolower_l         000000018004cc38     libucrt:tolower_toupper.obj
 0002:00014c48       $unwind$strnlen            000000018004cc48     libucrt:strnlen.obj
 0002:00014c48       $unwind$wcsnlen            000000018004cc48     libucrt:strnlen.obj
 0002:00014c50       $unwind$_query_new_handler 000000018004cc50     libucrt:new_handler.obj
 0002:00014c70       $unwind$_configure_narrow_argv 000000018004cc70     libucrt:argv_parsing.obj
 0002:00014c84       $unwind$??$free_environment@_W@@YAXQEAPEA_W@Z 000000018004cc84     libucrt:environment_initialization.obj
 0002:00014c84       $unwind$??$free_environment@D@@YAXQEAPEAD@Z 000000018004cc84     libucrt:environment_initialization.obj
 0002:00014c90       $unwind$??$initialize_environment_by_cloning_nolock@D@@YAHXZ 000000018004cc90     libucrt:environment_initialization.obj
 0002:00014ca0       $unwind$_register_onexit_function 000000018004cca0     libucrt:onexit.obj
 0002:00014ca8       $unwind$_execute_onexit_table 000000018004cca8     libucrt:onexit.obj
 0002:00014cb0       $unwind$??$?RV<lambda_b8c45f8f788dd370798f47cfe8ac3a86>@@AEAV<lambda_4e60a939b0d047cfe11ddc22648dfba9>@@V<lambda_332c3edc96d0294ec56c57d38c1cdfd5>@@@?$__crt_seh_guarded_call@H@@QEAAH$$QEAV<lambda_b8c45f8f788dd370798f47cfe8ac3a86>@@AEAV<lambda_4e60a939b0d047cfe11ddc22648dfba9>@@$$QEAV<lambda_332c3edc96d0294ec56c57d38c1cdfd5>@@@Z 000000018004ccb0     libucrt:onexit.obj
 0002:00014cd4       $unwind$??$?RV<lambda_e24bbb7b643b32fcea6fa61b31d4c984>@@AEAV<lambda_275893d493268fdec8709772e3fcec0e>@@V<lambda_9d71df4d7cf3f480f8d633942495c3b0>@@@?$__crt_seh_guarded_call@H@@QEAAH$$QEAV<lambda_e24bbb7b643b32fcea6fa61b31d4c984>@@AEAV<lambda_275893d493268fdec8709772e3fcec0e>@@$$QEAV<lambda_9d71df4d7cf3f480f8d633942495c3b0>@@@Z 000000018004ccd4     libucrt:onexit.obj
 0002:00014d04       $unwind$terminate          000000018004cd04     libucrt:terminate.obj
 0002:00014d24       $unwind$_invalid_parameter_noinfo 000000018004cd24     libucrt:invalid_parameter.obj
 0002:00014d24       $unwind$wctomb_s           000000018004cd24     libucrt:wctomb.obj
 0002:00014d24       $unwind$??$parse_floating_point_write_result@N@__crt_strtox@@YA?AW4SLD_STATUS@@W4floating_point_parse_result@0@AEBUfloating_point_string@0@QEAN@Z 000000018004cd24     libucrt:input.obj
 0002:00014d24       $unwind$_itow_s            000000018004cd24     libucrt:xtoa.obj
 0002:00014d24       $unwind$_invalid_parameter_noinfo_noreturn 000000018004cd24     libucrt:invalid_parameter.obj
 0002:00014d24       $unwind$??$parse_floating_point_write_result@M@__crt_strtox@@YA?AW4SLD_STATUS@@W4floating_point_parse_result@0@AEBUfloating_point_string@0@QEAM@Z 000000018004cd24     libucrt:input.obj
 0002:00014d24       $unwind$_sopen_s           000000018004cd24     libucrt:open.obj
 0002:00014d24       $unwind$mbstowcs_s         000000018004cd24     libucrt:mbstowcs.obj
 0002:00014d24       $unwind$_wtol              000000018004cd24     libucrt:atox.obj
 0002:00014d24       $unwind$_log10_special     000000018004cd24     libucrt:log_special.obj
 0002:00014d24       $unwind$?as_double@floating_point_value@__crt_strtox@@QEBAAEANXZ 000000018004cd24     libucrt:input.obj
 0002:00014d24       $unwind$wcstombs_s         000000018004cd24     libucrt:wcstombs.obj
 0002:00014d24       $unwind$?as_float@floating_point_value@__crt_strtox@@QEBAAEAMXZ 000000018004cd24     libucrt:input.obj
 0002:00014d2c       $unwind$??$parse_integer@KV?$c_string_character_source@D@__crt_strtox@@@__crt_strtox@@YAKQEAU__crt_locale_pointers@@V?$c_string_character_source@D@0@H_N@Z 000000018004cd2c     libucrt:atox.obj
 0002:00014d2c       $unwind$??$parse_integer@_KV?$input_adapter_character_source@V?$string_input_adapter@D@__crt_stdio_input@@@__crt_strtox@@@__crt_strtox@@YA_KQEAU__crt_locale_pointers@@V?$input_adapter_character_source@V?$string_input_adapter@D@__crt_stdio_input@@@0@H_N@Z 000000018004cd2c     libucrt:input.obj
 0002:00014d2c       $unwind$??$parse_integer@_KV?$c_string_character_source@D@__crt_strtox@@@__crt_strtox@@YA_KQEAU__crt_locale_pointers@@V?$c_string_character_source@D@0@H_N@Z 000000018004cd2c     libucrt:atox.obj
 0002:00014d48       $unwind$??$parse_integer@KV?$c_string_character_source@_W@__crt_strtox@@@__crt_strtox@@YAKQEAU__crt_locale_pointers@@V?$c_string_character_source@_W@0@H_N@Z 000000018004cd48     libucrt:atox.obj
 0002:00014d64       $unwind$??$write_buffer_nolock@D@@YA_NDV__crt_stdio_stream@@@Z 000000018004cd64     libucrt:_flsbuf.obj
 0002:00014d74       $unwind$??$write_buffer_nolock@_W@@YA_N_WV__crt_stdio_stream@@@Z 000000018004cd74     libucrt:_flsbuf.obj
 0002:00014d84       $unwind$__acrt_initialize_lowio 000000018004cd84     libucrt:ioinit.obj
 0002:00014da4       $unwind$?initialize_inherited_file_handles_nolock@@YAXXZ 000000018004cda4     libucrt:ioinit.obj
 0002:00014dc0       $unwind$?construct_ptd_array@@YAXQEAU__acrt_ptd@@@Z 000000018004cdc0     libucrt:per_thread_data.obj
 0002:00014dc8       $unwind$?destroy_ptd_array@@YAXQEAU__acrt_ptd@@@Z 000000018004cdc8     libucrt:per_thread_data.obj
 0002:00014dd0       $unwind$??$?RV<lambda_72d1df2b273a38828b1ce30cbf4cdab5>@@AEAV<lambda_876a65b173b8412d3a47c70a915b0cf4>@@V<lambda_41932305e351933ebe8f8be3ed8bb5dc>@@@?$__crt_seh_guarded_call@X@@QEAAX$$QEAV<lambda_72d1df2b273a38828b1ce30cbf4cdab5>@@AEAV<lambda_876a65b173b8412d3a47c70a915b0cf4>@@$$QEAV<lambda_41932305e351933ebe8f8be3ed8bb5dc>@@@Z 000000018004cdd0     libucrt:per_thread_data.obj
 0002:00014df4       $unwind$??$?RV<lambda_5e887d1dcbef67a5eb4283622ba103bf>@@AEAV<lambda_4466841279450cc726390878d4a41900>@@V<lambda_341c25c0346d94847f1f3c463c57e077>@@@?$__crt_seh_guarded_call@X@@QEAAX$$QEAV<lambda_5e887d1dcbef67a5eb4283622ba103bf>@@AEAV<lambda_4466841279450cc726390878d4a41900>@@$$QEAV<lambda_341c25c0346d94847f1f3c463c57e077>@@@Z 000000018004cdf4     libucrt:per_thread_data.obj
 0002:00014e18       $unwind$??$?RV<lambda_46352004c1216016012b18bd6f87e700>@@AEAV<lambda_3bd07e1a1191394380780325891bf33f>@@V<lambda_334532d3f185bcaa59b5be82d7d22bff>@@@?$__crt_seh_guarded_call@X@@QEAAX$$QEAV<lambda_46352004c1216016012b18bd6f87e700>@@AEAV<lambda_3bd07e1a1191394380780325891bf33f>@@$$QEAV<lambda_334532d3f185bcaa59b5be82d7d22bff>@@@Z 000000018004ce18     libucrt:per_thread_data.obj
 0002:00014e3c       $unwind$??$?RV<lambda_fb3a7dec4e47f37f22dae91bb15c9095>@@AEAV<lambda_698284760c8add0bfb0756c19673e34b>@@V<lambda_dfb8eca1e75fef3034a8fb18dd509707>@@@?$__crt_seh_guarded_call@X@@QEAAX$$QEAV<lambda_fb3a7dec4e47f37f22dae91bb15c9095>@@AEAV<lambda_698284760c8add0bfb0756c19673e34b>@@$$QEAV<lambda_dfb8eca1e75fef3034a8fb18dd509707>@@@Z 000000018004ce3c     libucrt:per_thread_data.obj
 0002:00014e60       $unwind$??$?RV<lambda_b521505b218e5242e90febf6bfebc422>@@AEAV<lambda_6978c1fb23f02e42e1d9e99668cc68aa>@@V<lambda_314360699dd331753a4119843814e9a7>@@@?$__crt_seh_guarded_call@H@@QEAAH$$QEAV<lambda_b521505b218e5242e90febf6bfebc422>@@AEAV<lambda_6978c1fb23f02e42e1d9e99668cc68aa>@@$$QEAV<lambda_314360699dd331753a4119843814e9a7>@@@Z 000000018004ce60     libucrt:commit.obj
 0002:00014e84       $unwind$_write             000000018004ce84     libucrt:write.obj
 0002:00014eb4       $unwind$_write_nolock      000000018004ceb4     libucrt:write.obj
 0002:00014ecc       $unwind$?write_double_translated_ansi_nolock@@YA?AUwrite_result@?A0x9c548279@@HQEBDI@Z 000000018004cecc     libucrt:write.obj
 0002:00014eec       $unwind$?write_text_utf16le_nolock@@YA?AUwrite_result@?A0x9c548279@@HQEBDI@Z 000000018004ceec     libucrt:write.obj
 0002:00014eec       $unwind$?write_text_ansi_nolock@@YA?AUwrite_result@?A0x9c548279@@HQEBDI@Z 000000018004ceec     libucrt:write.obj
 0002:00014f0c       $unwind$?write_text_utf8_nolock@@YA?AUwrite_result@?A0x9c548279@@HQEBDI@Z 000000018004cf0c     libucrt:write.obj
 0002:00014f30       $unwind$_close             000000018004cf30     libucrt:close.obj
 0002:00014f30       $unwind$_commit            000000018004cf30     libucrt:commit.obj
 0002:00014f38       $unwind$??$?RV<lambda_bfedae4ebbf01fab1bb6dcc6a9e276e0>@@AEAV<lambda_2fe9b910cf3cbf4a0ab98a02ba45b3ec>@@V<lambda_237c231691f317818eb88cc1d5d642d6>@@@?$__crt_seh_guarded_call@H@@QEAAH$$QEAV<lambda_bfedae4ebbf01fab1bb6dcc6a9e276e0>@@AEAV<lambda_2fe9b910cf3cbf4a0ab98a02ba45b3ec>@@$$QEAV<lambda_237c231691f317818eb88cc1d5d642d6>@@@Z 000000018004cf38     libucrt:close.obj
 0002:00014f5c       $unwind$?__acrt_stdio_allocate_stream@@YA?AV__crt_stdio_stream@@XZ 000000018004cf5c     libucrt:stream.obj
 0002:00014f7c       $unwind$_wctomb_s_l        000000018004cf7c     libucrt:wctomb.obj
 0002:00014f8c       $unwind$__acrt_fp_format   000000018004cf8c     libucrt:cvt.obj
 0002:00014fa8       $unwind$?fp_format_nan_or_infinity@@YAHW4__acrt_fp_class@@_NPEAD_K1@Z 000000018004cfa8     libucrt:cvt.obj
 0002:00014fbc       $unwind$?fp_format_e_internal@@YAHQEAD_KH_NIQEAU_strflt@@2QEAU__crt_locale_pointers@@@Z 000000018004cfbc     libucrt:cvt.obj
 0002:00014fd4       $unwind$?fp_format_a@@YAHQEBNPEAD_KQEAD2H_NIQEAU__crt_locale_pointers@@@Z 000000018004cfd4     libucrt:cvt.obj
 0002:00014ff0       $unwind$?fp_format_f_internal@@YAHQEAD_KHQEAU_strflt@@_NQEAU__crt_locale_pointers@@@Z 000000018004cff0     libucrt:cvt.obj
 0002:00014ff0       $unwind$__dcrt_get_narrow_environment_from_os 000000018004cff0     libucrt:get_environment_from_os.obj
 0002:00014ff0       $unwind$_wcsnicmp_l        000000018004cff0     libucrt:wcsnicmp.obj
 0002:00015008       $unwind$?fp_format_g@@YAHQEBNQEAD_K12H_NIQEAU__crt_locale_pointers@@@Z 000000018004d008     libucrt:cvt.obj
 0002:0001501c       $unwind$_fputwc_nolock     000000018004d01c     libucrt:fputwc.obj
 0002:00015038       $unwind$__vcrt_uninitialize_winapi_thunks 000000018004d038     libvcruntime:winapi_downlevel.obj
 0002:00015038       $unwind$__acrt_stdio_end_temporary_buffering_nolock 000000018004d038     libucrt:_sftbuf.obj
 0002:00015040       $unwind$_wsetlocale        000000018004d040     libucrt:wsetlocale.obj
 0002:00015048       $unwind$_expandlocale      000000018004d048     libucrt:wsetlocale.obj
 0002:00015068       $unwind$_wcscats           000000018004d068     libucrt:wsetlocale.obj
 0002:00015078       $unwind$_wsetlocale_set_cat 000000018004d078     libucrt:wsetlocale.obj
 0002:0001509c       $unwind$_wsetlocale_nolock 000000018004d09c     libucrt:wsetlocale.obj
 0002:000150c0       $unwind$__acrt_uninitialize_locale 000000018004d0c0     libucrt:wsetlocale.obj
 0002:000150e0       $unwind$??R<lambda_2af78c5f5901b1372d98f9ab3177dfa6>@@QEBAXXZ 000000018004d0e0     libucrt:wsetlocale.obj
 0002:000150ec       $unwind$??$?RV<lambda_5df02c53a8f32f81fd64e5bbb78039f1>@@AEAV<lambda_2af78c5f5901b1372d98f9ab3177dfa6>@@AEAV<lambda_f51fe5fd7c79a33db34fc9310f277369>@@@?$__crt_seh_guarded_call@X@@QEAAX$$QEAV<lambda_5df02c53a8f32f81fd64e5bbb78039f1>@@AEAV<lambda_2af78c5f5901b1372d98f9ab3177dfa6>@@AEAV<lambda_f51fe5fd7c79a33db34fc9310f277369>@@@Z 000000018004d0ec     libucrt:wsetlocale.obj
 0002:0001510c       $unwind$??$?RV<lambda_d67e8342c384adda8f857579ab50b2ae>@@AEAV<lambda_30712929f77e709619002f448b6a9510>@@V<lambda_4525336fd7e478d965fb7ca7a337cad8>@@@?$__crt_seh_guarded_call@X@@QEAAX$$QEAV<lambda_d67e8342c384adda8f857579ab50b2ae>@@AEAV<lambda_30712929f77e709619002f448b6a9510>@@$$QEAV<lambda_4525336fd7e478d965fb7ca7a337cad8>@@@Z 000000018004d10c     libucrt:wsetlocale.obj
 0002:00015130       $unwind$__acrt_initialize_winapi_thunks 000000018004d130     libucrt:winapi_thunks.obj
 0002:00015138       $unwind$__acrt_EnumSystemLocalesEx 000000018004d138     libucrt:winapi_thunks.obj
 0002:0001514c       $unwind$__vcrt_InitializeCriticalSectionEx 000000018004d14c     libvcruntime:winapi_downlevel.obj
 0002:0001514c       $unwind$__crtInitializeCriticalSectionEx 000000018004d14c     libcpmt:winapisupp.obj
 0002:0001514c       $unwind$??$ensure_buffer_is_big_enough@D@formatting_buffer@__crt_stdio_output@@QEAA_N_K@Z 000000018004d14c     libucrt:output.obj
 0002:0001514c       $unwind$__acrt_lowio_create_handle_array 000000018004d14c     libucrt:osfinfo.obj
 0002:0001514c       $unwind$?find_or_allocate_unused_stream_nolock@@YA?AV__crt_stdio_stream@@XZ 000000018004d14c     libucrt:stream.obj
 0002:0001514c       $unwind$__acrt_InitializeCriticalSectionEx 000000018004d14c     libucrt:winapi_thunks.obj
 0002:0001514c       $unwind$?process@?$output_processor@DV?$string_output_adapter@D@__crt_stdio_output@@V?$format_validation_base@DV?$string_output_adapter@D@__crt_stdio_output@@@2@@__crt_stdio_output@@QEAAHXZ 000000018004d14c     libucrt:output.obj
 0002:0001514c       $unwind$?expand_if_necessary@?$argument_list@D@?A0xca0879c4@@AEAAHXZ 000000018004d14c     libucrt:argv_wildcards.obj
 0002:0001514c       $unwind$_seh_filter_exe    000000018004d14c     libucrt:exception_filter.obj
 0002:0001514c       $unwind$?_ExecutionInCatch@@YAHPEAU_xDISPATCHER_CONTEXT@@PEBU_s_FuncInfo@@@Z 000000018004d14c     libvcruntime:trnsctrl.obj
 0002:0001514c       $unwind$??$skip_whitespace@Vstring_input_adapter@__crt_stdio_input@@D@__crt_stdio_input@@YAHAEAV?$string_input_adapter@D@0@QEAU__crt_locale_pointers@@@Z 000000018004d14c     libucrt:input.obj
 0002:0001514c       $unwind$__acrt_free_locale 000000018004d14c     libucrt:locale_refcounting.obj
 0002:0001514c       $unwind$__scrt_dllmain_exception_filter 000000018004d14c     LIBCMT:utility.obj
 0002:0001514c       $unwind$_wassert           000000018004d14c     libucrt:assert.obj
 0002:0001514c       $unwind$__acrt_execute_initializers 000000018004d14c     libucrt:shared_initialization.obj
 0002:0001514c       $unwind$_recalloc_base     000000018004d14c     libucrt:recalloc.obj
 0002:0001514c       $unwind$?setSBCS@@YAXPEAU__crt_multibyte_data@@@Z 000000018004d14c     libucrt:mbctype.obj
 0002:0001514c       $unwind$?dllmain_raw@@YAHQEAUHINSTANCE__@@KQEAX@Z 000000018004d14c     LIBCMT:dll_dllmain.obj
 0002:00015160       $unwind$__acrt_is_interactive 000000018004d160     libucrt:winapi_thunks.obj
 0002:00015174       $unwind$iswctype           000000018004d174     libucrt:iswctype.obj
 0002:00015174       $unwind$__acrt_is_packaged_app 000000018004d174     libucrt:winapi_thunks.obj
 0002:00015180       $unwind$??$?RV<lambda_630b2aca97f6d20d5b5ea6529ea6b6af>@@AEAV<lambda_af91936f1d075d609f72d9d8cba980af>@@V<lambda_e82fa975f615b5c7c7b0e4d178fdae67>@@@?$__crt_seh_guarded_call@H@@QEAAH$$QEAV<lambda_630b2aca97f6d20d5b5ea6529ea6b6af>@@AEAV<lambda_af91936f1d075d609f72d9d8cba980af>@@$$QEAV<lambda_e82fa975f615b5c7c7b0e4d178fdae67>@@@Z 000000018004d180     libucrt:winapi_thunks.obj
 0002:000151a8       $unwind$_fcloseall         000000018004d1a8     libucrt:closeall.obj
 0002:000151cc       $unwind$?common_ftell_translated_utf8_nolock@@YA_JV__crt_stdio_stream@@_J@Z 000000018004d1cc     libucrt:ftell.obj
 0002:000151f0       $unwind$?common_ftell_read_mode_nolock@@YA_JV__crt_stdio_stream@@_J1@Z 000000018004d1f0     libucrt:ftell.obj
 0002:0001520c       $unwind$??$common_ftell_nolock@_J@@YA_JV__crt_stdio_stream@@@Z 000000018004d20c     libucrt:ftell.obj
 0002:00015218       $unwind$??$common_ftell@_J@@YA_JV__crt_stdio_stream@@@Z 000000018004d218     libucrt:ftell.obj
 0002:00015238       $unwind$_except1           000000018004d238     libucrt:fpexcept.obj
 0002:00015258       $unwind$_handle_exc        000000018004d258     libucrt:fpexcept.obj
 0002:00015274       $unwind$_umatherr          000000018004d274     libucrt:fpexcept.obj
 0002:0001527c       $unwind$_ctrlfp            000000018004d27c     libucrt:fpctrl.obj
 0002:000152a4       $unwind$??$common_lseek@_J@@YA_JH_JH@Z 000000018004d2a4     libucrt:lseek.obj
 0002:000152d4       $unwind$__acrt_LCMapStringEx 000000018004d2d4     libucrt:winapi_thunks.obj
 0002:000152d4       $unwind$__acrt_show_wide_message_box 000000018004d2d4     libucrt:crtmbox.obj
 0002:000152d4       $unwind$__crtLCMapStringEx 000000018004d2d4     libcpmt:winapinls.obj
 0002:000152d4       $unwind$_mbtowc_l          000000018004d2d4     libucrt:mbtowc.obj
 0002:000152d4       $unwind$__acrt_CompareStringEx 000000018004d2d4     libucrt:winapi_thunks.obj
 0002:000152ec       $unwind$_isctype_l         000000018004d2ec     libucrt:isctype.obj
 0002:00015308       $unwind$_strnicoll_l       000000018004d308     libucrt:strnicol.obj
 0002:0001531c       $unwind$_mbstowcs_s_l      000000018004d31c     libucrt:mbstowcs.obj
 0002:00015334       $unwind$?_mbstowcs_l_helper@@YA_KPEA_WPEBD_KPEAU__crt_locale_pointers@@@Z 000000018004d334     libucrt:mbstowcs.obj
 0002:00015350       $unwind$_openfile          000000018004d350     libucrt:openfile.obj
 0002:00015364       $unwind$__acrt_GetLocaleInfoA 000000018004d364     libucrt:getlocaleinfoa.obj
 0002:00015384       $unwind$?InternalGetLocaleInfoA@@YAHQEAU__crt_locale_pointers@@QEB_WKQEADH@Z 000000018004d384     libucrt:getlocaleinfoa.obj
 0002:000153ac       $unwind$__acrt_GetStringTypeA 000000018004d3ac     libucrt:getstringtypea.obj
 0002:000153d4       $unwind$__acrt_LCMapStringA 000000018004d3d4     libucrt:lcmapstringa.obj
 0002:000153e4       $unwind$?__acrt_LCMapStringA_stat@@YAHPEAU__crt_locale_pointers@@PEB_WKPEBDHPEADHHH@Z 000000018004d3e4     libucrt:lcmapstringa.obj
 0002:0001540c       $unwind$__acrt_initialize_fma3 000000018004d40c     libucrt:fma3_available.obj
 0002:00015414       $unwind$_powf_special      000000018004d414     libucrt:pow_special.obj
 0002:00015424       $unwind$_pow_special       000000018004d424     libucrt:pow_special.obj
 0002:00015430       $unwind$??$common_expand_argv_wildcards@D@@YAHQEAPEADQEAPEAPEAD@Z 000000018004d430     libucrt:argv_wildcards.obj
 0002:00015448       $unwind$__acrt_get_qualified_locale 000000018004d448     libucrt:get_qualified_locale.obj
 0002:00015448       $unwind$??$copy_and_add_argument_to_buffer@D@@YAHQEBD0_KAEAV?$argument_list@D@?A0xca0879c4@@@Z 000000018004d448     libucrt:argv_wildcards.obj
 0002:00015464       $unwind$??$expand_argument_wildcards@D@@YAHQEAD0AEAV?$argument_list@D@?A0xca0879c4@@@Z 000000018004d464     libucrt:argv_wildcards.obj
 0002:00015484       $unwind$__acrt_update_thread_multibyte_data 000000018004d484     libucrt:mbctype.obj
 0002:000154a8       $unwind$_setmbcp_nolock    000000018004d4a8     libucrt:mbctype.obj
 0002:000154c8       $unwind$?setSBUpLow@@YAXPEAU__crt_multibyte_data@@@Z 000000018004d4c8     libucrt:mbctype.obj
 0002:000154e4       $unwind$?setmbcp_internal@@YAHH_N@Z 000000018004d4e4     libucrt:mbctype.obj
 0002:000154f4       $unwind$??$?RV<lambda_99476a1ad63dd22509b5d3e65b0ffc95>@@AEAV<lambda_ad1ced32f4ac17aa236e5ef05d6b3b7c>@@V<lambda_f7424dd8d45958661754dc4f2697e9c3>@@@?$__crt_seh_guarded_call@X@@QEAAX$$QEAV<lambda_99476a1ad63dd22509b5d3e65b0ffc95>@@AEAV<lambda_ad1ced32f4ac17aa236e5ef05d6b3b7c>@@$$QEAV<lambda_f7424dd8d45958661754dc4f2697e9c3>@@@Z 000000018004d4f4     libucrt:mbctype.obj
 0002:00015518       $unwind$?assemble_floating_point_value@__crt_strtox@@YA?AW4SLD_STATUS@@_KH_N1AEBVfloating_point_value@1@@Z 000000018004d518     libucrt:input.obj
 0002:00015518       $unwind$??$common_set_variable_in_environment_nolock@D@@YAHQEADH@Z 000000018004d518     libucrt:setenv.obj
 0002:00015530       $unwind$??$copy_environment@D@@YAPEAPEADQEAPEAD@Z 000000018004d530     libucrt:setenv.obj
 0002:00015544       $unwind$_alloc_osfhnd      000000018004d544     libucrt:osfinfo.obj
 0002:00015574       $unwind$__acrt_lowio_destroy_handle_array 000000018004d574     libucrt:osfinfo.obj
 0002:00015584       $unwind$__acrt_lowio_ensure_fh_exists 000000018004d584     libucrt:osfinfo.obj
 0002:000155b0       $unwind$_free_base         000000018004d5b0     libucrt:free_base.obj
 0002:000155b0       $unwind$__acrt_locale_free_lc_time_if_unreferenced 000000018004d5b0     libucrt:locale_refcounting.obj
 0002:000155b0       $unwind$?destroy_fls@@YAXPEAX@Z 000000018004d5b0     libucrt:per_thread_data.obj
 0002:000155b0       $unwind$__acrt_locale_free_numeric 000000018004d5b0     libucrt:initnum.obj
 0002:000155b8       $unwind$__acrt_update_thread_locale_data 000000018004d5b8     libucrt:locale_refcounting.obj
 0002:000155dc       $unwind$__acrt_fltout      000000018004d5dc     libucrt:cfout.obj
 0002:000155fc       $unwind$__acrt_locale_initialize_monetary 000000018004d5fc     libucrt:initmon.obj
 0002:00015618       $unwind$__acrt_locale_free_monetary 000000018004d618     libucrt:initmon.obj
 0002:00015620       $unwind$__acrt_locale_free_time 000000018004d620     libucrt:inittime.obj
 0002:00015630       $unwind$?initialize_lc_time@@YA_NQEAU__crt_lc_time_data@@QEAU__crt_locale_data@@@Z 000000018004d630     libucrt:inittime.obj
 0002:0001564c       $unwind$??$parse_command_line@D@@YAXPEADPEAPEAD0PEA_K2@Z 000000018004d64c     libucrt:argv_parsing.obj
 0002:0001564c       $unwind$??R<lambda_4e60a939b0d047cfe11ddc22648dfba9>@@QEBAHXZ 000000018004d64c     libucrt:onexit.obj
 0002:0001564c       $unwind$TranslateName      000000018004d64c     libucrt:get_qualified_locale.obj
 0002:0001564c       $unwind$?write_string@?$string_output_adapter@D@__crt_stdio_output@@QEBAXQEBDHQEAH1@Z 000000018004d64c     libucrt:output.obj
 0002:0001564c       $unwind$?_GetRangeOfTrysToCheck@@YAPEBU_s_TryBlockMapEntry@@PEA_KPEBU_s_FuncInfo@@HHPEAI2PEAU_xDISPATCHER_CONTEXT@@@Z 000000018004d64c     libvcruntime:trnsctrl.obj
 0002:00015668       $unwind$LangCountryEnumProcEx 000000018004d668     libucrt:get_qualified_locale.obj
 0002:00015688       $unwind$LanguageEnumProcEx 000000018004d688     libucrt:get_qualified_locale.obj
 0002:000156a4       $unwind$GetLocaleNameFromDefault 000000018004d6a4     libucrt:get_qualified_locale.obj
 0002:000156bc       $unwind$TestDefaultCountry 000000018004d6bc     libucrt:get_qualified_locale.obj
 0002:000156d0       $unwind$__acrt_get_qualified_locale_downlevel 000000018004d6d0     libucrt:getqloc_downlevel.obj
 0002:000156ec       $unwind$LangCountryEnumProc 000000018004d6ec     libucrt:getqloc_downlevel.obj
 0002:0001570c       $unwind$LanguageEnumProc   000000018004d70c     libucrt:getqloc_downlevel.obj
 0002:00015728       $unwind$CountryEnumProc    000000018004d728     libucrt:getqloc_downlevel.obj
 0002:00015748       $unwind$_read              000000018004d748     libucrt:read.obj
 0002:00015774       $unwind$_read_nolock       000000018004d774     libucrt:read.obj
 0002:0001578c       $unwind$?translate_ansi_or_utf8_nolock@@YAHHQEAD_KQEA_W1@Z 000000018004d78c     libucrt:read.obj
 0002:000157a4       $unwind$??$translate_text_mode_nolock@_W@@YAHHQEA_W_K@Z 000000018004d7a4     libucrt:read.obj
 0002:000157bc       $unwind$?GetTableIndexFromLocaleName@@YAHPEB_W@Z 000000018004d7bc     libucrt:lcidtoname_downlevel.obj
 0002:000157d8       $xdatasym                  000000018004d7d8     libucrt:fpsr.obj
 0002:000157e0       $unwind$?__SehTransFilter@@YAHPEAU_EXCEPTION_POINTERS@@PEAUEHExceptionRecord@@PEA_KPEAU_CONTEXT@@PEAU_xDISPATCHER_CONTEXT@@PEBU_s_FuncInfo@@PEAH@Z 000000018004d7e0     libvcruntime:trnsctrl.obj
 0002:000157e0       $unwind$_strnicmp_l        000000018004d7e0     libucrt:strnicmp.obj
 0002:000157e0       $unwind$_wcsicmp_l         000000018004d7e0     libucrt:wcsicmp.obj
 0002:000157f4       $unwind$__acrt_CompareStringA 000000018004d7f4     libucrt:comparestringa.obj
 0002:00015804       $unwind$?InternalCompareStringA@@YAHPEAU__crt_locale_pointers@@PEB_WKPEBDH2HH@Z 000000018004d804     libucrt:comparestringa.obj
 0002:00015828       $unwind$_sopen_nolock      000000018004d828     libucrt:open.obj
 0002:00015828       $unwind$__acrt_LCMapStringW 000000018004d828     libucrt:lcmapstringw.obj
 0002:00015828       $unwind$?fp_format_e@@YAHQEBNQEAD_K12H_NIQEAU__crt_locale_pointers@@@Z 000000018004d828     libucrt:cvt.obj
 0002:0001583c       $unwind$_wsopen_nolock     000000018004d83c     libucrt:open.obj
 0002:00015858       $unwind$??$common_sopen_dispatch@D@@YAHQEBDHHHQEAHH@Z 000000018004d858     libucrt:open.obj
 0002:0001587c       $unwind$?fin$0@?0???$common_sopen_dispatch@D@@YAHQEBDHHHQEAHH@Z@4HA 000000018004d87c     libucrt:open.obj
 0002:0001587c       $unwind$_CallSETranslator$filt$0 000000018004d87c     libvcruntime:trnsctrl.obj
 0002:00015884       $unwind$?decode_options@@YA?AUfile_options@?A0x656cf9f4@@HHH@Z 000000018004d884     libucrt:open.obj
 0002:00015898       $unwind$_call_matherr      000000018004d898     libucrt:libm_error.obj
 0002:000158a0       $unwind$_handle_errorf     000000018004d8a0     libucrt:libm_error.obj
 0002:000158a0       $unwind$_handle_error      000000018004d8a0     libucrt:libm_error.obj
 0002:000158c0       $unwind$_towlower_l        000000018004d8c0     libucrt:towlower.obj
 0002:000158c8       $unwind$qsort              000000018004d8c8     libucrt:qsort.obj
 0002:000158e0       $chain$4$qsort             000000018004d8e0     libucrt:qsort.obj
 0002:00015904       $chain$5$qsort             000000018004d904     libucrt:qsort.obj
 0002:00015914       $unwind$?shortsort@@YAXPEAD0_KP6AHPEBX2@Z@Z 000000018004d914     libucrt:qsort.obj
 0002:00015924       $chain$2$?shortsort@@YAXPEAD0_KP6AHPEBX2@Z@Z 000000018004d924     libucrt:qsort.obj
 0002:00015940       $chain$3$?shortsort@@YAXPEAD0_KP6AHPEBX2@Z@Z 000000018004d940     libucrt:qsort.obj
 0002:00015950       $unwind$strpbrk            000000018004d950     libucrt:strpbrk.obj
 0002:00015950       $unwind$strcspn            000000018004d950     libucrt:strcspn.obj
 0002:00015960       $unwind$_mbsdec_l          000000018004d960     libucrt:mbsdec.obj
 0002:00015970       $xdatasym                  000000018004d970     libucrt:log10.obj
 0002:0001597c       $unwind$common_control87   000000018004d97c     libucrt:ieee.obj
 0002:000159ac       $unwind$_setmode_nolock    000000018004d9ac     libucrt:setmode.obj
 0002:000159bc       $unwind$??$create_environment@D@@YAQEAPEADQEAD@Z 000000018004d9bc     libucrt:environment_initialization.obj
 0002:000159bc       $unwind$__acrt_copy_path_to_wide_string 000000018004d9bc     libucrt:string_utilities.obj
 0002:000159bc       $unwind$__lc_wcstolc       000000018004d9bc     libucrt:wsetlocale.obj
 0002:000159d4       $unwind$_chsize_nolock     000000018004d9d4     libucrt:chsize.obj
 0002:000159d4       $unwind$?write_string@?$stream_output_adapter@D@__crt_stdio_output@@QEBAXQEBDHQEAH1@Z 000000018004d9d4     libucrt:output.obj
 0002:000159ec       $unwind$_log_special_common 000000018004d9ec     libucrt:log_special.obj
 0002:000159f8       $unwind$?DloadObtainSection@@YAPEAXPEAK0@Z 000000018004d9f8     DelayImp:delayhlp.obj
 0002:00015a08       $unwind$?DloadMakePermanentImageCommit@@YAXPEAX_K@Z 000000018004da08     DelayImp:delayhlp.obj
 0002:00015a14       $unwind$?DloadProtectSection@@YAXKPEAK@Z 000000018004da14     DelayImp:delayhlp.obj
 0002:00015a24       $unwind$__delayLoadHelper2 000000018004da24     DelayImp:delayhlp.obj
 0002:00015a3c       $unwind$_IsNonwritableInCurrentImage 000000018004da3c     LIBCMT:pesect.obj
 0002:00015a60       $unwind$strchr             000000018004da60     libvcruntime:strchr.obj
 0002:00015a60       $unwind$wcschr             000000018004da60     libvcruntime:wcschr.obj
 0002:00015a60       $unwind$strrchr            000000018004da60     libvcruntime:strrchr.obj
 0002:00017190       .edata                     000000018004f190     api.exp
 0002:000171b8       rgpv                       000000018004f1b8     api.exp
 0002:000171bc       rgszName                   000000018004f1bc     api.exp
 0002:000171c0       rgwOrd                     000000018004f1c0     api.exp
 0002:000171c2       szName                     000000018004f1c2     api.exp
 0002:000171cb       $N00001                    000000018004f1cb     api.exp
 0002:000176c2       .idata$6                   000000018004f6c2     kernel32:KERNEL32.dll
 0002:00017716       .idata$6                   000000018004f716     dbghelp:dbghelp.dll
 0002:0001774a       .idata$6                   000000018004f74a     Netapi32:NETAPI32.dll
 0002:00017786       .idata$6                   000000018004f786     PsApi:PSAPI.DLL
 0002:00017790       .idata$6                   000000018004f790     Ws2_32:WS2_32.dll
 0003:00000000       ?init@std@@3JA             0000000180050000     libcpmt:xlock.obj
 0003:00000010       ?atcount_cdecl@@3_KA       0000000180050010     libcpmt:iosptrs.obj
 0003:000000b0       ?__vcrt_flsindex@@3KA      00000001800500b0     libvcruntime:per_thread_data.obj
 0003:00000290       errno_no_memory            0000000180050290     libucrt:errno.obj
 0003:00000294       doserrno_no_memory         0000000180050294     libucrt:errno.obj
 0003:000002f0       __acrt_flsindex            00000001800502f0     libucrt:per_thread_data.obj
 0003:000002f8       _ctype_loc_style           00000001800502f8     libucrt:wsetlocale.obj
 0003:00000470       ?dazSupported@?1??_ctrlfp@@9@9 0000000180050470     libucrt:fpctrl.obj
 0003:00000480       tzstd_program              0000000180050480     libucrt:timeset.obj
 0003:000004c0       tzdst_program              00000001800504c0     libucrt:timeset.obj
 0003:00000500       tzname_states              0000000180050500     libucrt:timeset.obj
 0003:00000740       __rgctypeflag              0000000180050740     libucrt:mbctype.obj
 0003:00000750       __rgcode_page_info         0000000180050750     libucrt:mbctype.obj
 0003:00000b60       ?dazSupported@?1??common_control87@@9@9 0000000180050b60     libucrt:ieee.obj
 0003:00000ba0       _module                    0000000180050ba0     module.obj
 0003:00000be0       ?nodereport_events@nodereport@@3IA 0000000180050be0     module.obj
 0003:00001470       ?initlocks@std@@3V_Init_locks@1@A 0000000180051470     libcpmt:xlock.obj
 0003:00001480       ?mtx@std@@3PAU_RTL_CRITICAL_SECTION@@A 0000000180051480     libcpmt:xlock.obj
 0003:000015c0       ?initlocks@@3V_Init_locks@std@@A 00000001800515c0     libcpmt:cout.obj
 0003:000015c1       ?init_cout@std@@3U_Init_cout@1@A 00000001800515c1     libcpmt:cout.obj
 0003:00001640       ?fout@std@@3V?$basic_filebuf@DU?$char_traits@D@std@@@1@A 0000000180051640     libcpmt:cout.obj
 0003:000016d8       ?_Fac_head@std@@3PEAU_Fac_node@1@EA 00000001800516d8     libcpmt:locale0.obj
 0003:000016f0       global_locale              00000001800516f0     libcpmt:locale0.obj
 0003:00001718       ?classic_locale@std@@3Vlocale@1@A 0000000180051718     libcpmt:locale0.obj
 0003:00001730       ?_Fac_tidy_reg@std@@3U_Fac_tidy_reg_t@1@B 0000000180051730     libcpmt:locale0.obj
 0003:00001731       ?registered@?1??_Setgloballocale@locale@std@@CAXPEAX@Z@4_NA 0000000180051731     libcpmt:locale0.obj
 0003:00001740       ?stdstr@std@@3PAPEAVios_base@1@A 0000000180051740     libcpmt:ios.obj
 0003:00001790       ?stdopens@std@@3PADA       0000000180051790     libcpmt:ios.obj
 0003:000017a0       ?initlocks@@3V_Init_locks@std@@A 00000001800517a0     libcpmt:cerr.obj
 0003:000017a1       ?init_cerr@std@@3U_Init_cerr@1@A 00000001800517a1     libcpmt:cerr.obj
 0003:00001820       ?ferr@std@@3V?$basic_filebuf@DU?$char_traits@D@std@@@1@A 0000000180051820     libcpmt:cerr.obj
 0003:00001900       ?atfuns_cdecl@@3PAP6AXXZA  0000000180051900     libcpmt:iosptrs.obj
 0003:00001950       ?initlocks@std@@3V_Init_locks@1@A 0000000180051950     libcpmt:iosptrs.obj
 0003:00001951       ?init_atexit@@3U_Init_atexit@@A 0000000180051951     libcpmt:iosptrs.obj
 0003:00001b90       ?_Tss_mutex@@3U_RTL_CRITICAL_SECTION@@A 0000000180051b90     LIBCMT:thread_safe_statics.obj
 0003:00001bb8       ?_Tss_cv@@3U_RTL_CONDITION_VARIABLE@@A 0000000180051bb8     LIBCMT:thread_safe_statics.obj
 0003:00001bc0       ?_Tss_event@@3PEAXEA       0000000180051bc0     LIBCMT:thread_safe_statics.obj
 0003:00001bc8       ?encoded_sleep_condition_variable_cs@@3P6AHPEAU_RTL_CONDITION_VARIABLE@@PEAU_RTL_CRITICAL_SECTION@@K@ZEA 0000000180051bc8     LIBCMT:thread_safe_statics.obj
 0003:00001bd0       ?encoded_wake_all_condition_variable@@3P6AXPEAU_RTL_CONDITION_VARIABLE@@@ZEA 0000000180051bd0     LIBCMT:thread_safe_statics.obj
 0003:00001be8       ?module_local_atexit_table@@3U_onexit_table_t@@A 0000000180051be8     LIBCMT:utility.obj
 0003:00001c00       ?module_local_at_quick_exit_table@@3U_onexit_table_t@@A 0000000180051c00     LIBCMT:utility.obj
 0003:00001c18       ?is_initialized_as_dll@@3_NA 0000000180051c18     LIBCMT:utility.obj
 0003:00001c1c       ?__proc_attached@@3HA      0000000180051c1c     LIBCMT:dll_dllmain.obj
 0003:00001c20       GS_ExceptionRecord         0000000180051c20     LIBCMT:gs_report.obj
 0003:00001cc0       GS_ContextRecord           0000000180051cc0     LIBCMT:gs_report.obj
 0003:000021c0       ?module_handles@@3PAPEAUHINSTANCE__@@A 00000001800521c0     libvcruntime:winapi_downlevel.obj
 0003:000021e0       ?encoded_function_pointers@@3PAPEAXA 00000001800521e0     libvcruntime:winapi_downlevel.obj
 0003:00002230       ?__vcrt_startup_thread_ptd@@3U__vcrt_ptd@@A 0000000180052230     libvcruntime:per_thread_data.obj
 0003:000022a8       __vcrt_lock_table          00000001800522a8     libvcruntime:locks.obj
 0003:000022d0       __vcrt_locks_initialized   00000001800522d0     libvcruntime:locks.obj
 0003:00002320       ?heap@@3V_HeapManager@@A   0000000180052320     libvcruntime:undname.obj
 0003:00002348       __acrt_invalid_parameter_handler 0000000180052348     libucrt:invalid_parameter.obj
 0003:0000236c       c_termination_complete     000000018005236c     libucrt:exit.obj
 0003:00002370       thread_local_exit_callback_func 0000000180052370     libucrt:exit.obj
 0003:00002378       ?c_exit_complete@?5??common_exit@@YAXHW4_crt_exit_cleanup_mode@@W4_crt_exit_return_mode@@@Z@4_NA 0000000180052378     libucrt:exit.obj
 0003:00002380       ctrlc_action               0000000180052380     libucrt:signal.obj
 0003:00002388       ctrlbreak_action           0000000180052388     libucrt:signal.obj
 0003:00002390       abort_action               0000000180052390     libucrt:signal.obj
 0003:00002398       term_action                0000000180052398     libucrt:signal.obj
 0003:000023a0       __acrt_lock_table          00000001800523a0     libucrt:locks.obj
 0003:000025a8       __acrt_locks_initialized   00000001800525a8     libucrt:locks.obj
 0003:000025b0       __acrt_new_handler         00000001800525b0     libucrt:new_handler.obj
 0003:000025c0       ?program_name@?5???$common_configure_argv@D@@YAHW4_crt_argv_mode@@@Z@4PADA 00000001800525c0     libucrt:argv_parsing.obj
 0003:00002b28       enable_percent_n           0000000180052b28     libucrt:printf_count_output.obj
 0003:00002b50       module_handles             0000000180052b50     libucrt:winapi_thunks.obj
 0003:00002bf0       encoded_function_pointers  0000000180052bf0     libucrt:winapi_thunks.obj
 0003:00002cf0       ?static_enum_proc@?1??enum_system_locales_ex_nolock@@YAHQ6AHPEA_WK_J@Z@Z@4P6AH0K1@ZEA 0000000180052cf0     libucrt:winapi_thunks.obj
 0003:00002cf8       ?state_cache@?1??__acrt_is_packaged_app@@9@4JA 0000000180052cf8     libucrt:winapi_thunks.obj
 0003:00002cfc       __acrt_app_type            0000000180052cfc     libucrt:report_runtime_error.obj
 0003:00002d00       __acrt_error_mode          0000000180052d00     libucrt:set_error_mode.obj
 0003:00002d04       __acrt_global_new_mode     0000000180052d04     libucrt:new_mode.obj
 0003:00002d28       _tzname                    0000000180052d28     libucrt:timeset.obj
 0003:00002d30       tz_api_used                0000000180052d30     libucrt:tzset.obj
 0003:00002d40       tz_info                    0000000180052d40     libucrt:tzset.obj
 0003:00002e04       fSystemSet                 0000000180052e04     libucrt:mbctype.obj
 0003:00002e10       ?initialized@?1??__acrt_initialize_multibyte@@9@4_NA 0000000180052e10     libucrt:mbctype.obj
 0003:00002e40       user_matherr               0000000180052e40     libucrt:matherr.obj
 0003:00002eb0       ?report_active@nodereport@@3_NA 0000000180052eb0     node_report.obj
 0003:00002eb1       ?error_hook_initialised@nodereport@@3_NA 0000000180052eb1     module.obj
 0003:00002eb2       ?exception_hook_initialised@nodereport@@3_NA 0000000180052eb2     module.obj
 0003:000032c4       ?seq@nodereport@@3HA       00000001800532c4     node_report.obj
 0003:00003314       ?nodereport_verbose@nodereport@@3IA 0000000180053314     module.obj
 0004:00000000       $pdata$??__Eversion_string@nodereport@@YAXXZ 0000000180054000     node_report.obj
 0004:0000000c       $pdata$??__Ecommandline_string@nodereport@@YAXXZ 000000018005400c     node_report.obj
 0004:00000018       $pdata$??__Einitlocks@std@@YAXXZ 0000000180054018     libcpmt:xlock.obj
 0004:00000024       $pdata$??__Ecout@std@@YAXXZ 0000000180054024     libcpmt:cout.obj
 0004:00000030       $pdata$??__Efout@std@@YAXXZ 0000000180054030     libcpmt:cout.obj
 0004:0000003c       $pdata$??__Einitlocks@@YAXXZ 000000018005403c     libcpmt:cout.obj
 0004:00000048       $pdata$??__Ecerr@std@@YAXXZ 0000000180054048     libcpmt:cerr.obj
 0004:00000054       $pdata$??__Eferr@std@@YAXXZ 0000000180054054     libcpmt:cerr.obj
 0004:00000060       $pdata$??__Einitlocks@@YAXXZ 0000000180054060     libcpmt:cerr.obj
 0004:0000006c       $pdata$??__Einitlocks@std@@YAXXZ 000000018005406c     libcpmt:iosptrs.obj
 0004:00000078       $pdata$sprintf_s           0000000180054078     node_report.obj
 0004:00000084       $pdata$snprintf            0000000180054084     node_report.obj
 0004:00000090       $pdata$??_Gexception@stdext@@UEAAPEAXI@Z 0000000180054090     node_report.obj
 0004:00000090       $pdata$??_Gruntime_error@std@@UEAAPEAXI@Z 0000000180054090     node_report.obj
 0004:0000009c       $pdata$??0_Locinfo@std@@QEAA@PEBD@Z 000000018005409c     node_report.obj
 0004:000000a8       $pdata$??1_Locinfo@std@@QEAA@XZ 00000001800540a8     node_report.obj
 0004:000000b4       $pdata$??_G_Facet_base@std@@UEAAPEAXI@Z 00000001800540b4     node_report.obj
 0004:000000c0       $pdata$?_Getcat@?$ctype@D@std@@SA_KPEAPEBVfacet@locale@2@PEBV42@@Z 00000001800540c0     node_report.obj
 0004:000000cc       $pdata$0$?_Getcat@?$ctype@D@std@@SA_KPEAPEBVfacet@locale@2@PEBV42@@Z 00000001800540cc     node_report.obj
 0004:000000d8       $pdata$1$?_Getcat@?$ctype@D@std@@SA_KPEAPEBVfacet@locale@2@PEBV42@@Z 00000001800540d8     node_report.obj
 0004:000000e4       $pdata$?do_tolower@?$ctype@D@std@@MEBAPEBDPEADPEBD@Z 00000001800540e4     node_report.obj
 0004:000000f0       $pdata$0$?do_tolower@?$ctype@D@std@@MEBAPEBDPEADPEBD@Z 00000001800540f0     node_report.obj
 0004:000000fc       $pdata$1$?do_tolower@?$ctype@D@std@@MEBAPEBDPEADPEBD@Z 00000001800540fc     node_report.obj
 0004:00000108       $pdata$?do_toupper@?$ctype@D@std@@MEBAPEBDPEADPEBD@Z 0000000180054108     node_report.obj
 0004:00000114       $pdata$0$?do_toupper@?$ctype@D@std@@MEBAPEBDPEADPEBD@Z 0000000180054114     node_report.obj
 0004:00000120       $pdata$1$?do_toupper@?$ctype@D@std@@MEBAPEBDPEADPEBD@Z 0000000180054120     node_report.obj
 0004:0000012c       $pdata$?do_widen@?$ctype@D@std@@MEBAPEBDPEBD0PEAD@Z 000000018005412c     node_report.obj
 0004:00000138       $pdata$?do_narrow@?$ctype@D@std@@MEBAPEBDPEBD0DPEAD@Z 0000000180054138     node_report.obj
 0004:00000144       $pdata$??_G?$ctype@D@std@@MEAAPEAXI@Z 0000000180054144     node_report.obj
 0004:00000150       $pdata$??_G_Iostream_error_category@std@@UEAAPEAXI@Z 0000000180054150     node_report.obj
 0004:00000150       $pdata$??_Gerror_category@std@@UEAAPEAXI@Z 0000000180054150     node_report.obj
 0004:0000015c       $pdata$?equivalent@error_category@std@@UEBA_NHAEBVerror_condition@2@@Z 000000018005415c     node_report.obj
 0004:00000168       $pdata$??0_System_error@std@@IEAA@Verror_code@1@AEBV?$basic_string@DU?$char_traits@D@std@@V?$allocator@D@2@@1@@Z 0000000180054168     node_report.obj
 0004:00000174       $pdata$??_G_System_error@std@@UEAAPEAXI@Z 0000000180054174     node_report.obj
 0004:00000174       $pdata$??_Gfailure@ios_base@std@@UEAAPEAXI@Z 0000000180054174     node_report.obj
 0004:00000180       $pdata$?message@_Iostream_error_category@std@@UEBA?AV?$basic_string@DU?$char_traits@D@std@@V?$allocator@D@2@@2@H@Z 0000000180054180     node_report.obj
 0004:0000018c       $pdata$?clear@ios_base@std@@QEAAXH_N@Z 000000018005418c     node_report.obj
 0004:00000198       $pdata$0$?clear@ios_base@std@@QEAAXH_N@Z 0000000180054198     node_report.obj
 0004:000001a4       $pdata$1$?clear@ios_base@std@@QEAAXH_N@Z 00000001800541a4     node_report.obj
 0004:000001b0       $pdata$2$?clear@ios_base@std@@QEAAXH_N@Z 00000001800541b0     node_report.obj
 0004:000001bc       $pdata$?copyfmt@ios_base@std@@QEAAAEAV12@AEBV12@@Z 00000001800541bc     node_report.obj
 0004:000001c8       $pdata$0$?copyfmt@ios_base@std@@QEAAAEAV12@AEBV12@@Z 00000001800541c8     node_report.obj
 0004:000001d4       $pdata$2$?copyfmt@ios_base@std@@QEAAAEAV12@AEBV12@@Z 00000001800541d4     node_report.obj
 0004:000001e0       $pdata$3$?copyfmt@ios_base@std@@QEAAAEAV12@AEBV12@@Z 00000001800541e0     node_report.obj
 0004:000001ec       $pdata$4$?copyfmt@ios_base@std@@QEAAAEAV12@AEBV12@@Z 00000001800541ec     node_report.obj
 0004:000001f8       $pdata$?_Tidy@ios_base@std@@AEAAXXZ 00000001800541f8     node_report.obj
 0004:00000204       $pdata$??_Gios_base@std@@UEAAPEAXI@Z 0000000180054204     node_report.obj
 0004:00000210       $pdata$??0Utf8String@Nan@@QEAA@V?$Local@VValue@v8@@@v8@@@Z 0000000180054210     node_report.obj
 0004:0000021c       $pdata$0$??0Utf8String@Nan@@QEAA@V?$Local@VValue@v8@@@v8@@@Z 000000018005421c     node_report.obj
 0004:00000228       $pdata$1$??0Utf8String@Nan@@QEAA@V?$Local@VValue@v8@@@v8@@@Z 0000000180054228     node_report.obj
 0004:00000234       $pdata$?TriggerNodeReport@nodereport@@YAXPEAVIsolate@v8@@W4DumpEvent@1@PEBD2PEADV?$MaybeLocal@VValue@v8@@@3@@Z 0000000180054234     node_report.obj
 0004:00000240       $pdata$3$?TriggerNodeReport@nodereport@@YAXPEAVIsolate@v8@@W4DumpEvent@1@PEBD2PEADV?$MaybeLocal@VValue@v8@@@3@@Z 0000000180054240     node_report.obj
 0004:0000024c       $pdata$4$?TriggerNodeReport@nodereport@@YAXPEAVIsolate@v8@@W4DumpEvent@1@PEBD2PEADV?$MaybeLocal@VValue@v8@@@3@@Z 000000018005424c     node_report.obj
 0004:00000258       $pdata$?WriteNodeReport@nodereport@@YAXPEAVIsolate@v8@@W4DumpEvent@1@PEBD2PEADAEAV?$basic_ostream@DU?$char_traits@D@std@@@std@@V?$MaybeLocal@VValue@v8@@@3@PEAU_SYSTEMTIME@@@Z 0000000180054258     node_report.obj
 0004:00000264       $pdata$?PrintVersionInformation@nodereport@@YAXAEAV?$basic_ostream@DU?$char_traits@D@std@@@std@@@Z 0000000180054264     node_report.obj
 0004:00000270       $pdata$?PrintJavaScriptErrorStack@nodereport@@YAXAEAV?$basic_ostream@DU?$char_traits@D@std@@@std@@PEAVIsolate@v8@@V?$MaybeLocal@VValue@v8@@@5@@Z 0000000180054270     node_report.obj
 0004:0000027c       $pdata$0$?PrintJavaScriptErrorStack@nodereport@@YAXAEAV?$basic_ostream@DU?$char_traits@D@std@@@std@@PEAVIsolate@v8@@V?$MaybeLocal@VValue@v8@@@5@@Z 000000018005427c     node_report.obj
 0004:00000288       $pdata$1$?PrintJavaScriptErrorStack@nodereport@@YAXAEAV?$basic_ostream@DU?$char_traits@D@std@@@std@@PEAVIsolate@v8@@V?$MaybeLocal@VValue@v8@@@5@@Z 0000000180054288     node_report.obj
 0004:00000294       $pdata$?PrintStackFromStackTrace@nodereport@@YAXAEAV?$basic_ostream@DU?$char_traits@D@std@@@std@@PEAVIsolate@v8@@W4DumpEvent@1@@Z 0000000180054294     node_report.obj
 0004:000002a0       $pdata$0$?PrintStackFromStackTrace@nodereport@@YAXAEAV?$basic_ostream@DU?$char_traits@D@std@@@std@@PEAVIsolate@v8@@W4DumpEvent@1@@Z 00000001800542a0     node_report.obj
 0004:000002ac       $pdata$1$?PrintStackFromStackTrace@nodereport@@YAXAEAV?$basic_ostream@DU?$char_traits@D@std@@@std@@PEAVIsolate@v8@@W4DumpEvent@1@@Z 00000001800542ac     node_report.obj
 0004:000002b8       $pdata$2$?PrintStackFromStackTrace@nodereport@@YAXAEAV?$basic_ostream@DU?$char_traits@D@std@@@std@@PEAVIsolate@v8@@W4DumpEvent@1@@Z 00000001800542b8     node_report.obj
 0004:000002c4       $pdata$3$?PrintStackFromStackTrace@nodereport@@YAXAEAV?$basic_ostream@DU?$char_traits@D@std@@@std@@PEAVIsolate@v8@@W4DumpEvent@1@@Z 00000001800542c4     node_report.obj
 0004:000002d0       $pdata$?PrintStackFrame@nodereport@@YAXAEAV?$basic_ostream@DU?$char_traits@D@std@@@std@@PEAVIsolate@v8@@V?$Local@VStackFrame@v8@@@5@HPEAX@Z 00000001800542d0     node_report.obj
 0004:000002dc       $pdata$?PrintNativeStack@nodereport@@YAXAEAV?$basic_ostream@DU?$char_traits@D@std@@@std@@@Z 00000001800542dc     node_report.obj
 0004:000002e8       $pdata$1$?PrintNativeStack@nodereport@@YAXAEAV?$basic_ostream@DU?$char_traits@D@std@@@std@@@Z 00000001800542e8     node_report.obj
 0004:000002f4       $pdata$2$?PrintNativeStack@nodereport@@YAXAEAV?$basic_ostream@DU?$char_traits@D@std@@@std@@@Z 00000001800542f4     node_report.obj
 0004:00000300       $pdata$?PrintGCStatistics@nodereport@@YAXAEAV?$basic_ostream@DU?$char_traits@D@std@@@std@@PEAVIsolate@v8@@@Z 0000000180054300     node_report.obj
 0004:0000030c       $pdata$0$?PrintGCStatistics@nodereport@@YAXAEAV?$basic_ostream@DU?$char_traits@D@std@@@std@@PEAVIsolate@v8@@@Z 000000018005430c     node_report.obj
 0004:00000318       $pdata$1$?PrintGCStatistics@nodereport@@YAXAEAV?$basic_ostream@DU?$char_traits@D@std@@@std@@PEAVIsolate@v8@@@Z 0000000180054318     node_report.obj
 0004:00000324       $pdata$?PrintSystemInformation@nodereport@@YAXAEAV?$basic_ostream@DU?$char_traits@D@std@@@std@@PEAVIsolate@v8@@@Z 0000000180054324     node_report.obj
 0004:00000330       $pdata$0$?PrintSystemInformation@nodereport@@YAXAEAV?$basic_ostream@DU?$char_traits@D@std@@@std@@PEAVIsolate@v8@@@Z 0000000180054330     node_report.obj
 0004:0000033c       $pdata$1$?PrintSystemInformation@nodereport@@YAXAEAV?$basic_ostream@DU?$char_traits@D@std@@@std@@PEAVIsolate@v8@@@Z 000000018005433c     node_report.obj
 0004:00000348       $pdata$?PrintLoadedLibraries@nodereport@@YAXAEAV?$basic_ostream@DU?$char_traits@D@std@@@std@@PEAVIsolate@v8@@@Z 0000000180054348     node_report.obj
 0004:00000354       $pdata$1$?PrintLoadedLibraries@nodereport@@YAXAEAV?$basic_ostream@DU?$char_traits@D@std@@@std@@PEAVIsolate@v8@@@Z 0000000180054354     node_report.obj
 0004:00000360       $pdata$2$?PrintLoadedLibraries@nodereport@@YAXAEAV?$basic_ostream@DU?$char_traits@D@std@@@std@@PEAVIsolate@v8@@@Z 0000000180054360     node_report.obj
 0004:0000036c       $pdata$3$?PrintLoadedLibraries@nodereport@@YAXAEAV?$basic_ostream@DU?$char_traits@D@std@@@std@@PEAVIsolate@v8@@@Z 000000018005436c     node_report.obj
 0004:00000378       $pdata$4$?PrintLoadedLibraries@nodereport@@YAXAEAV?$basic_ostream@DU?$char_traits@D@std@@@std@@PEAVIsolate@v8@@@Z 0000000180054378     node_report.obj
 0004:00000384       $pdata$??1?$basic_string@DU?$char_traits@D@std@@V?$allocator@D@2@@std@@QEAA@XZ 0000000180054384     node_report.obj
 0004:00000390       $pdata$??1?$basic_ofstream@DU?$char_traits@D@std@@@std@@UEAA@XZ 0000000180054390     node_report.obj
 0004:0000039c       $pdata$??0?$basic_ofstream@DU?$char_traits@D@std@@@std@@QEAA@XZ 000000018005439c     node_report.obj
 0004:000003a8       $pdata$?imbue@?$basic_filebuf@DU?$char_traits@D@std@@@std@@MEAAXAEBVlocale@2@@Z 00000001800543a8     node_report.obj
 0004:000003b4       $pdata$?sync@?$basic_filebuf@DU?$char_traits@D@std@@@std@@MEAAHXZ 00000001800543b4     node_report.obj
 0004:000003c0       $pdata$?setbuf@?$basic_filebuf@DU?$char_traits@D@std@@@std@@MEAAPEAV?$basic_streambuf@DU?$char_traits@D@std@@@2@PEAD_J@Z 00000001800543c0     node_report.obj
 0004:000003cc       $pdata$?seekpos@?$basic_filebuf@DU?$char_traits@D@std@@@std@@MEAA?AV?$fpos@U_Mbstatet@@@2@V32@H@Z 00000001800543cc     node_report.obj
 0004:000003d8       $pdata$?seekoff@?$basic_filebuf@DU?$char_traits@D@std@@@std@@MEAA?AV?$fpos@U_Mbstatet@@@2@_JHH@Z 00000001800543d8     node_report.obj
 0004:000003e4       $pdata$?uflow@?$basic_filebuf@DU?$char_traits@D@std@@@std@@MEAAHXZ 00000001800543e4     node_report.obj
 0004:000003f0       $pdata$0$?uflow@?$basic_filebuf@DU?$char_traits@D@std@@@std@@MEAAHXZ 00000001800543f0     node_report.obj
 0004:000003fc       $pdata$4$?uflow@?$basic_filebuf@DU?$char_traits@D@std@@@std@@MEAAHXZ 00000001800543fc     node_report.obj
 0004:00000408       $pdata$5$?uflow@?$basic_filebuf@DU?$char_traits@D@std@@@std@@MEAAHXZ 0000000180054408     node_report.obj
 0004:00000414       $pdata$6$?uflow@?$basic_filebuf@DU?$char_traits@D@std@@@std@@MEAAHXZ 0000000180054414     node_report.obj
 0004:00000420       $pdata$7$?uflow@?$basic_filebuf@DU?$char_traits@D@std@@@std@@MEAAHXZ 0000000180054420     node_report.obj
 0004:0000042c       $pdata$?underflow@?$basic_filebuf@DU?$char_traits@D@std@@@std@@MEAAHXZ 000000018005442c     node_report.obj
 0004:00000438       $pdata$0$?underflow@?$basic_filebuf@DU?$char_traits@D@std@@@std@@MEAAHXZ 0000000180054438     node_report.obj
 0004:00000444       $pdata$2$?underflow@?$basic_filebuf@DU?$char_traits@D@std@@@std@@MEAAHXZ 0000000180054444     node_report.obj
 0004:00000450       $pdata$?pbackfail@?$basic_filebuf@DU?$char_traits@D@std@@@std@@MEAAHH@Z 0000000180054450     node_report.obj
 0004:0000045c       $pdata$?overflow@?$basic_filebuf@DU?$char_traits@D@std@@@std@@MEAAHH@Z 000000018005445c     node_report.obj
 0004:00000468       $pdata$0$?overflow@?$basic_filebuf@DU?$char_traits@D@std@@@std@@MEAAHH@Z 0000000180054468     node_report.obj
 0004:00000474       $pdata$3$?overflow@?$basic_filebuf@DU?$char_traits@D@std@@@std@@MEAAHH@Z 0000000180054474     node_report.obj
 0004:00000480       $pdata$4$?overflow@?$basic_filebuf@DU?$char_traits@D@std@@@std@@MEAAHH@Z 0000000180054480     node_report.obj
 0004:0000048c       $pdata$5$?overflow@?$basic_filebuf@DU?$char_traits@D@std@@@std@@MEAAHH@Z 000000018005448c     node_report.obj
 0004:00000498       $pdata$6$?overflow@?$basic_filebuf@DU?$char_traits@D@std@@@std@@MEAAHH@Z 0000000180054498     node_report.obj
 0004:000004a4       $pdata$??1?$basic_filebuf@DU?$char_traits@D@std@@@std@@UEAA@XZ 00000001800544a4     node_report.obj
 0004:000004b0       $pdata$??6?$basic_ostream@DU?$char_traits@D@std@@@std@@QEAAAEAV01@_K@Z 00000001800544b0     node_report.obj
 0004:000004bc       $pdata$1$??6?$basic_ostream@DU?$char_traits@D@std@@@std@@QEAAAEAV01@_K@Z 00000001800544bc     node_report.obj
 0004:000004c8       $pdata$3$??6?$basic_ostream@DU?$char_traits@D@std@@@std@@QEAAAEAV01@_K@Z 00000001800544c8     node_report.obj
 0004:000004d4       $pdata$4$??6?$basic_ostream@DU?$char_traits@D@std@@@std@@QEAAAEAV01@_K@Z 00000001800544d4     node_report.obj
 0004:000004e0       $pdata$5$??6?$basic_ostream@DU?$char_traits@D@std@@@std@@QEAAAEAV01@_K@Z 00000001800544e0     node_report.obj
 0004:000004ec       $pdata$6$??6?$basic_ostream@DU?$char_traits@D@std@@@std@@QEAAAEAV01@_K@Z 00000001800544ec     node_report.obj
 0004:000004f8       $pdata$7$??6?$basic_ostream@DU?$char_traits@D@std@@@std@@QEAAAEAV01@_K@Z 00000001800544f8     node_report.obj
 0004:00000504       $pdata$??6?$basic_ostream@DU?$char_traits@D@std@@@std@@QEAAAEAV01@K@Z 0000000180054504     node_report.obj
 0004:00000510       $pdata$1$??6?$basic_ostream@DU?$char_traits@D@std@@@std@@QEAAAEAV01@K@Z 0000000180054510     node_report.obj
 0004:0000051c       $pdata$3$??6?$basic_ostream@DU?$char_traits@D@std@@@std@@QEAAAEAV01@K@Z 000000018005451c     node_report.obj
 0004:00000528       $pdata$4$??6?$basic_ostream@DU?$char_traits@D@std@@@std@@QEAAAEAV01@K@Z 0000000180054528     node_report.obj
 0004:00000534       $pdata$5$??6?$basic_ostream@DU?$char_traits@D@std@@@std@@QEAAAEAV01@K@Z 0000000180054534     node_report.obj
 0004:00000540       $pdata$6$??6?$basic_ostream@DU?$char_traits@D@std@@@std@@QEAAAEAV01@K@Z 0000000180054540     node_report.obj
 0004:0000054c       $pdata$7$??6?$basic_ostream@DU?$char_traits@D@std@@@std@@QEAAAEAV01@K@Z 000000018005454c     node_report.obj
 0004:00000558       $pdata$??6?$basic_ostream@DU?$char_traits@D@std@@@std@@QEAAAEAV01@H@Z 0000000180054558     node_report.obj
 0004:00000564       $pdata$1$??6?$basic_ostream@DU?$char_traits@D@std@@@std@@QEAAAEAV01@H@Z 0000000180054564     node_report.obj
 0004:00000570       $pdata$3$??6?$basic_ostream@DU?$char_traits@D@std@@@std@@QEAAAEAV01@H@Z 0000000180054570     node_report.obj
 0004:0000057c       $pdata$4$??6?$basic_ostream@DU?$char_traits@D@std@@@std@@QEAAAEAV01@H@Z 000000018005457c     node_report.obj
 0004:00000588       $pdata$5$??6?$basic_ostream@DU?$char_traits@D@std@@@std@@QEAAAEAV01@H@Z 0000000180054588     node_report.obj
 0004:00000594       $pdata$6$??6?$basic_ostream@DU?$char_traits@D@std@@@std@@QEAAAEAV01@H@Z 0000000180054594     node_report.obj
 0004:000005a0       $pdata$7$??6?$basic_ostream@DU?$char_traits@D@std@@@std@@QEAAAEAV01@H@Z 00000001800545a0     node_report.obj
 0004:000005ac       $pdata$?xsputn@?$basic_streambuf@DU?$char_traits@D@std@@@std@@MEAA_JPEBD_J@Z 00000001800545ac     node_report.obj
 0004:000005b8       $pdata$0$?xsputn@?$basic_streambuf@DU?$char_traits@D@std@@@std@@MEAA_JPEBD_J@Z 00000001800545b8     node_report.obj
 0004:000005c4       $pdata$1$?xsputn@?$basic_streambuf@DU?$char_traits@D@std@@@std@@MEAA_JPEBD_J@Z 00000001800545c4     node_report.obj
 0004:000005d0       $pdata$?xsgetn@?$basic_streambuf@DU?$char_traits@D@std@@@std@@MEAA_JPEAD_J@Z 00000001800545d0     node_report.obj
 0004:000005dc       $pdata$0$?xsgetn@?$basic_streambuf@DU?$char_traits@D@std@@@std@@MEAA_JPEAD_J@Z 00000001800545dc     node_report.obj
 0004:000005e8       $pdata$1$?xsgetn@?$basic_streambuf@DU?$char_traits@D@std@@@std@@MEAA_JPEAD_J@Z 00000001800545e8     node_report.obj
 0004:000005f4       $pdata$?uflow@?$basic_streambuf@DU?$char_traits@D@std@@@std@@MEAAHXZ 00000001800545f4     node_report.obj
 0004:00000600       $pdata$??_G?$basic_ofstream@DU?$char_traits@D@std@@@std@@UEAAPEAXI@Z 0000000180054600     node_report.obj
 0004:0000060c       $pdata$??_G?$basic_filebuf@DU?$char_traits@D@std@@@std@@UEAAPEAXI@Z 000000018005460c     node_report.obj
 0004:00000618       $pdata$??_G?$basic_ostream@DU?$char_traits@D@std@@@std@@UEAAPEAXI@Z 0000000180054618     node_report.obj
 0004:00000624       $pdata$??_G?$basic_streambuf@DU?$char_traits@D@std@@@std@@UEAAPEAXI@Z 0000000180054624     node_report.obj
 0004:00000630       $pdata$??_Glocale@std@@QEAAPEAXI@Z 0000000180054630     node_report.obj
 0004:0000063c       $pdata$??_G?$basic_ios@DU?$char_traits@D@std@@@std@@UEAAPEAXI@Z 000000018005463c     node_report.obj
 0004:00000648       $pdata$??0sentry@?$basic_ostream@DU?$char_traits@D@std@@@std@@QEAA@AEAV12@@Z 0000000180054648     node_report.obj
 0004:00000654       $pdata$?do_put@?$num_put@DV?$ostreambuf_iterator@DU?$char_traits@D@std@@@std@@@std@@MEBA?AV?$ostreambuf_iterator@DU?$char_traits@D@std@@@2@V32@AEAVios_base@2@DPEBX@Z 0000000180054654     node_report.obj
 0004:00000660       $pdata$?do_put@?$num_put@DV?$ostreambuf_iterator@DU?$char_traits@D@std@@@std@@@std@@MEBA?AV?$ostreambuf_iterator@DU?$char_traits@D@std@@@2@V32@AEAVios_base@2@DO@Z 0000000180054660     node_report.obj
 0004:0000066c       $pdata$?do_put@?$num_put@DV?$ostreambuf_iterator@DU?$char_traits@D@std@@@std@@@std@@MEBA?AV?$ostreambuf_iterator@DU?$char_traits@D@std@@@2@V32@AEAVios_base@2@DN@Z 000000018005466c     node_report.obj
 0004:00000678       $pdata$?do_put@?$num_put@DV?$ostreambuf_iterator@DU?$char_traits@D@std@@@std@@@std@@MEBA?AV?$ostreambuf_iterator@DU?$char_traits@D@std@@@2@V32@AEAVios_base@2@D_K@Z 0000000180054678     node_report.obj
 0004:00000684       $pdata$?do_put@?$num_put@DV?$ostreambuf_iterator@DU?$char_traits@D@std@@@std@@@std@@MEBA?AV?$ostreambuf_iterator@DU?$char_traits@D@std@@@2@V32@AEAVios_base@2@D_J@Z 0000000180054684     node_report.obj
 0004:00000690       $pdata$?do_put@?$num_put@DV?$ostreambuf_iterator@DU?$char_traits@D@std@@@std@@@std@@MEBA?AV?$ostreambuf_iterator@DU?$char_traits@D@std@@@2@V32@AEAVios_base@2@DK@Z 0000000180054690     node_report.obj
 0004:0000069c       $pdata$?do_put@?$num_put@DV?$ostreambuf_iterator@DU?$char_traits@D@std@@@std@@@std@@MEBA?AV?$ostreambuf_iterator@DU?$char_traits@D@std@@@2@V32@AEAVios_base@2@DJ@Z 000000018005469c     node_report.obj
 0004:000006a8       $pdata$?do_put@?$num_put@DV?$ostreambuf_iterator@DU?$char_traits@D@std@@@std@@@std@@MEBA?AV?$ostreambuf_iterator@DU?$char_traits@D@std@@@2@V32@AEAVios_base@2@D_N@Z 00000001800546a8     node_report.obj
 0004:000006b4       $pdata$1$?do_put@?$num_put@DV?$ostreambuf_iterator@DU?$char_traits@D@std@@@std@@@std@@MEBA?AV?$ostreambuf_iterator@DU?$char_traits@D@std@@@2@V32@AEAVios_base@2@D_N@Z 00000001800546b4     node_report.obj
 0004:000006c0       $pdata$2$?do_put@?$num_put@DV?$ostreambuf_iterator@DU?$char_traits@D@std@@@std@@@std@@MEBA?AV?$ostreambuf_iterator@DU?$char_traits@D@std@@@2@V32@AEAVios_base@2@D_N@Z 00000001800546c0     node_report.obj
 0004:000006cc       $pdata$3$?do_put@?$num_put@DV?$ostreambuf_iterator@DU?$char_traits@D@std@@@std@@@std@@MEBA?AV?$ostreambuf_iterator@DU?$char_traits@D@std@@@2@V32@AEAVios_base@2@D_N@Z 00000001800546cc     node_report.obj
 0004:000006d8       $pdata$4$?do_put@?$num_put@DV?$ostreambuf_iterator@DU?$char_traits@D@std@@@std@@@std@@MEBA?AV?$ostreambuf_iterator@DU?$char_traits@D@std@@@2@V32@AEAVios_base@2@D_N@Z 00000001800546d8     node_report.obj
 0004:000006e4       $pdata$5$?do_put@?$num_put@DV?$ostreambuf_iterator@DU?$char_traits@D@std@@@std@@@std@@MEBA?AV?$ostreambuf_iterator@DU?$char_traits@D@std@@@2@V32@AEAVios_base@2@D_N@Z 00000001800546e4     node_report.obj
 0004:000006f0       $pdata$?erase@?$basic_string@DU?$char_traits@D@std@@V?$allocator@D@2@@std@@QEAAAEAV12@_K0@Z 00000001800546f0     node_report.obj
 0004:000006fc       $pdata$?assign@?$basic_string@DU?$char_traits@D@std@@V?$allocator@D@2@@std@@QEAAAEAV12@_KD@Z 00000001800546fc     node_report.obj
 0004:00000708       $pdata$?assign@?$basic_string@DU?$char_traits@D@std@@V?$allocator@D@2@@std@@QEAAAEAV12@PEBD_K@Z 0000000180054708     node_report.obj
 0004:00000714       $pdata$?assign@?$basic_string@DU?$char_traits@D@std@@V?$allocator@D@2@@std@@QEAAAEAV12@AEBV12@_K1@Z 0000000180054714     node_report.obj
 0004:00000720       $pdata$?append@?$basic_string@DU?$char_traits@D@std@@V?$allocator@D@2@@std@@QEAAAEAV12@_KD@Z 0000000180054720     node_report.obj
 0004:0000072c       $pdata$0$?append@?$basic_string@DU?$char_traits@D@std@@V?$allocator@D@2@@std@@QEAAAEAV12@_KD@Z 000000018005472c     node_report.obj
 0004:00000738       $pdata$1$?append@?$basic_string@DU?$char_traits@D@std@@V?$allocator@D@2@@std@@QEAAAEAV12@_KD@Z 0000000180054738     node_report.obj
 0004:00000744       $pdata$2$?append@?$basic_string@DU?$char_traits@D@std@@V?$allocator@D@2@@std@@QEAAAEAV12@_KD@Z 0000000180054744     node_report.obj
 0004:00000750       $pdata$?append@?$basic_string@DU?$char_traits@D@std@@V?$allocator@D@2@@std@@QEAAAEAV12@PEBD_K@Z 0000000180054750     node_report.obj
 0004:0000075c       $pdata$0$?append@?$basic_string@DU?$char_traits@D@std@@V?$allocator@D@2@@std@@QEAAAEAV12@PEBD_K@Z 000000018005475c     node_report.obj
 0004:00000768       $pdata$1$?append@?$basic_string@DU?$char_traits@D@std@@V?$allocator@D@2@@std@@QEAAAEAV12@PEBD_K@Z 0000000180054768     node_report.obj
 0004:00000774       $pdata$2$?append@?$basic_string@DU?$char_traits@D@std@@V?$allocator@D@2@@std@@QEAAAEAV12@PEBD_K@Z 0000000180054774     node_report.obj
 0004:00000780       $pdata$?append@?$basic_string@DU?$char_traits@D@std@@V?$allocator@D@2@@std@@QEAAAEAV12@AEBV12@_K1@Z 0000000180054780     node_report.obj
 0004:0000078c       $pdata$0$?append@?$basic_string@DU?$char_traits@D@std@@V?$allocator@D@2@@std@@QEAAAEAV12@AEBV12@_K1@Z 000000018005478c     node_report.obj
 0004:00000798       $pdata$1$?append@?$basic_string@DU?$char_traits@D@std@@V?$allocator@D@2@@std@@QEAAAEAV12@AEBV12@_K1@Z 0000000180054798     node_report.obj
 0004:000007a4       $pdata$2$?append@?$basic_string@DU?$char_traits@D@std@@V?$allocator@D@2@@std@@QEAAAEAV12@AEBV12@_K1@Z 00000001800547a4     node_report.obj
 0004:000007b0       $pdata$?_Assign_rv@?$basic_string@DU?$char_traits@D@std@@V?$allocator@D@2@@std@@QEAAX$$QEAV12@@Z 00000001800547b0     node_report.obj
 0004:000007bc       $pdata$?_Initcvt@?$basic_filebuf@DU?$char_traits@D@std@@@std@@IEAAXPEBV?$codecvt@DDU_Mbstatet@@@2@@Z 00000001800547bc     node_report.obj
 0004:000007c8       $pdata$?_Endwrite@?$basic_filebuf@DU?$char_traits@D@std@@@std@@IEAA_NXZ 00000001800547c8     node_report.obj
 0004:000007d4       $pdata$2$?_Endwrite@?$basic_filebuf@DU?$char_traits@D@std@@@std@@IEAA_NXZ 00000001800547d4     node_report.obj
 0004:000007e0       $pdata$3$?_Endwrite@?$basic_filebuf@DU?$char_traits@D@std@@@std@@IEAA_NXZ 00000001800547e0     node_report.obj
 0004:000007ec       $pdata$4$?_Endwrite@?$basic_filebuf@DU?$char_traits@D@std@@@std@@IEAA_NXZ 00000001800547ec     node_report.obj
 0004:000007f8       $pdata$?_Init@?$basic_filebuf@DU?$char_traits@D@std@@@std@@IEAAXPEAU_iobuf@@W4_Initfl@12@@Z 00000001800547f8     node_report.obj
 0004:00000804       $pdata$?close@?$basic_filebuf@DU?$char_traits@D@std@@@std@@QEAAPEAV12@XZ 0000000180054804     node_report.obj
 0004:00000810       $pdata$??0?$basic_ostream@DU?$char_traits@D@std@@@std@@QEAA@PEAV?$basic_streambuf@DU?$char_traits@D@std@@@1@_N@Z 0000000180054810     node_report.obj
 0004:0000081c       $pdata$?init@?$basic_ios@DU?$char_traits@D@std@@@std@@IEAAXPEAV?$basic_streambuf@DU?$char_traits@D@std@@@2@_N@Z 000000018005481c     node_report.obj
 0004:00000828       $pdata$??_G?$num_put@DV?$ostreambuf_iterator@DU?$char_traits@D@std@@@std@@@std@@MEAAPEAXI@Z 0000000180054828     node_report.obj
 0004:00000828       $pdata$??_G?$codecvt@DDU_Mbstatet@@@std@@MEAAPEAXI@Z 0000000180054828     node_report.obj
 0004:00000834       $pdata$?do_truename@?$numpunct@D@std@@MEBA?AV?$basic_string@DU?$char_traits@D@std@@V?$allocator@D@2@@2@XZ 0000000180054834     node_report.obj
 0004:00000840       $pdata$?do_falsename@?$numpunct@D@std@@MEBA?AV?$basic_string@DU?$char_traits@D@std@@V?$allocator@D@2@@2@XZ 0000000180054840     node_report.obj
 0004:0000084c       $pdata$?do_grouping@?$numpunct@D@std@@MEBA?AV?$basic_string@DU?$char_traits@D@std@@V?$allocator@D@2@@2@XZ 000000018005484c     node_report.obj
 0004:00000858       $pdata$?_Iput@?$num_put@DV?$ostreambuf_iterator@DU?$char_traits@D@std@@@std@@@std@@AEBA?AV?$ostreambuf_iterator@DU?$char_traits@D@std@@@2@V32@AEAVios_base@2@DPEAD_K@Z 0000000180054858     node_report.obj
 0004:00000864       $pdata$?_Fput@?$num_put@DV?$ostreambuf_iterator@DU?$char_traits@D@std@@@std@@@std@@AEBA?AV?$ostreambuf_iterator@DU?$char_traits@D@std@@@2@V32@AEAVios_base@2@DPEBD_K@Z 0000000180054864     node_report.obj
 0004:00000870       $pdata$?flush@?$basic_ostream@DU?$char_traits@D@std@@@std@@QEAAAEAV12@XZ 0000000180054870     node_report.obj
 0004:0000087c       $pdata$0$?flush@?$basic_ostream@DU?$char_traits@D@std@@@std@@QEAAAEAV12@XZ 000000018005487c     node_report.obj
 0004:00000888       $pdata$1$?flush@?$basic_ostream@DU?$char_traits@D@std@@@std@@QEAAAEAV12@XZ 0000000180054888     node_report.obj
 0004:00000894       $pdata$??0?$basic_streambuf@DU?$char_traits@D@std@@@std@@IEAA@XZ 0000000180054894     node_report.obj
 0004:000008a0       $pdata$?widen@?$basic_ios@DU?$char_traits@D@std@@@std@@QEBADD@Z 00000001800548a0     node_report.obj
 0004:000008ac       $pdata$??_G?$numpunct@D@std@@MEAAPEAXI@Z 00000001800548ac     node_report.obj
 0004:000008b8       $pdata$?_Copy@?$basic_string@DU?$char_traits@D@std@@V?$allocator@D@2@@std@@QEAAX_K0@Z 00000001800548b8     node_report.obj
 0004:000008c4       $pdata$?deallocate@?$allocator@D@std@@QEAAXPEAD_K@Z 00000001800548c4     node_report.obj
 0004:000008d0       $pdata$?allocate@?$allocator@D@std@@QEAAPEAD_K@Z 00000001800548d0     node_report.obj
 0004:000008dc       $pdata$??$use_facet@V?$ctype@D@std@@@std@@YAAEBV?$ctype@D@0@AEBVlocale@0@@Z 00000001800548dc     node_report.obj
 0004:000008e8       $pdata$??$_Immortalize@V_Iostream_error_category@std@@@std@@YAAEAV_Iostream_error_category@0@XZ 00000001800548e8     node_report.obj
 0004:000008f4       $pdata$??$?6U?$char_traits@D@std@@@std@@YAAEAV?$basic_ostream@DU?$char_traits@D@std@@@0@AEAV10@PEBD@Z 00000001800548f4     node_report.obj
 0004:00000900       $pdata$3$??$?6U?$char_traits@D@std@@@std@@YAAEAV?$basic_ostream@DU?$char_traits@D@std@@@0@AEAV10@PEBD@Z 0000000180054900     node_report.obj
 0004:0000090c       $pdata$4$??$?6U?$char_traits@D@std@@@std@@YAAEAV?$basic_ostream@DU?$char_traits@D@std@@@0@AEAV10@PEBD@Z 000000018005490c     node_report.obj
 0004:00000918       $pdata$5$??$?6U?$char_traits@D@std@@@std@@YAAEAV?$basic_ostream@DU?$char_traits@D@std@@@0@AEAV10@PEBD@Z 0000000180054918     node_report.obj
 0004:00000924       $pdata$??$?6DU?$char_traits@D@std@@V?$allocator@D@1@@std@@YAAEAV?$basic_ostream@DU?$char_traits@D@std@@@0@AEAV10@AEBV?$basic_string@DU?$char_traits@D@std@@V?$allocator@D@2@@0@@Z 0000000180054924     node_report.obj
 0004:00000930       $pdata$??$use_facet@V?$codecvt@DDU_Mbstatet@@@std@@@std@@YAAEBV?$codecvt@DDU_Mbstatet@@@0@AEBVlocale@0@@Z 0000000180054930     node_report.obj
 0004:0000093c       $pdata$??$use_facet@V?$num_put@DV?$ostreambuf_iterator@DU?$char_traits@D@std@@@std@@@std@@@std@@YAAEBV?$num_put@DV?$ostreambuf_iterator@DU?$char_traits@D@std@@@std@@@0@AEBVlocale@0@@Z 000000018005493c     node_report.obj
 0004:00000948       $pdata$??$use_facet@V?$numpunct@D@std@@@std@@YAAEBV?$numpunct@D@0@AEBVlocale@0@@Z 0000000180054948     node_report.obj
 0004:00000954       $pdata$?_Getcat@?$numpunct@D@std@@SA_KPEAPEBVfacet@locale@2@PEBV42@@Z 0000000180054954     node_report.obj
 0004:00000960       $pdata$0$?_Getcat@?$numpunct@D@std@@SA_KPEAPEBVfacet@locale@2@PEBV42@@Z 0000000180054960     node_report.obj
 0004:0000096c       $pdata$1$?_Getcat@?$numpunct@D@std@@SA_KPEAPEBVfacet@locale@2@PEBV42@@Z 000000018005496c     node_report.obj
 0004:00000978       $pdata$?put@?$basic_ostream@DU?$char_traits@D@std@@@std@@QEAAAEAV12@D@Z 0000000180054978     node_report.obj
 0004:00000984       $pdata$?_Init@?$numpunct@D@std@@IEAAXAEBV_Locinfo@2@_N@Z 0000000180054984     node_report.obj
 0004:00000990       $pdata$fprintf             0000000180054990     module.obj
 0004:0000099c       $pdata$sscanf              000000018005499c     module.obj
 0004:000009a8       $pdata$?FunctionCallbackWrapper@imp@Nan@@YAXAEBV?$FunctionCallbackInfo@VValue@v8@@@v8@@@Z 00000001800549a8     module.obj
 0004:000009b4       $pdata$?New@?$Factory@VFunctionTemplate@v8@@@imp@Nan@@SA?AV?$Local@VFunctionTemplate@v8@@@v8@@P6AXAEBV?$FunctionCallbackInfo@VValue@v8@@@3@@ZV?$Local@VValue@v8@@@5@V?$Local@VSignature@v8@@@5@@Z 00000001800549b4     module.obj
 0004:000009c0       $pdata$0$?New@?$Factory@VFunctionTemplate@v8@@@imp@Nan@@SA?AV?$Local@VFunctionTemplate@v8@@@v8@@P6AXAEBV?$FunctionCallbackInfo@VValue@v8@@@3@@ZV?$Local@VValue@v8@@@5@V?$Local@VSignature@v8@@@5@@Z 00000001800549c0     module.obj
 0004:000009cc       $pdata$1$?New@?$Factory@VFunctionTemplate@v8@@@imp@Nan@@SA?AV?$Local@VFunctionTemplate@v8@@@v8@@P6AXAEBV?$FunctionCallbackInfo@VValue@v8@@@3@@ZV?$Local@VValue@v8@@@5@V?$Local@VSignature@v8@@@5@@Z 00000001800549cc     module.obj
 0004:000009d8       $pdata$2$?New@?$Factory@VFunctionTemplate@v8@@@imp@Nan@@SA?AV?$Local@VFunctionTemplate@v8@@@v8@@P6AXAEBV?$FunctionCallbackInfo@VValue@v8@@@3@@ZV?$Local@VValue@v8@@@5@V?$Local@VSignature@v8@@@5@@Z 00000001800549d8     module.obj
 0004:000009e4       $pdata$3$?New@?$Factory@VFunctionTemplate@v8@@@imp@Nan@@SA?AV?$Local@VFunctionTemplate@v8@@@v8@@P6AXAEBV?$FunctionCallbackInfo@VValue@v8@@@3@@ZV?$Local@VValue@v8@@@5@V?$Local@VSignature@v8@@@5@@Z 00000001800549e4     module.obj
 0004:000009f0       $pdata$?ThrowError@Nan@@YAXPEBD@Z 00000001800549f0     module.obj
 0004:000009fc       $pdata$?TriggerReport@nodereport@@YAXAEBV?$FunctionCallbackInfo@VValue@v8@@@Nan@@@Z 00000001800549fc     module.obj
 0004:00000a08       $pdata$?GetReport@nodereport@@YAXAEBV?$FunctionCallbackInfo@VValue@v8@@@Nan@@@Z 0000000180054a08     module.obj
 0004:00000a14       $pdata$?SetEvents@nodereport@@YAXAEBV?$FunctionCallbackInfo@VValue@v8@@@Nan@@@Z 0000000180054a14     module.obj
 0004:00000a20       $pdata$?SetFileName@nodereport@@YAXAEBV?$FunctionCallbackInfo@VValue@v8@@@Nan@@@Z 0000000180054a20     module.obj
 0004:00000a2c       $pdata$?SetDirectory@nodereport@@YAXAEBV?$FunctionCallbackInfo@VValue@v8@@@Nan@@@Z 0000000180054a2c     module.obj
 0004:00000a38       $pdata$?SetVerbose@nodereport@@YAXAEBV?$FunctionCallbackInfo@VValue@v8@@@Nan@@@Z 0000000180054a38     module.obj
 0004:00000a44       $pdata$?OnFatalError@nodereport@@YAXPEBD0@Z 0000000180054a44     module.obj
 0004:00000a50       $pdata$?OnUncaughtException@nodereport@@YA_NPEAVIsolate@v8@@@Z 0000000180054a50     module.obj
 0004:00000a5c       $pdata$?PrintStackFromStackTrace@nodereport@@YAXPEAVIsolate@v8@@PEAU_iobuf@@@Z 0000000180054a5c     module.obj
 0004:00000a68       $pdata$1$?PrintStackFromStackTrace@nodereport@@YAXPEAVIsolate@v8@@PEAU_iobuf@@@Z 0000000180054a68     module.obj
 0004:00000a74       $pdata$2$?PrintStackFromStackTrace@nodereport@@YAXPEAVIsolate@v8@@PEAU_iobuf@@@Z 0000000180054a74     module.obj
 0004:00000a80       $pdata$?Initialize@nodereport@@YAXV?$Local@VObject@v8@@@v8@@@Z 0000000180054a80     module.obj
 0004:00000a8c       $pdata$??1?$basic_ostringstream@DU?$char_traits@D@std@@V?$allocator@D@2@@std@@UEAA@XZ 0000000180054a8c     module.obj
 0004:00000a98       $pdata$??0?$basic_ostringstream@DU?$char_traits@D@std@@V?$allocator@D@2@@std@@QEAA@H@Z 0000000180054a98     module.obj
 0004:00000aa4       $pdata$?seekpos@?$basic_stringbuf@DU?$char_traits@D@std@@V?$allocator@D@2@@std@@MEAA?AV?$fpos@U_Mbstatet@@@2@V32@H@Z 0000000180054aa4     module.obj
 0004:00000ab0       $pdata$?seekoff@?$basic_stringbuf@DU?$char_traits@D@std@@V?$allocator@D@2@@std@@MEAA?AV?$fpos@U_Mbstatet@@@2@_JHH@Z 0000000180054ab0     module.obj
 0004:00000abc       $pdata$?overflow@?$basic_stringbuf@DU?$char_traits@D@std@@V?$allocator@D@2@@std@@MEAAHH@Z 0000000180054abc     module.obj
 0004:00000ac8       $pdata$0$?overflow@?$basic_stringbuf@DU?$char_traits@D@std@@V?$allocator@D@2@@std@@MEAAHH@Z 0000000180054ac8     module.obj
 0004:00000ad4       $pdata$6$?overflow@?$basic_stringbuf@DU?$char_traits@D@std@@V?$allocator@D@2@@std@@MEAAHH@Z 0000000180054ad4     module.obj
 0004:00000ae0       $pdata$7$?overflow@?$basic_stringbuf@DU?$char_traits@D@std@@V?$allocator@D@2@@std@@MEAAHH@Z 0000000180054ae0     module.obj
 0004:00000aec       $pdata$??_G?$basic_ostringstream@DU?$char_traits@D@std@@V?$allocator@D@2@@std@@UEAAPEAXI@Z 0000000180054aec     module.obj
 0004:00000af8       $pdata$??_G?$basic_stringbuf@DU?$char_traits@D@std@@V?$allocator@D@2@@std@@UEAAPEAXI@Z 0000000180054af8     module.obj
 0004:00000b04       $pdata$?find@?$basic_string@DU?$char_traits@D@std@@V?$allocator@D@2@@std@@QEBA_KPEBD_K1@Z 0000000180054b04     module.obj
 0004:00000b10       $pdata$?_Tidy@?$basic_stringbuf@DU?$char_traits@D@std@@V?$allocator@D@2@@std@@IEAAXXZ 0000000180054b10     module.obj
 0004:00000b1c       $pdata$?str@?$basic_stringbuf@DU?$char_traits@D@std@@V?$allocator@D@2@@std@@QEBA?AV?$basic_string@DU?$char_traits@D@std@@V?$allocator@D@2@@2@XZ 0000000180054b1c     module.obj
 0004:00000b28       $pdata$?Get@Nan@@YA?AV?$MaybeLocal@VValue@v8@@@v8@@V?$Local@VObject@v8@@@3@V?$Local@VValue@v8@@@3@@Z 0000000180054b28     utilities.obj
 0004:00000b34       $pdata$?ProcessNodeReportEvents@nodereport@@YAIPEBD@Z 0000000180054b34     utilities.obj
 0004:00000b40       $pdata$?ProcessNodeReportFileName@nodereport@@YAXPEBD@Z 0000000180054b40     utilities.obj
 0004:00000b4c       $pdata$?ProcessNodeReportDirectory@nodereport@@YAXPEBD@Z 0000000180054b4c     utilities.obj
 0004:00000b58       $pdata$?ProcessNodeReportVerboseSwitch@nodereport@@YAIPEBD@Z 0000000180054b58     utilities.obj
 0004:00000b64       $pdata$?SetVersionString@nodereport@@YAXPEAVIsolate@v8@@@Z 0000000180054b64     utilities.obj
 0004:00000b70       $pdata$1$?SetVersionString@nodereport@@YAXPEAVIsolate@v8@@@Z 0000000180054b70     utilities.obj
 0004:00000b7c       $pdata$2$?SetVersionString@nodereport@@YAXPEAVIsolate@v8@@@Z 0000000180054b7c     utilities.obj
 0004:00000b88       $pdata$3$?SetVersionString@nodereport@@YAXPEAVIsolate@v8@@@Z 0000000180054b88     utilities.obj
 0004:00000b94       $pdata$4$?SetVersionString@nodereport@@YAXPEAVIsolate@v8@@@Z 0000000180054b94     utilities.obj
 0004:00000ba0       $pdata$?reportEndpoint@nodereport@@YAXPEAUuv_handle_s@@PEAUsockaddr@@PEBDAEAV?$basic_ostringstream@DU?$char_traits@D@std@@V?$allocator@D@2@@std@@@Z 0000000180054ba0     utilities.obj
 0004:00000bac       $pdata$?reportEndpoints@nodereport@@YAXPEAUuv_handle_s@@AEAV?$basic_ostringstream@DU?$char_traits@D@std@@V?$allocator@D@2@@std@@@Z 0000000180054bac     utilities.obj
 0004:00000bb8       $pdata$?reportPath@nodereport@@YAXPEAUuv_handle_s@@AEAV?$basic_ostringstream@DU?$char_traits@D@std@@V?$allocator@D@2@@std@@@Z 0000000180054bb8     utilities.obj
 0004:00000bc4       $pdata$0$?reportPath@nodereport@@YAXPEAUuv_handle_s@@AEAV?$basic_ostringstream@DU?$char_traits@D@std@@V?$allocator@D@2@@std@@@Z 0000000180054bc4     utilities.obj
 0004:00000bd0       $pdata$1$?reportPath@nodereport@@YAXPEAUuv_handle_s@@AEAV?$basic_ostringstream@DU?$char_traits@D@std@@V?$allocator@D@2@@std@@@Z 0000000180054bd0     utilities.obj
 0004:00000bdc       $pdata$2$?reportPath@nodereport@@YAXPEAUuv_handle_s@@AEAV?$basic_ostringstream@DU?$char_traits@D@std@@V?$allocator@D@2@@std@@@Z 0000000180054bdc     utilities.obj
 0004:00000be8       $pdata$?walkHandle@nodereport@@YAXPEAUuv_handle_s@@PEAX@Z 0000000180054be8     utilities.obj
 0004:00000bf4       $pdata$0$?walkHandle@nodereport@@YAXPEAUuv_handle_s@@PEAX@Z 0000000180054bf4     utilities.obj
 0004:00000c00       $pdata$1$?walkHandle@nodereport@@YAXPEAUuv_handle_s@@PEAX@Z 0000000180054c00     utilities.obj
 0004:00000c0c       $pdata$2$?walkHandle@nodereport@@YAXPEAUuv_handle_s@@PEAX@Z 0000000180054c0c     utilities.obj
 0004:00000c18       $pdata$6$?walkHandle@nodereport@@YAXPEAUuv_handle_s@@PEAX@Z 0000000180054c18     utilities.obj
 0004:00000c24       $pdata$7$?walkHandle@nodereport@@YAXPEAUuv_handle_s@@PEAX@Z 0000000180054c24     utilities.obj
 0004:00000c30       $pdata$8$?walkHandle@nodereport@@YAXPEAUuv_handle_s@@PEAX@Z 0000000180054c30     utilities.obj
 0004:00000c3c       $pdata$9$?walkHandle@nodereport@@YAXPEAUuv_handle_s@@PEAX@Z 0000000180054c3c     utilities.obj
 0004:00000c48       $pdata$10$?walkHandle@nodereport@@YAXPEAUuv_handle_s@@PEAX@Z 0000000180054c48     utilities.obj
 0004:00000c54       $pdata$11$?walkHandle@nodereport@@YAXPEAUuv_handle_s@@PEAX@Z 0000000180054c54     utilities.obj
 0004:00000c60       $pdata$12$?walkHandle@nodereport@@YAXPEAUuv_handle_s@@PEAX@Z 0000000180054c60     utilities.obj
 0004:00000c6c       $pdata$?WriteInteger@nodereport@@YAXAEAV?$basic_ostream@DU?$char_traits@D@std@@@std@@_K@Z 0000000180054c6c     utilities.obj
 0004:00000c78       $pdata$??6?$basic_ostream@DU?$char_traits@D@std@@@std@@QEAAAEAV01@PEBX@Z 0000000180054c78     utilities.obj
 0004:00000c84       $pdata$1$??6?$basic_ostream@DU?$char_traits@D@std@@@std@@QEAAAEAV01@PEBX@Z 0000000180054c84     utilities.obj
 0004:00000c90       $pdata$3$??6?$basic_ostream@DU?$char_traits@D@std@@@std@@QEAAAEAV01@PEBX@Z 0000000180054c90     utilities.obj
 0004:00000c9c       $pdata$4$??6?$basic_ostream@DU?$char_traits@D@std@@@std@@QEAAAEAV01@PEBX@Z 0000000180054c9c     utilities.obj
 0004:00000ca8       $pdata$5$??6?$basic_ostream@DU?$char_traits@D@std@@@std@@QEAAAEAV01@PEBX@Z 0000000180054ca8     utilities.obj
 0004:00000cb4       $pdata$6$??6?$basic_ostream@DU?$char_traits@D@std@@@std@@QEAAAEAV01@PEBX@Z 0000000180054cb4     utilities.obj
 0004:00000cc0       $pdata$7$??6?$basic_ostream@DU?$char_traits@D@std@@@std@@QEAAAEAV01@PEBX@Z 0000000180054cc0     utilities.obj
 0004:00000ccc       $pdata$??$?6U?$char_traits@D@std@@@std@@YAAEAV?$basic_ostream@DU?$char_traits@D@std@@@0@AEAV10@D@Z 0000000180054ccc     utilities.obj
 0004:00000cd8       $pdata$1$??$?6U?$char_traits@D@std@@@std@@YAAEAV?$basic_ostream@DU?$char_traits@D@std@@@0@AEAV10@D@Z 0000000180054cd8     utilities.obj
 0004:00000ce4       $pdata$2$??$?6U?$char_traits@D@std@@@std@@YAAEAV?$basic_ostream@DU?$char_traits@D@std@@@0@AEAV10@D@Z 0000000180054ce4     utilities.obj
 0004:00000cf0       $pdata$3$??$?6U?$char_traits@D@std@@@std@@YAAEAV?$basic_ostream@DU?$char_traits@D@std@@@0@AEAV10@D@Z 0000000180054cf0     utilities.obj
 0004:00000cfc       $pdata$4$??$?6U?$char_traits@D@std@@@std@@YAAEAV?$basic_ostream@DU?$char_traits@D@std@@@0@AEAV10@D@Z 0000000180054cfc     utilities.obj
 0004:00000d08       $pdata$5$??$?6U?$char_traits@D@std@@@std@@YAAEAV?$basic_ostream@DU?$char_traits@D@std@@@0@AEAV10@D@Z 0000000180054d08     utilities.obj
 0004:00000d14       $pdata$?load_exe_hook@@YAP6A_JXZIPEAUDelayLoadInfo@@@Z 0000000180054d14     win_delay_load_hook.obj
 0004:00000d2c       $pdata$??0_Init_locks@std@@QEAA@XZ 0000000180054d2c     libcpmt:xlock.obj
 0004:00000d38       $pdata$??0_Lockit@std@@QEAA@H@Z 0000000180054d38     libcpmt:xlock.obj
 0004:00000d44       $pdata$??1_Init_locks@std@@QEAA@XZ 0000000180054d44     libcpmt:xlock.obj
 0004:00000d50       $pdata$??1_Lockit@std@@QEAA@XZ 0000000180054d50     libcpmt:xlock.obj
 0004:00000d5c       $pdata$??0exception@std@@QEAA@AEBV01@@Z 0000000180054d5c     libcpmt:cout.obj
 0004:00000d68       $pdata$??4?$_Yarn@D@std@@QEAAAEAV01@PEBD@Z 0000000180054d68     libcpmt:locale0.obj
 0004:00000d74       $pdata$??_G_Fac_node@std@@QEAAPEAXI@Z 0000000180054d74     libcpmt:locale0.obj
 0004:00000d80       $pdata$??_G_Locimp@locale@std@@MEAAPEAXI@Z 0000000180054d80     libcpmt:locale0.obj
 0004:00000d8c       $pdata$?_Facet_Register@std@@YAXPEAV_Facet_base@1@@Z 0000000180054d8c     libcpmt:locale0.obj
 0004:00000d98       $pdata$?_Init@locale@std@@CAPEAV_Locimp@12@_N@Z 0000000180054d98     libcpmt:locale0.obj
 0004:00000da4       $pdata$?_Locimp_dtor@_Locimp@locale@std@@CAXPEAV123@@Z 0000000180054da4     libcpmt:locale0.obj
 0004:00000db0       $pdata$?_Locinfo_ctor@_Locinfo@std@@SAXPEAV12@PEBD@Z 0000000180054db0     libcpmt:locale0.obj
 0004:00000dbc       $pdata$?_Locinfo_dtor@_Locinfo@std@@SAXPEAV12@@Z 0000000180054dbc     libcpmt:locale0.obj
 0004:00000dc8       $pdata$?_New_Locimp@_Locimp@locale@std@@CAPEAV123@_N@Z 0000000180054dc8     libcpmt:locale0.obj
 0004:00000dd4       $pdata$?_Setgloballocale@locale@std@@CAXPEAX@Z 0000000180054dd4     libcpmt:locale0.obj
 0004:00000de0       $pdata$_Deletegloballocale 0000000180054de0     libcpmt:locale0.obj
 0004:00000dec       $pdata$tidy_global         0000000180054dec     libcpmt:locale0.obj
 0004:00000df8       $pdata$??0bad_alloc@std@@QEAA@AEBV01@@Z 0000000180054df8     libcpmt:xthrow.obj
 0004:00000e04       $pdata$??0length_error@std@@QEAA@AEBV01@@Z 0000000180054e04     libcpmt:xthrow.obj
 0004:00000e10       $pdata$??0length_error@std@@QEAA@PEBD@Z 0000000180054e10     libcpmt:xthrow.obj
 0004:00000e1c       $pdata$??0logic_error@std@@QEAA@AEBV01@@Z 0000000180054e1c     libcpmt:xthrow.obj
 0004:00000e28       $pdata$??0out_of_range@std@@QEAA@AEBV01@@Z 0000000180054e28     libcpmt:xthrow.obj
 0004:00000e34       $pdata$??0out_of_range@std@@QEAA@PEBD@Z 0000000180054e34     libcpmt:xthrow.obj
 0004:00000e40       $pdata$?_Xlength_error@std@@YAXPEBD@Z 0000000180054e40     libcpmt:xthrow.obj
 0004:00000e4c       $pdata$?_Xout_of_range@std@@YAXPEBD@Z 0000000180054e4c     libcpmt:xthrow.obj
 0004:00000e58       $pdata$?_Addstd@ios_base@std@@SAXPEAV12@@Z 0000000180054e58     libcpmt:ios.obj
 0004:00000e64       $pdata$?_Ios_base_dtor@ios_base@std@@CAXPEAV12@@Z 0000000180054e64     libcpmt:ios.obj
 0004:00000e70       $pdata$??$_Xfiopen@D@std@@YAPEAU_iobuf@@PEBDHH@Z 0000000180054e70     libcpmt:fiopen.obj
 0004:00000e7c       $pdata$_Getctype           0000000180054e7c     libcpmt:_tolower.obj
 0004:00000e88       $pdata$_Tolower            0000000180054e88     libcpmt:_tolower.obj
 0004:00000e94       $pdata$_Getcvt             0000000180054e94     libcpmt:xwctomb.obj
 0004:00000ea0       $pdata$_Toupper            0000000180054ea0     libcpmt:_toupper.obj
 0004:00000eac       $pdata$?_Atexit@@YAXP6AXXZ@Z 0000000180054eac     libcpmt:iosptrs.obj
 0004:00000eb8       $pdata$__crtLCMapStringA   0000000180054eb8     libcpmt:StlLCMapStringA.obj
 0004:00000ec4       $pdata$?initialize_pointers@@YAHXZ 0000000180054ec4     libcpmt:winapisupp.obj
 0004:00000ed0       $pdata$__crtInitializeCriticalSectionEx 0000000180054ed0     libcpmt:winapisupp.obj
 0004:00000edc       $pdata$GetTableIndexFromLocaleName 0000000180054edc     libcpmt:winapinls.obj
 0004:00000ee8       $pdata$__crtDownlevelLocaleNameToLCID 0000000180054ee8     libcpmt:winapinls.obj
 0004:00000ef4       $pdata$__crtLCMapStringEx  0000000180054ef4     libcpmt:winapinls.obj
 0004:00000f0c       $pdata$?__scrt_initialize_thread_safe_statics@@YAHXZ 0000000180054f0c     LIBCMT:thread_safe_statics.obj
 0004:00000f18       $pdata$?__scrt_uninitialize_thread_safe_statics@@YAXXZ 0000000180054f18     LIBCMT:thread_safe_statics.obj
 0004:00000f24       $pdata$_Init_thread_footer 0000000180054f24     LIBCMT:thread_safe_statics.obj
 0004:00000f30       $pdata$_Init_thread_header 0000000180054f30     LIBCMT:thread_safe_statics.obj
 0004:00000f3c       $pdata$_Init_thread_notify 0000000180054f3c     LIBCMT:thread_safe_statics.obj
 0004:00000f48       $pdata$_Init_thread_wait   0000000180054f48     LIBCMT:thread_safe_statics.obj
 0004:00000f54       $pdata$??2@YAPEAX_K@Z      0000000180054f54     LIBCMT:new_scalar.obj
 0004:00000f60       $pdata$__scrt_acquire_startup_lock 0000000180054f60     LIBCMT:utility.obj
 0004:00000f6c       $pdata$__scrt_dllmain_after_initialize_c 0000000180054f6c     LIBCMT:utility.obj
 0004:00000f78       $pdata$__scrt_dllmain_before_initialize_c 0000000180054f78     LIBCMT:utility.obj
 0004:00000f84       $pdata$__scrt_dllmain_crt_thread_attach 0000000180054f84     LIBCMT:utility.obj
 0004:00000f90       $pdata$__scrt_dllmain_crt_thread_detach 0000000180054f90     LIBCMT:utility.obj
 0004:00000f9c       $pdata$__scrt_dllmain_exception_filter 0000000180054f9c     LIBCMT:utility.obj
 0004:00000fa8       $pdata$__scrt_dllmain_uninitialize_c 0000000180054fa8     LIBCMT:utility.obj
 0004:00000fb4       $pdata$__scrt_dllmain_uninitialize_critical 0000000180054fb4     LIBCMT:utility.obj
 0004:00000fc0       $pdata$__scrt_initialize_crt 0000000180054fc0     LIBCMT:utility.obj
 0004:00000fcc       $pdata$__scrt_initialize_onexit_tables 0000000180054fcc     LIBCMT:utility.obj
 0004:00000fd8       $pdata$__scrt_is_nonwritable_in_current_image 0000000180054fd8     LIBCMT:utility.obj
 0004:00000fe4       $pdata$__scrt_release_startup_lock 0000000180054fe4     LIBCMT:utility.obj
 0004:00000ff0       $pdata$__scrt_uninitialize_crt 0000000180054ff0     LIBCMT:utility.obj
 0004:00000ffc       $pdata$_onexit             0000000180054ffc     LIBCMT:utility.obj
 0004:00001008       $pdata$atexit              0000000180055008     LIBCMT:utility.obj
 0004:00001014       $pdata$?dllmain_crt_dispatch@@YAHQEAUHINSTANCE__@@KQEAX@Z 0000000180055014     LIBCMT:dll_dllmain.obj
 0004:00001020       $pdata$?dllmain_crt_process_attach@@YAHQEAUHINSTANCE__@@QEAX@Z 0000000180055020     LIBCMT:dll_dllmain.obj
 0004:0000102c       $pdata$?dllmain_crt_process_detach@@YAH_N@Z 000000018005502c     LIBCMT:dll_dllmain.obj
 0004:00001038       $pdata$?dllmain_dispatch@@YAHQEAUHINSTANCE__@@KQEAX@Z 0000000180055038     LIBCMT:dll_dllmain.obj
 0004:00001044       $pdata$?dllmain_raw@@YAHQEAUHINSTANCE__@@KQEAX@Z 0000000180055044     LIBCMT:dll_dllmain.obj
 0004:00001050       $pdata$_DllMainCRTStartup  0000000180055050     LIBCMT:dll_dllmain.obj
 0004:0000105c       $pdata$__GSHandlerCheck    000000018005505c     LIBCMT:_gshandler_.obj
 0004:00001068       $pdata$__GSHandlerCheckCommon 0000000180055068     LIBCMT:_gshandler_.obj
 0004:00001074       $pdata$??_Gtype_info@@UEAAPEAXI@Z 0000000180055074     LIBCMT:std_type_info_static.obj
 0004:0000108c       $pdata$__raise_securityfailure 000000018005508c     LIBCMT:gs_report.obj
 0004:00001098       $pdata$__report_gsfailure  0000000180055098     LIBCMT:gs_report.obj
 0004:000010a4       $pdata$__report_rangecheckfailure 00000001800550a4     LIBCMT:gs_report.obj
 0004:000010b0       $pdata$__report_securityfailure 00000001800550b0     LIBCMT:gs_report.obj
 0004:000010bc       $pdata$capture_current_context 00000001800550bc     LIBCMT:gs_report.obj
 0004:000010c8       $pdata$capture_previous_context 00000001800550c8     LIBCMT:gs_report.obj
 0004:000010d4       $pdata$__scrt_fastfail     00000001800550d4     LIBCMT:utility_desktop.obj
 0004:000010e0       $pdata$??0bad_array_new_length@std@@QEAA@AEBV01@@Z 00000001800550e0     LIBCMT:throw_bad_alloc.obj
 0004:000010ec       $pdata$?_Xbad_alloc@std@@YAXXZ 00000001800550ec     libcpmt:xthrow.obj
 0004:000010ec       $pdata$?__scrt_throw_std_bad_alloc@@YAXXZ 00000001800550ec     LIBCMT:throw_bad_alloc.obj
 0004:000010f8       $pdata$?__scrt_throw_std_bad_array_new_length@@YAXXZ 00000001800550f8     LIBCMT:throw_bad_alloc.obj
 0004:00001104       $pdata$__isa_available_init 0000000180055104     LIBCMT:_cpu_disp_.obj
 0004:00001110       $pdata$__security_init_cookie 0000000180055110     LIBCMT:gs_support.obj
 0004:0000111c       $pdata$__scrt_initialize_default_local_stdio_options 000000018005511c     LIBCMT:default_local_stdio_options.obj
 0004:00001128       $pdata$_RTC_Initialize     0000000180055128     LIBCMT:_initsect_.obj
 0004:00001134       $pdata$_RTC_Terminate      0000000180055134     LIBCMT:_initsect_.obj
 0004:0000114c       $pdata$_purecall           000000018005514c     libvcruntime:purevirt.obj
 0004:00001158       $pdata$__DestructExceptionObject 0000000180055158     libvcruntime:frame.obj
 0004:00001164       $pdata$??0bad_exception@std@@QEAA@AEBV01@@Z 0000000180055164     libvcruntime:frame.obj
 0004:00001170       $pdata$??_Glogic_error@std@@UEAAPEAXI@Z 0000000180055170     libcpmt:xthrow.obj
 0004:00001170       $pdata$??_Gbad_exception@std@@UEAAPEAXI@Z 0000000180055170     libvcruntime:frame.obj
 0004:00001170       $pdata$??_Gexception@std@@UEAAPEAXI@Z 0000000180055170     libcpmt:cout.obj
 0004:00001170       $pdata$??_Gbad_alloc@std@@UEAAPEAXI@Z 0000000180055170     libcpmt:xthrow.obj
 0004:00001170       $pdata$??_Gbad_array_new_length@std@@UEAAPEAXI@Z 0000000180055170     LIBCMT:throw_bad_alloc.obj
 0004:00001170       $pdata$??_Glength_error@std@@UEAAPEAXI@Z 0000000180055170     libcpmt:xthrow.obj
 0004:00001170       $pdata$??_Gout_of_range@std@@UEAAPEAXI@Z 0000000180055170     libcpmt:xthrow.obj
 0004:0000117c       $pdata$?CatchIt@@YAXPEAUEHExceptionRecord@@PEA_KPEAU_CONTEXT@@PEAU_xDISPATCHER_CONTEXT@@PEBU_s_FuncInfo@@PEBU_s_HandlerType@@PEBU_s_CatchableType@@PEBU_s_TryBlockMapEntry@@H1EE@Z 000000018005517c     libvcruntime:frame.obj
 0004:00001188       $pdata$?ExFilterRethrow@@YAHPEAU_EXCEPTION_POINTERS@@PEAUEHExceptionRecord@@PEAH@Z 0000000180055188     libvcruntime:frame.obj
 0004:00001194       $pdata$?FindHandler@@YAXPEAUEHExceptionRecord@@PEA_KPEAU_CONTEXT@@PEAU_xDISPATCHER_CONTEXT@@PEBU_s_FuncInfo@@EH1@Z 0000000180055194     libvcruntime:frame.obj
 0004:000011a0       $pdata$?FindHandlerForForeignException@@YAXPEAUEHExceptionRecord@@PEA_KPEAU_CONTEXT@@PEAU_xDISPATCHER_CONTEXT@@PEBU_s_FuncInfo@@HH1@Z 00000001800551a0     libvcruntime:frame.obj
 0004:000011ac       $pdata$?IsInExceptionSpec@@YAEPEAUEHExceptionRecord@@PEBU_s_ESTypeList@@@Z 00000001800551ac     libvcruntime:frame.obj
 0004:000011b8       $pdata$__BuildCatchObject  00000001800551b8     libvcruntime:frame.obj
 0004:000011c4       $pdata$__BuildCatchObjectHelper 00000001800551c4     libvcruntime:frame.obj
 0004:000011d0       $pdata$__CxxCallCatchBlock 00000001800551d0     libvcruntime:frame.obj
 0004:000011dc       $pdata$__FrameUnwindFilter 00000001800551dc     libvcruntime:frame.obj
 0004:000011e8       $pdata$__FrameUnwindToState 00000001800551e8     libvcruntime:frame.obj
 0004:000011f4       $pdata$__InternalCxxFrameHandler 00000001800551f4     libvcruntime:frame.obj
 0004:00001200       $pdata$__TypeMatch         0000000180055200     libvcruntime:frame.obj
 0004:0000120c       $pdata$__std_terminate     000000018005520c     libvcruntime:frame.obj
 0004:00001218       $pdata$__std_exception_copy 0000000180055218     libvcruntime:std_exception.obj
 0004:00001224       $pdata$__std_exception_destroy 0000000180055224     libvcruntime:std_exception.obj
 0004:00001230       $pdata$_CxxThrowException  0000000180055230     libvcruntime:throw.obj
 0004:0000123c       $pdata$?_ExecutionInCatch@@YAHPEAU_xDISPATCHER_CONTEXT@@PEBU_s_FuncInfo@@@Z 000000018005523c     libvcruntime:trnsctrl.obj
 0004:00001248       $pdata$?_GetEstablisherFrame@@YAPEA_KPEA_KPEAU_xDISPATCHER_CONTEXT@@PEBU_s_FuncInfo@@0@Z 0000000180055248     libvcruntime:trnsctrl.obj
 0004:00001254       $pdata$?_GetRangeOfTrysToCheck@@YAPEBU_s_TryBlockMapEntry@@PEA_KPEBU_s_FuncInfo@@HHPEAI2PEAU_xDISPATCHER_CONTEXT@@@Z 0000000180055254     libvcruntime:trnsctrl.obj
 0004:00001260       $pdata$?__FrameUnwindToEmptyState@@YAXPEA_KPEAU_xDISPATCHER_CONTEXT@@PEBU_s_FuncInfo@@@Z 0000000180055260     libvcruntime:trnsctrl.obj
 0004:0000126c       $pdata$?__SehTransFilter@@YAHPEAU_EXCEPTION_POINTERS@@PEAUEHExceptionRecord@@PEA_KPEAU_CONTEXT@@PEAU_xDISPATCHER_CONTEXT@@PEBU_s_FuncInfo@@PEAH@Z 000000018005526c     libvcruntime:trnsctrl.obj
 0004:00001278       $pdata$_CallSETranslator   0000000180055278     libvcruntime:trnsctrl.obj
 0004:00001284       $pdata$_CreateFrameInfo    0000000180055284     libvcruntime:trnsctrl.obj
 0004:00001290       $pdata$_FindAndUnlinkFrame 0000000180055290     libvcruntime:trnsctrl.obj
 0004:0000129c       $pdata$_GetImageBase       000000018005529c     libvcruntime:trnsctrl.obj
 0004:000012a8       $pdata$_GetThrowImageBase  00000001800552a8     libvcruntime:trnsctrl.obj
 0004:000012b4       $pdata$_IsExceptionObjectToBeDestroyed 00000001800552b4     libvcruntime:trnsctrl.obj
 0004:000012c0       $pdata$_SetImageBase       00000001800552c0     libvcruntime:trnsctrl.obj
 0004:000012cc       $pdata$_SetThrowImageBase  00000001800552cc     libvcruntime:trnsctrl.obj
 0004:000012d8       $pdata$_UnwindNestedFrames 00000001800552d8     libvcruntime:trnsctrl.obj
 0004:000012e4       $pdata$__CxxFrameHandler3  00000001800552e4     libvcruntime:trnsctrl.obj
 0004:00001308       $pdata$?try_get_function@@YAPEAXW4function_id@?A0x679b24ab@@QEBDQEBW4module_id@2@2@Z 0000000180055308     libvcruntime:winapi_downlevel.obj
 0004:00001314       $pdata$__vcrt_FlsAlloc     0000000180055314     libvcruntime:winapi_downlevel.obj
 0004:00001320       $pdata$__vcrt_FlsFree      0000000180055320     libvcruntime:winapi_downlevel.obj
 0004:0000132c       $pdata$__vcrt_FlsGetValue  000000018005532c     libvcruntime:winapi_downlevel.obj
 0004:00001338       $pdata$__vcrt_FlsSetValue  0000000180055338     libvcruntime:winapi_downlevel.obj
 0004:00001344       $pdata$__vcrt_InitializeCriticalSectionEx 0000000180055344     libvcruntime:winapi_downlevel.obj
 0004:00001350       $pdata$__vcrt_uninitialize_winapi_thunks 0000000180055350     libvcruntime:winapi_downlevel.obj
 0004:0000135c       $pdata$__vcrt_initialize   000000018005535c     libvcruntime:initialization.obj
 0004:00001368       $pdata$__vcrt_thread_attach 0000000180055368     libvcruntime:initialization.obj
 0004:00001374       $pdata$__vcrt_thread_detach 0000000180055374     libvcruntime:initialization.obj
 0004:00001380       $pdata$__vcrt_uninitialize 0000000180055380     libvcruntime:initialization.obj
 0004:0000138c       $pdata$__vcrt_uninitialize_critical 000000018005538c     libvcruntime:initialization.obj
 0004:00001398       $pdata$__C_specific_handler 0000000180055398     libvcruntime:_chandler_.obj
 0004:000013a4       $pdata$__std_type_info_destroy_list 00000001800553a4     libvcruntime:std_type_info.obj
 0004:000013b0       $pdata$__vcrt_freefls      00000001800553b0     libvcruntime:per_thread_data.obj
 0004:000013bc       $pdata$__vcrt_freeptd      00000001800553bc     libvcruntime:per_thread_data.obj
 0004:000013c8       $pdata$__vcrt_getptd       00000001800553c8     libvcruntime:per_thread_data.obj
 0004:000013d4       $pdata$__vcrt_getptd_noexit 00000001800553d4     libvcruntime:per_thread_data.obj
 0004:000013e0       $pdata$__vcrt_initialize_ptd 00000001800553e0     libvcruntime:per_thread_data.obj
 0004:000013ec       $pdata$__vcrt_uninitialize_ptd 00000001800553ec     libvcruntime:per_thread_data.obj
 0004:000013f8       $pdata$?__GetCurrentState@@YAHPEA_KPEAU_xDISPATCHER_CONTEXT@@PEBU_s_FuncInfo@@@Z 00000001800553f8     libvcruntime:ehstate.obj
 0004:00001404       $pdata$?__GetUnwindTryBlock@@YAHPEA_KPEAU_xDISPATCHER_CONTEXT@@PEBU_s_FuncInfo@@@Z 0000000180055404     libvcruntime:ehstate.obj
 0004:00001410       $pdata$?__SetUnwindTryBlock@@YAXPEA_KPEAU_xDISPATCHER_CONTEXT@@PEBU_s_FuncInfo@@H@Z 0000000180055410     libvcruntime:ehstate.obj
 0004:0000141c       $pdata$?__StateFromIp@@YAHPEBU_s_FuncInfo@@PEAU_xDISPATCHER_CONTEXT@@_J@Z 000000018005541c     libvcruntime:ehstate.obj
 0004:00001464       $pdata$__vcrt_initialize_locks 0000000180055464     libvcruntime:locks.obj
 0004:00001470       $pdata$__vcrt_uninitialize_locks 0000000180055470     libvcruntime:locks.obj
 0004:0000147c       $pdata$abort               000000018005547c     libucrt:abort.obj
 0004:00001488       $pdata$fputc               0000000180055488     libucrt:fputc.obj
 0004:00001494       $pdata$__acrt_call_reportfault 0000000180055494     libucrt:invalid_parameter.obj
 0004:000014a0       $pdata$_invalid_parameter  00000001800554a0     libucrt:invalid_parameter.obj
 0004:000014ac       $pdata$_invalid_parameter_noinfo 00000001800554ac     libucrt:invalid_parameter.obj
 0004:000014b8       $pdata$_invalid_parameter_noinfo_noreturn 00000001800554b8     libucrt:invalid_parameter.obj
 0004:000014c4       $pdata$_invoke_watson      00000001800554c4     libucrt:invalid_parameter.obj
 0004:000014d0       $pdata$__acrt_stdio_flush_nolock 00000001800554d0     libucrt:fflush.obj
 0004:000014dc       $pdata$_fflush_nolock      00000001800554dc     libucrt:fflush.obj
 0004:000014e8       $pdata$common_flush_all    00000001800554e8     libucrt:fflush.obj
 0004:000014f4       $pdata$fflush              00000001800554f4     libucrt:fflush.obj
 0004:00001500       $pdata$_fclose_nolock      0000000180055500     libucrt:fclose.obj
 0004:0000150c       $pdata$fclose              000000018005550c     libucrt:fclose.obj
 0004:00001518       $pdata$strcspn             0000000180055518     libucrt:strcspn.obj
 0004:00001524       $pdata$??$?RV<lambda_7b91131dde12e1c3dfc74ff76b3f2eac>@@AEAV<lambda_dd75445284c072d0bd3768540cc698fa>@@V<lambda_16bc4ecb55b4718497c16bceaea2ceaf>@@@?$__crt_seh_guarded_call@H@@QEAAH$$QEAV<lambda_7b91131dde12e1c3dfc74ff76b3f2eac>@@AEAV<lambda_dd75445284c072d0bd3768540cc698fa>@@$$QEAV<lambda_16bc4ecb55b4718497c16bceaea2ceaf>@@@Z 0000000180055524     libucrt:output.obj
 0004:00001530       $pdata$??$?RV<lambda_aa279a7bcb127014629d5b1d62c7325d>@@AEAV<lambda_0a64b6a4deda75c01876f29c44fc5eb3>@@V<lambda_3323e69fbefe9d1a11713e670d47cdfa>@@@?$__crt_seh_guarded_call@H@@QEAAH$$QEAV<lambda_aa279a7bcb127014629d5b1d62c7325d>@@AEAV<lambda_0a64b6a4deda75c01876f29c44fc5eb3>@@$$QEAV<lambda_3323e69fbefe9d1a11713e670d47cdfa>@@@Z 0000000180055530     libucrt:output.obj
 0004:0000153c       $pdata$??$common_vsprintf@Vformat_validation_base@__crt_stdio_output@@D@@YAH_KQEAD0QEBDQEAU__crt_locale_pointers@@1@Z 000000018005553c     libucrt:output.obj
 0004:00001548       $pdata$??$ensure_buffer_is_big_enough@D@formatting_buffer@__crt_stdio_output@@QEAA_N_K@Z 0000000180055548     libucrt:output.obj
 0004:00001554       $pdata$??$type_case_integer_parse_into_buffer@I@?$output_processor@_WV?$string_output_adapter@_W@__crt_stdio_output@@V?$standard_base@_WV?$string_output_adapter@_W@__crt_stdio_output@@@2@@__crt_stdio_output@@AEAAXII_N@Z 0000000180055554     libucrt:output.obj
 0004:00001554       $pdata$??$type_case_integer_parse_into_buffer@I@?$output_processor@DV?$stream_output_adapter@D@__crt_stdio_output@@V?$standard_base@DV?$stream_output_adapter@D@__crt_stdio_output@@@2@@__crt_stdio_output@@AEAAXII_N@Z 0000000180055554     libucrt:output.obj
 0004:00001554       $pdata$??$type_case_integer_parse_into_buffer@I@?$output_processor@_WV?$stream_output_adapter@_W@__crt_stdio_output@@V?$standard_base@_WV?$stream_output_adapter@_W@__crt_stdio_output@@@2@@__crt_stdio_output@@AEAAXII_N@Z 0000000180055554     libucrt:output.obj
 0004:00001554       $pdata$??$type_case_integer_parse_into_buffer@I@?$output_processor@DV?$string_output_adapter@D@__crt_stdio_output@@V?$format_validation_base@DV?$string_output_adapter@D@__crt_stdio_output@@@2@@__crt_stdio_output@@AEAAXII_N@Z 0000000180055554     libucrt:output.obj
 0004:00001554       $pdata$??$type_case_integer_parse_into_buffer@I@?$output_processor@DV?$string_output_adapter@D@__crt_stdio_output@@V?$standard_base@DV?$string_output_adapter@D@__crt_stdio_output@@@2@@__crt_stdio_output@@AEAAXII_N@Z 0000000180055554     libucrt:output.obj
 0004:00001560       $pdata$??$type_case_integer_parse_into_buffer@_K@?$output_processor@_WV?$stream_output_adapter@_W@__crt_stdio_output@@V?$standard_base@_WV?$stream_output_adapter@_W@__crt_stdio_output@@@2@@__crt_stdio_output@@AEAAX_KI_N@Z 0000000180055560     libucrt:output.obj
 0004:00001560       $pdata$??$type_case_integer_parse_into_buffer@_K@?$output_processor@DV?$string_output_adapter@D@__crt_stdio_output@@V?$format_validation_base@DV?$string_output_adapter@D@__crt_stdio_output@@@2@@__crt_stdio_output@@AEAAX_KI_N@Z 0000000180055560     libucrt:output.obj
 0004:00001560       $pdata$??$type_case_integer_parse_into_buffer@_K@?$output_processor@_WV?$string_output_adapter@_W@__crt_stdio_output@@V?$standard_base@_WV?$string_output_adapter@_W@__crt_stdio_output@@@2@@__crt_stdio_output@@AEAAX_KI_N@Z 0000000180055560     libucrt:output.obj
 0004:00001560       $pdata$??$type_case_integer_parse_into_buffer@_K@?$output_processor@DV?$string_output_adapter@D@__crt_stdio_output@@V?$standard_base@DV?$string_output_adapter@D@__crt_stdio_output@@@2@@__crt_stdio_output@@AEAAX_KI_N@Z 0000000180055560     libucrt:output.obj
 0004:00001560       $pdata$??$type_case_integer_parse_into_buffer@_K@?$output_processor@DV?$stream_output_adapter@D@__crt_stdio_output@@V?$standard_base@DV?$stream_output_adapter@D@__crt_stdio_output@@@2@@__crt_stdio_output@@AEAAX_KI_N@Z 0000000180055560     libucrt:output.obj
 0004:0000156c       $pdata$??$write_multiple_characters@V?$stream_output_adapter@D@__crt_stdio_output@@D@__crt_stdio_output@@YAXAEBV?$stream_output_adapter@D@0@DHQEAH@Z 000000018005556c     libucrt:output.obj
 0004:00001578       $pdata$??$write_multiple_characters@V?$stream_output_adapter@_W@__crt_stdio_output@@D@__crt_stdio_output@@YAXAEBV?$stream_output_adapter@_W@0@DHQEAH@Z 0000000180055578     libucrt:output.obj
 0004:00001584       $pdata$??$write_multiple_characters@V?$string_output_adapter@D@__crt_stdio_output@@D@__crt_stdio_output@@YAXAEBV?$string_output_adapter@D@0@DHQEAH@Z 0000000180055584     libucrt:output.obj
 0004:00001590       $pdata$??$write_multiple_characters@V?$string_output_adapter@_W@__crt_stdio_output@@D@__crt_stdio_output@@YAXAEBV?$string_output_adapter@_W@0@DHQEAH@Z 0000000180055590     libucrt:output.obj
 0004:0000159c       $pdata$??0?$output_processor@DV?$stream_output_adapter@D@__crt_stdio_output@@V?$standard_base@DV?$stream_output_adapter@D@__crt_stdio_output@@@2@@__crt_stdio_output@@QEAA@AEBV?$stream_output_adapter@D@1@_KQEBDQEAU__crt_locale_pointers@@QEAD@Z 000000018005559c     libucrt:output.obj
 0004:0000159c       $pdata$??0?$output_processor@DV?$string_output_adapter@D@__crt_stdio_output@@V?$format_validation_base@DV?$string_output_adapter@D@__crt_stdio_output@@@2@@__crt_stdio_output@@QEAA@AEBV?$string_output_adapter@D@1@_KQEBDQEAU__crt_locale_pointers@@QEAD@Z 000000018005559c     libucrt:output.obj
 0004:0000159c       $pdata$??0?$output_processor@DV?$string_output_adapter@D@__crt_stdio_output@@V?$standard_base@DV?$string_output_adapter@D@__crt_stdio_output@@@2@@__crt_stdio_output@@QEAA@AEBV?$string_output_adapter@D@1@_KQEBDQEAU__crt_locale_pointers@@QEAD@Z 000000018005559c     libucrt:output.obj
 0004:000015a8       $pdata$??0?$output_processor@_WV?$string_output_adapter@_W@__crt_stdio_output@@V?$standard_base@_WV?$string_output_adapter@_W@__crt_stdio_output@@@2@@__crt_stdio_output@@QEAA@AEBV?$string_output_adapter@_W@1@_KQEB_WQEAU__crt_locale_pointers@@QEAD@Z 00000001800555a8     libucrt:output.obj
 0004:000015a8       $pdata$??0?$output_processor@_WV?$stream_output_adapter@_W@__crt_stdio_output@@V?$standard_base@_WV?$stream_output_adapter@_W@__crt_stdio_output@@@2@@__crt_stdio_output@@QEAA@AEBV?$stream_output_adapter@_W@1@_KQEB_WQEAU__crt_locale_pointers@@QEAD@Z 00000001800555a8     libucrt:output.obj
 0004:000015b4       $pdata$??0_LocaleUpdate@@QEAA@QEAU__crt_locale_pointers@@@Z 00000001800555b4     libucrt:output.obj
 0004:000015c0       $pdata$??R<lambda_0a64b6a4deda75c01876f29c44fc5eb3>@@QEBAHXZ 00000001800555c0     libucrt:output.obj
 0004:000015cc       $pdata$??R<lambda_dd75445284c072d0bd3768540cc698fa>@@QEBAHXZ 00000001800555cc     libucrt:output.obj
 0004:000015d8       $pdata$?force_decimal_point@__crt_stdio_output@@YAXPEADQEAU__crt_locale_pointers@@@Z 00000001800555d8     libucrt:output.obj
 0004:000015e4       $pdata$?parse_int_from_format_string@?$output_processor@DV?$string_output_adapter@D@__crt_stdio_output@@V?$format_validation_base@DV?$string_output_adapter@D@__crt_stdio_output@@@2@@__crt_stdio_output@@AEAA_NQEAH@Z 00000001800555e4     libucrt:output.obj
 0004:000015e4       $pdata$?parse_int_from_format_string@?$output_processor@DV?$stream_output_adapter@D@__crt_stdio_output@@V?$standard_base@DV?$stream_output_adapter@D@__crt_stdio_output@@@2@@__crt_stdio_output@@AEAA_NQEAH@Z 00000001800555e4     libucrt:output.obj
 0004:000015e4       $pdata$?parse_int_from_format_string@?$output_processor@DV?$string_output_adapter@D@__crt_stdio_output@@V?$standard_base@DV?$string_output_adapter@D@__crt_stdio_output@@@2@@__crt_stdio_output@@AEAA_NQEAH@Z 00000001800555e4     libucrt:output.obj
 0004:000015f0       $pdata$?parse_int_from_format_string@?$output_processor@_WV?$stream_output_adapter@_W@__crt_stdio_output@@V?$standard_base@_WV?$stream_output_adapter@_W@__crt_stdio_output@@@2@@__crt_stdio_output@@AEAA_NQEAH@Z 00000001800555f0     libucrt:output.obj
 0004:000015f0       $pdata$?parse_int_from_format_string@?$output_processor@_WV?$string_output_adapter@_W@__crt_stdio_output@@V?$standard_base@_WV?$string_output_adapter@_W@__crt_stdio_output@@@2@@__crt_stdio_output@@AEAA_NQEAH@Z 00000001800555f0     libucrt:output.obj
 0004:000015fc       $pdata$?process@?$output_processor@DV?$stream_output_adapter@D@__crt_stdio_output@@V?$standard_base@DV?$stream_output_adapter@D@__crt_stdio_output@@@2@@__crt_stdio_output@@QEAAHXZ 00000001800555fc     libucrt:output.obj
 0004:00001608       $pdata$?process@?$output_processor@DV?$string_output_adapter@D@__crt_stdio_output@@V?$format_validation_base@DV?$string_output_adapter@D@__crt_stdio_output@@@2@@__crt_stdio_output@@QEAAHXZ 0000000180055608     libucrt:output.obj
 0004:00001614       $pdata$?process@?$output_processor@DV?$string_output_adapter@D@__crt_stdio_output@@V?$standard_base@DV?$string_output_adapter@D@__crt_stdio_output@@@2@@__crt_stdio_output@@QEAAHXZ 0000000180055614     libucrt:output.obj
 0004:00001620       $pdata$?process@?$output_processor@_WV?$stream_output_adapter@_W@__crt_stdio_output@@V?$standard_base@_WV?$stream_output_adapter@_W@__crt_stdio_output@@@2@@__crt_stdio_output@@QEAAHXZ 0000000180055620     libucrt:output.obj
 0004:0000162c       $pdata$?process@?$output_processor@_WV?$string_output_adapter@_W@__crt_stdio_output@@V?$standard_base@_WV?$string_output_adapter@_W@__crt_stdio_output@@@2@@__crt_stdio_output@@QEAAHXZ 000000018005562c     libucrt:output.obj
 0004:00001638       $pdata$?state_case_normal@?$output_processor@DV?$stream_output_adapter@D@__crt_stdio_output@@V?$standard_base@DV?$stream_output_adapter@D@__crt_stdio_output@@@2@@__crt_stdio_output@@AEAA_NXZ 0000000180055638     libucrt:output.obj
 0004:00001644       $pdata$?state_case_normal@?$output_processor@DV?$string_output_adapter@D@__crt_stdio_output@@V?$standard_base@DV?$string_output_adapter@D@__crt_stdio_output@@@2@@__crt_stdio_output@@AEAA_NXZ 0000000180055644     libucrt:output.obj
 0004:00001644       $pdata$?state_case_normal@?$output_processor@DV?$string_output_adapter@D@__crt_stdio_output@@V?$format_validation_base@DV?$string_output_adapter@D@__crt_stdio_output@@@2@@__crt_stdio_output@@AEAA_NXZ 0000000180055644     libucrt:output.obj
 0004:00001650       $pdata$?state_case_normal_tchar@?$output_processor@DV?$stream_output_adapter@D@__crt_stdio_output@@V?$standard_base@DV?$stream_output_adapter@D@__crt_stdio_output@@@2@@__crt_stdio_output@@AEAA_ND@Z 0000000180055650     libucrt:output.obj
 0004:0000165c       $pdata$?state_case_normal_tchar@?$output_processor@DV?$string_output_adapter@D@__crt_stdio_output@@V?$format_validation_base@DV?$string_output_adapter@D@__crt_stdio_output@@@2@@__crt_stdio_output@@AEAA_ND@Z 000000018005565c     libucrt:output.obj
 0004:0000165c       $pdata$?state_case_normal_tchar@?$output_processor@DV?$string_output_adapter@D@__crt_stdio_output@@V?$standard_base@DV?$string_output_adapter@D@__crt_stdio_output@@@2@@__crt_stdio_output@@AEAA_ND@Z 000000018005565c     libucrt:output.obj
 0004:00001668       $pdata$?state_case_size@?$output_processor@DV?$stream_output_adapter@D@__crt_stdio_output@@V?$standard_base@DV?$stream_output_adapter@D@__crt_stdio_output@@@2@@__crt_stdio_output@@AEAA_NXZ 0000000180055668     libucrt:output.obj
 0004:00001674       $pdata$?state_case_size@?$output_processor@DV?$string_output_adapter@D@__crt_stdio_output@@V?$format_validation_base@DV?$string_output_adapter@D@__crt_stdio_output@@@2@@__crt_stdio_output@@AEAA_NXZ 0000000180055674     libucrt:output.obj
 0004:00001674       $pdata$?state_case_size@?$output_processor@DV?$string_output_adapter@D@__crt_stdio_output@@V?$standard_base@DV?$string_output_adapter@D@__crt_stdio_output@@@2@@__crt_stdio_output@@AEAA_NXZ 0000000180055674     libucrt:output.obj
 0004:00001680       $pdata$?state_case_size@?$output_processor@_WV?$stream_output_adapter@_W@__crt_stdio_output@@V?$standard_base@_WV?$stream_output_adapter@_W@__crt_stdio_output@@@2@@__crt_stdio_output@@AEAA_NXZ 0000000180055680     libucrt:output.obj
 0004:0000168c       $pdata$?state_case_size@?$output_processor@_WV?$string_output_adapter@_W@__crt_stdio_output@@V?$standard_base@_WV?$string_output_adapter@_W@__crt_stdio_output@@@2@@__crt_stdio_output@@AEAA_NXZ 000000018005568c     libucrt:output.obj
 0004:00001698       $pdata$?state_case_type@?$output_processor@DV?$stream_output_adapter@D@__crt_stdio_output@@V?$standard_base@DV?$stream_output_adapter@D@__crt_stdio_output@@@2@@__crt_stdio_output@@AEAA_NXZ 0000000180055698     libucrt:output.obj
 0004:000016a4       $pdata$?state_case_type@?$output_processor@DV?$string_output_adapter@D@__crt_stdio_output@@V?$standard_base@DV?$string_output_adapter@D@__crt_stdio_output@@@2@@__crt_stdio_output@@AEAA_NXZ 00000001800556a4     libucrt:output.obj
 0004:000016a4       $pdata$?state_case_type@?$output_processor@DV?$string_output_adapter@D@__crt_stdio_output@@V?$format_validation_base@DV?$string_output_adapter@D@__crt_stdio_output@@@2@@__crt_stdio_output@@AEAA_NXZ 00000001800556a4     libucrt:output.obj
 0004:000016b0       $pdata$?state_case_type@?$output_processor@_WV?$stream_output_adapter@_W@__crt_stdio_output@@V?$standard_base@_WV?$stream_output_adapter@_W@__crt_stdio_output@@@2@@__crt_stdio_output@@AEAA_NXZ 00000001800556b0     libucrt:output.obj
 0004:000016bc       $pdata$?state_case_type@?$output_processor@_WV?$string_output_adapter@_W@__crt_stdio_output@@V?$standard_base@_WV?$string_output_adapter@_W@__crt_stdio_output@@@2@@__crt_stdio_output@@AEAA_NXZ 00000001800556bc     libucrt:output.obj
 0004:000016c8       $pdata$?type_case_Z@?$output_processor@DV?$string_output_adapter@D@__crt_stdio_output@@V?$standard_base@DV?$string_output_adapter@D@__crt_stdio_output@@@2@@__crt_stdio_output@@AEAA_NXZ 00000001800556c8     libucrt:output.obj
 0004:000016c8       $pdata$?type_case_Z@?$output_processor@DV?$string_output_adapter@D@__crt_stdio_output@@V?$format_validation_base@DV?$string_output_adapter@D@__crt_stdio_output@@@2@@__crt_stdio_output@@AEAA_NXZ 00000001800556c8     libucrt:output.obj
 0004:000016c8       $pdata$?type_case_Z@?$output_processor@DV?$stream_output_adapter@D@__crt_stdio_output@@V?$standard_base@DV?$stream_output_adapter@D@__crt_stdio_output@@@2@@__crt_stdio_output@@AEAA_NXZ 00000001800556c8     libucrt:output.obj
 0004:000016d4       $pdata$?type_case_Z@?$output_processor@_WV?$stream_output_adapter@_W@__crt_stdio_output@@V?$standard_base@_WV?$stream_output_adapter@_W@__crt_stdio_output@@@2@@__crt_stdio_output@@AEAA_NXZ 00000001800556d4     libucrt:output.obj
 0004:000016d4       $pdata$?type_case_Z@?$output_processor@_WV?$string_output_adapter@_W@__crt_stdio_output@@V?$standard_base@_WV?$string_output_adapter@_W@__crt_stdio_output@@@2@@__crt_stdio_output@@AEAA_NXZ 00000001800556d4     libucrt:output.obj
 0004:000016e0       $pdata$?type_case_a@?$output_processor@DV?$string_output_adapter@D@__crt_stdio_output@@V?$format_validation_base@DV?$string_output_adapter@D@__crt_stdio_output@@@2@@__crt_stdio_output@@AEAA_NXZ 00000001800556e0     libucrt:output.obj
 0004:000016e0       $pdata$?type_case_a@?$output_processor@DV?$stream_output_adapter@D@__crt_stdio_output@@V?$standard_base@DV?$stream_output_adapter@D@__crt_stdio_output@@@2@@__crt_stdio_output@@AEAA_NXZ 00000001800556e0     libucrt:output.obj
 0004:000016e0       $pdata$?type_case_a@?$output_processor@DV?$string_output_adapter@D@__crt_stdio_output@@V?$standard_base@DV?$string_output_adapter@D@__crt_stdio_output@@@2@@__crt_stdio_output@@AEAA_NXZ 00000001800556e0     libucrt:output.obj
 0004:000016ec       $pdata$?type_case_a@?$output_processor@_WV?$stream_output_adapter@_W@__crt_stdio_output@@V?$standard_base@_WV?$stream_output_adapter@_W@__crt_stdio_output@@@2@@__crt_stdio_output@@AEAA_NXZ 00000001800556ec     libucrt:output.obj
 0004:000016ec       $pdata$?type_case_a@?$output_processor@_WV?$string_output_adapter@_W@__crt_stdio_output@@V?$standard_base@_WV?$string_output_adapter@_W@__crt_stdio_output@@@2@@__crt_stdio_output@@AEAA_NXZ 00000001800556ec     libucrt:output.obj
 0004:000016f8       $pdata$?type_case_c_tchar@?$output_processor@DV?$string_output_adapter@D@__crt_stdio_output@@V?$format_validation_base@DV?$string_output_adapter@D@__crt_stdio_output@@@2@@__crt_stdio_output@@AEAA_ND@Z 00000001800556f8     libucrt:output.obj
 0004:000016f8       $pdata$?type_case_c_tchar@?$output_processor@DV?$stream_output_adapter@D@__crt_stdio_output@@V?$standard_base@DV?$stream_output_adapter@D@__crt_stdio_output@@@2@@__crt_stdio_output@@AEAA_ND@Z 00000001800556f8     libucrt:output.obj
 0004:000016f8       $pdata$?type_case_c_tchar@?$output_processor@DV?$string_output_adapter@D@__crt_stdio_output@@V?$standard_base@DV?$string_output_adapter@D@__crt_stdio_output@@@2@@__crt_stdio_output@@AEAA_ND@Z 00000001800556f8     libucrt:output.obj
 0004:00001704       $pdata$?type_case_c_tchar@?$output_processor@_WV?$stream_output_adapter@_W@__crt_stdio_output@@V?$standard_base@_WV?$stream_output_adapter@_W@__crt_stdio_output@@@2@@__crt_stdio_output@@AEAA_N_W@Z 0000000180055704     libucrt:output.obj
 0004:00001704       $pdata$?type_case_c_tchar@?$output_processor@_WV?$string_output_adapter@_W@__crt_stdio_output@@V?$standard_base@_WV?$string_output_adapter@_W@__crt_stdio_output@@@2@@__crt_stdio_output@@AEAA_N_W@Z 0000000180055704     libucrt:output.obj
 0004:00001710       $pdata$?type_case_integer@?$output_processor@DV?$stream_output_adapter@D@__crt_stdio_output@@V?$standard_base@DV?$stream_output_adapter@D@__crt_stdio_output@@@2@@__crt_stdio_output@@AEAA_NI_N@Z 0000000180055710     libucrt:output.obj
 0004:00001710       $pdata$?type_case_integer@?$output_processor@_WV?$stream_output_adapter@_W@__crt_stdio_output@@V?$standard_base@_WV?$stream_output_adapter@_W@__crt_stdio_output@@@2@@__crt_stdio_output@@AEAA_NI_N@Z 0000000180055710     libucrt:output.obj
 0004:00001710       $pdata$?type_case_integer@?$output_processor@_WV?$string_output_adapter@_W@__crt_stdio_output@@V?$standard_base@_WV?$string_output_adapter@_W@__crt_stdio_output@@@2@@__crt_stdio_output@@AEAA_NI_N@Z 0000000180055710     libucrt:output.obj
 0004:00001710       $pdata$?type_case_integer@?$output_processor@DV?$string_output_adapter@D@__crt_stdio_output@@V?$format_validation_base@DV?$string_output_adapter@D@__crt_stdio_output@@@2@@__crt_stdio_output@@AEAA_NI_N@Z 0000000180055710     libucrt:output.obj
 0004:00001710       $pdata$?type_case_integer@?$output_processor@DV?$string_output_adapter@D@__crt_stdio_output@@V?$standard_base@DV?$string_output_adapter@D@__crt_stdio_output@@@2@@__crt_stdio_output@@AEAA_NI_N@Z 0000000180055710     libucrt:output.obj
 0004:0000171c       $pdata$?type_case_n@?$output_processor@_WV?$stream_output_adapter@_W@__crt_stdio_output@@V?$standard_base@_WV?$stream_output_adapter@_W@__crt_stdio_output@@@2@@__crt_stdio_output@@AEAA_NXZ 000000018005571c     libucrt:output.obj
 0004:0000171c       $pdata$?type_case_n@?$output_processor@_WV?$string_output_adapter@_W@__crt_stdio_output@@V?$standard_base@_WV?$string_output_adapter@_W@__crt_stdio_output@@@2@@__crt_stdio_output@@AEAA_NXZ 000000018005571c     libucrt:output.obj
 0004:0000171c       $pdata$?type_case_n@?$output_processor@DV?$string_output_adapter@D@__crt_stdio_output@@V?$standard_base@DV?$string_output_adapter@D@__crt_stdio_output@@@2@@__crt_stdio_output@@AEAA_NXZ 000000018005571c     libucrt:output.obj
 0004:0000171c       $pdata$?type_case_n@?$output_processor@DV?$stream_output_adapter@D@__crt_stdio_output@@V?$standard_base@DV?$stream_output_adapter@D@__crt_stdio_output@@@2@@__crt_stdio_output@@AEAA_NXZ 000000018005571c     libucrt:output.obj
 0004:0000171c       $pdata$?type_case_n@?$output_processor@DV?$string_output_adapter@D@__crt_stdio_output@@V?$format_validation_base@DV?$string_output_adapter@D@__crt_stdio_output@@@2@@__crt_stdio_output@@AEAA_NXZ 000000018005571c     libucrt:output.obj
 0004:00001728       $pdata$?type_case_s@?$output_processor@DV?$stream_output_adapter@D@__crt_stdio_output@@V?$standard_base@DV?$stream_output_adapter@D@__crt_stdio_output@@@2@@__crt_stdio_output@@AEAA_NXZ 0000000180055728     libucrt:output.obj
 0004:00001728       $pdata$?type_case_s@?$output_processor@DV?$string_output_adapter@D@__crt_stdio_output@@V?$standard_base@DV?$string_output_adapter@D@__crt_stdio_output@@@2@@__crt_stdio_output@@AEAA_NXZ 0000000180055728     libucrt:output.obj
 0004:00001728       $pdata$?type_case_s@?$output_processor@DV?$string_output_adapter@D@__crt_stdio_output@@V?$format_validation_base@DV?$string_output_adapter@D@__crt_stdio_output@@@2@@__crt_stdio_output@@AEAA_NXZ 0000000180055728     libucrt:output.obj
 0004:00001734       $pdata$?type_case_s@?$output_processor@_WV?$stream_output_adapter@_W@__crt_stdio_output@@V?$standard_base@_WV?$stream_output_adapter@_W@__crt_stdio_output@@@2@@__crt_stdio_output@@AEAA_NXZ 0000000180055734     libucrt:output.obj
 0004:00001734       $pdata$?type_case_s@?$output_processor@_WV?$string_output_adapter@_W@__crt_stdio_output@@V?$standard_base@_WV?$string_output_adapter@_W@__crt_stdio_output@@@2@@__crt_stdio_output@@AEAA_NXZ 0000000180055734     libucrt:output.obj
 0004:00001740       $pdata$?validate_stream_is_ansi_if_required@?$__acrt_stdio_char_traits@D@@SA_NQEAU_iobuf@@@Z 0000000180055740     libucrt:output.obj
 0004:0000174c       $pdata$?write_stored_string_tchar@?$output_processor@DV?$stream_output_adapter@D@__crt_stdio_output@@V?$standard_base@DV?$stream_output_adapter@D@__crt_stdio_output@@@2@@__crt_stdio_output@@AEAA_ND@Z 000000018005574c     libucrt:output.obj
 0004:00001758       $pdata$?write_stored_string_tchar@?$output_processor@DV?$string_output_adapter@D@__crt_stdio_output@@V?$format_validation_base@DV?$string_output_adapter@D@__crt_stdio_output@@@2@@__crt_stdio_output@@AEAA_ND@Z 0000000180055758     libucrt:output.obj
 0004:00001758       $pdata$?write_stored_string_tchar@?$output_processor@DV?$string_output_adapter@D@__crt_stdio_output@@V?$standard_base@DV?$string_output_adapter@D@__crt_stdio_output@@@2@@__crt_stdio_output@@AEAA_ND@Z 0000000180055758     libucrt:output.obj
 0004:00001764       $pdata$?write_stored_string_tchar@?$output_processor@_WV?$stream_output_adapter@_W@__crt_stdio_output@@V?$standard_base@_WV?$stream_output_adapter@_W@__crt_stdio_output@@@2@@__crt_stdio_output@@AEAA_N_W@Z 0000000180055764     libucrt:output.obj
 0004:00001770       $pdata$?write_stored_string_tchar@?$output_processor@_WV?$string_output_adapter@_W@__crt_stdio_output@@V?$standard_base@_WV?$string_output_adapter@_W@__crt_stdio_output@@@2@@__crt_stdio_output@@AEAA_N_W@Z 0000000180055770     libucrt:output.obj
 0004:0000177c       $pdata$?write_string@?$stream_output_adapter@D@__crt_stdio_output@@QEBAXQEBDHQEAH1@Z 000000018005577c     libucrt:output.obj
 0004:00001788       $pdata$?write_string@?$stream_output_adapter@_W@__crt_stdio_output@@QEBAXQEB_WHQEAH1@Z 0000000180055788     libucrt:output.obj
 0004:00001794       $pdata$?write_string@?$string_output_adapter@D@__crt_stdio_output@@QEBAXQEBDHQEAH1@Z 0000000180055794     libucrt:output.obj
 0004:000017a0       $pdata$?write_string@?$string_output_adapter@_W@__crt_stdio_output@@QEBAXQEB_WHQEAH1@Z 00000001800557a0     libucrt:output.obj
 0004:000017ac       $pdata$__stdio_common_vfprintf 00000001800557ac     libucrt:output.obj
 0004:000017b8       $pdata$__stdio_common_vfwprintf 00000001800557b8     libucrt:output.obj
 0004:000017c4       $pdata$__stdio_common_vsprintf 00000001800557c4     libucrt:output.obj
 0004:000017d0       $pdata$__stdio_common_vsprintf_s 00000001800557d0     libucrt:output.obj
 0004:000017dc       $pdata$__stdio_common_vswprintf 00000001800557dc     libucrt:output.obj
 0004:000017e8       $pdata$_fgetc_nolock       00000001800557e8     libucrt:fgetc.obj
 0004:000017f4       $pdata$fgetc               00000001800557f4     libucrt:fgetc.obj
 0004:00001800       $pdata$__acrt_initialize_stdio 0000000180055800     libucrt:_file.obj
 0004:0000180c       $pdata$__acrt_uninitialize_stdio 000000018005580c     libucrt:_file.obj
 0004:00001818       $pdata$_get_stream_buffer_pointers 0000000180055818     libucrt:_file.obj
 0004:00001824       $pdata$localeconv          0000000180055824     libucrt:localeconv.obj
 0004:0000183c       $pdata$??$?RV<lambda_5d4c3fee44080f75d5d9762853974fe0>@@AEAV<lambda_532e024f4337e6fc7ad266c2bef9f4ed>@@V<lambda_c87bdc10097eb2402edb8ba9bdf0697b>@@@?$__crt_seh_guarded_call@_K@@QEAA_K$$QEAV<lambda_5d4c3fee44080f75d5d9762853974fe0>@@AEAV<lambda_532e024f4337e6fc7ad266c2bef9f4ed>@@$$QEAV<lambda_c87bdc10097eb2402edb8ba9bdf0697b>@@@Z 000000018005583c     libucrt:fwrite.obj
 0004:00001848       $pdata$??R<lambda_532e024f4337e6fc7ad266c2bef9f4ed>@@QEBA_KXZ 0000000180055848     libucrt:fwrite.obj
 0004:00001854       $pdata$_fwrite_nolock      0000000180055854     libucrt:fwrite.obj
 0004:00001860       $pdata$fwrite              0000000180055860     libucrt:fwrite.obj
 0004:0000186c       $pdata$__acrt_errno_map_os_error 000000018005586c     libucrt:errno.obj
 0004:00001878       $pdata$__doserrno          0000000180055878     libucrt:errno.obj
 0004:00001884       $pdata$_errno              0000000180055884     libucrt:errno.obj
 0004:00001890       $pdata$fgetpos             0000000180055890     libucrt:fgetpos.obj
 0004:0000189c       $pdata$??$?RV<lambda_7a5ef57ff966f610505f1d28a3d40618>@@AEAV<lambda_b721fa326cdb32351d23dfa67958c160>@@V<lambda_5e0fb27672408a07956fe59e48ccb2aa>@@@?$__crt_seh_guarded_call@H@@QEAAH$$QEAV<lambda_7a5ef57ff966f610505f1d28a3d40618>@@AEAV<lambda_b721fa326cdb32351d23dfa67958c160>@@$$QEAV<lambda_5e0fb27672408a07956fe59e48ccb2aa>@@@Z 000000018005589c     libucrt:setvbuf.obj
 0004:000018a8       $pdata$??R<lambda_b721fa326cdb32351d23dfa67958c160>@@QEBAHXZ 00000001800558a8     libucrt:setvbuf.obj
 0004:000018b4       $pdata$setvbuf             00000001800558b4     libucrt:setvbuf.obj
 0004:000018c0       $pdata$_ungetc_nolock      00000001800558c0     libucrt:ungetc.obj
 0004:000018cc       $pdata$ungetc              00000001800558cc     libucrt:ungetc.obj
 0004:000018d8       $pdata$frexp               00000001800558d8     libucrt:frexp.obj
 0004:000018e4       $pdata$?_wcstombs_l_helper@@YA_KPEADPEB_W_KPEAU__crt_locale_pointers@@@Z 00000001800558e4     libucrt:wcstombs.obj
 0004:000018f0       $pdata$_wcstombs_s_l       00000001800558f0     libucrt:wcstombs.obj
 0004:000018fc       $pdata$wcstombs_s          00000001800558fc     libucrt:wcstombs.obj
 0004:00001908       $pdata$fsetpos             0000000180055908     libucrt:fsetpos.obj
 0004:00001914       $pdata$?common_fseek@@YAHV__crt_stdio_stream@@_JH@Z 0000000180055914     libucrt:fseek.obj
 0004:00001920       $pdata$?common_fseek_binary_mode_read_only_fast_track_nolock@@YA_NV__crt_stdio_stream@@_JH@Z 0000000180055920     libucrt:fseek.obj
 0004:0000192c       $pdata$?common_fseek_nolock@@YAHV__crt_stdio_stream@@_JH@Z 000000018005592c     libucrt:fseek.obj
 0004:00001938       $pdata$??$common_assert_to_message_box@_W@@YAXQEB_W0IQEAX@Z 0000000180055938     libucrt:assert.obj
 0004:00001944       $pdata$??$common_assert_to_message_box_build_string@_W@@YAXQEA_W_KQEB_W2IQEAX@Z 0000000180055944     libucrt:assert.obj
 0004:00001950       $pdata$??$common_assert_to_stderr@_W@@YAXQEB_W0I@Z 0000000180055950     libucrt:assert.obj
 0004:0000195c       $pdata$_wassert            000000018005595c     libucrt:assert.obj
 0004:00001968       $pdata$fwprintf            0000000180055968     libucrt:assert.obj
 0004:00001974       $pdata$swprintf            0000000180055974     libucrt:assert.obj
 0004:00001980       $pdata$?common_exit@@YAXHW4_crt_exit_cleanup_mode@@W4_crt_exit_return_mode@@@Z 0000000180055980     libucrt:exit.obj
 0004:0000198c       $pdata$?exit_or_terminate_process@@YAXI@Z 000000018005598c     libucrt:exit.obj
 0004:00001998       $pdata$?try_cor_exit_process@@YAXI@Z 0000000180055998     libucrt:exit.obj
 0004:000019a4       $pdata$??$?RV<lambda_c36588078e9f5dfd39652860aa6b3aaf>@@AEAV<lambda_ec61778202f4f5fc7e7711acc23c3bca>@@V<lambda_dc9d2797ccde5d239b4a0efae8ebd7db>@@@?$__crt_seh_guarded_call@P6AXH@Z@@QEAAP6AXH@Z$$QEAV<lambda_c36588078e9f5dfd39652860aa6b3aaf>@@AEAV<lambda_ec61778202f4f5fc7e7711acc23c3bca>@@$$QEAV<lambda_dc9d2797ccde5d239b4a0efae8ebd7db>@@@Z 00000001800559a4     libucrt:signal.obj
 0004:000019b0       $pdata$__acrt_get_sigabrt_handler 00000001800559b0     libucrt:signal.obj
 0004:000019bc       $pdata$raise               00000001800559bc     libucrt:signal.obj
 0004:000019c8       $pdata$??$parse_floating_point@V?$input_adapter_character_source@V?$string_input_adapter@D@__crt_stdio_input@@@__crt_strtox@@M@__crt_strtox@@YA?AW4SLD_STATUS@@QEAU__crt_locale_pointers@@V?$input_adapter_character_source@V?$string_input_adapter@D@__crt_stdio_input@@@0@QEAM@Z 00000001800559c8     libucrt:input.obj
 0004:000019d4       $pdata$??$parse_floating_point@V?$input_adapter_character_source@V?$string_input_adapter@D@__crt_stdio_input@@@__crt_strtox@@N@__crt_strtox@@YA?AW4SLD_STATUS@@QEAU__crt_locale_pointers@@V?$input_adapter_character_source@V?$string_input_adapter@D@__crt_stdio_input@@@0@QEAN@Z 00000001800559d4     libucrt:input.obj
 0004:000019e0       $pdata$??$parse_floating_point_from_source@V?$input_adapter_character_source@V?$string_input_adapter@D@__crt_stdio_input@@@__crt_strtox@@@__crt_strtox@@YA?AW4floating_point_parse_result@0@QEAU__crt_locale_pointers@@AEAV?$input_adapter_character_source@V?$string_input_adapter@D@__crt_stdio_input@@@0@AEAUfloating_point_string@0@@Z 00000001800559e0     libucrt:input.obj
 0004:000019ec       $pdata$??$parse_floating_point_possible_infinity@DV?$input_adapter_character_source@V?$string_input_adapter@D@__crt_stdio_input@@@__crt_strtox@@_K@__crt_strtox@@YA?AW4floating_point_parse_result@0@AEADAEAV?$input_adapter_character_source@V?$string_input_adapter@D@__crt_stdio_input@@@0@_K@Z 00000001800559ec     libucrt:input.obj
 0004:000019f8       $pdata$??$parse_floating_point_possible_nan@DV?$input_adapter_character_source@V?$string_input_adapter@D@__crt_stdio_input@@@__crt_strtox@@_K@__crt_strtox@@YA?AW4floating_point_parse_result@0@AEADAEAV?$input_adapter_character_source@V?$string_input_adapter@D@__crt_stdio_input@@@0@_K@Z 00000001800559f8     libucrt:input.obj
 0004:00001a04       $pdata$??$parse_floating_point_possible_nan_is_ind@DV?$input_adapter_character_source@V?$string_input_adapter@D@__crt_stdio_input@@@__crt_strtox@@@__crt_strtox@@YA_NAEADAEAV?$input_adapter_character_source@V?$string_input_adapter@D@__crt_stdio_input@@@0@@Z 0000000180055a04     libucrt:input.obj
 0004:00001a10       $pdata$??$parse_floating_point_possible_nan_is_snan@DV?$input_adapter_character_source@V?$string_input_adapter@D@__crt_stdio_input@@@__crt_strtox@@@__crt_strtox@@YA_NAEADAEAV?$input_adapter_character_source@V?$string_input_adapter@D@__crt_stdio_input@@@0@@Z 0000000180055a10     libucrt:input.obj
 0004:00001a1c       $pdata$??$parse_floating_point_write_result@M@__crt_strtox@@YA?AW4SLD_STATUS@@W4floating_point_parse_result@0@AEBUfloating_point_string@0@QEAM@Z 0000000180055a1c     libucrt:input.obj
 0004:00001a28       $pdata$??$parse_floating_point_write_result@N@__crt_strtox@@YA?AW4SLD_STATUS@@W4floating_point_parse_result@0@AEBUfloating_point_string@0@QEAN@Z 0000000180055a28     libucrt:input.obj
 0004:00001a34       $pdata$??$parse_integer@_KV?$input_adapter_character_source@V?$string_input_adapter@D@__crt_stdio_input@@@__crt_strtox@@@__crt_strtox@@YA_KQEAU__crt_locale_pointers@@V?$input_adapter_character_source@V?$string_input_adapter@D@__crt_stdio_input@@@0@H_N@Z 0000000180055a34     libucrt:input.obj
 0004:00001a40       $pdata$??$process_floating_point_specifier_t@M@?$input_processor@DV?$string_input_adapter@D@__crt_stdio_input@@@__crt_stdio_input@@AEAA_NXZ 0000000180055a40     libucrt:input.obj
 0004:00001a4c       $pdata$??$process_floating_point_specifier_t@N@?$input_processor@DV?$string_input_adapter@D@__crt_stdio_input@@@__crt_stdio_input@@AEAA_NXZ 0000000180055a4c     libucrt:input.obj
 0004:00001a58       $pdata$??$process_string_specifier_tchar@D@?$input_processor@DV?$string_input_adapter@D@__crt_stdio_input@@@__crt_stdio_input@@AEAA_NW4conversion_mode@1@D@Z 0000000180055a58     libucrt:input.obj
 0004:00001a64       $pdata$??$process_string_specifier_tchar@_W@?$input_processor@DV?$string_input_adapter@D@__crt_stdio_input@@@__crt_stdio_input@@AEAA_NW4conversion_mode@1@_W@Z 0000000180055a64     libucrt:input.obj
 0004:00001a70       $pdata$??$skip_whitespace@Vstring_input_adapter@__crt_stdio_input@@D@__crt_stdio_input@@YAHAEAV?$string_input_adapter@D@0@QEAU__crt_locale_pointers@@@Z 0000000180055a70     libucrt:input.obj
 0004:00001a7c       $pdata$?advance@?$format_string_parser@D@__crt_stdio_input@@QEAA_NXZ 0000000180055a7c     libucrt:input.obj
 0004:00001a88       $pdata$?as_double@floating_point_value@__crt_strtox@@QEBAAEANXZ 0000000180055a88     libucrt:input.obj
 0004:00001a94       $pdata$?as_float@floating_point_value@__crt_strtox@@QEBAAEAMXZ 0000000180055a94     libucrt:input.obj
 0004:00001aa0       $pdata$?assemble_floating_point_value@__crt_strtox@@YA?AW4SLD_STATUS@@_KH_N1AEBVfloating_point_value@1@@Z 0000000180055aa0     libucrt:input.obj
 0004:00001aac       $pdata$?assemble_floating_point_value_from_big_integer@__crt_strtox@@YA?AW4SLD_STATUS@@AEBUbig_integer@1@I_N1AEBVfloating_point_value@1@@Z 0000000180055aac     libucrt:input.obj
 0004:00001ab8       $pdata$?convert_decimal_string_to_floating_type_common@__crt_strtox@@YA?AW4SLD_STATUS@@AEBUfloating_point_string@1@AEBVfloating_point_value@1@@Z 0000000180055ab8     libucrt:input.obj
 0004:00001ac4       $pdata$?convert_hexadecimal_string_to_floating_type_common@__crt_strtox@@YA?AW4SLD_STATUS@@AEBUfloating_point_string@1@AEBVfloating_point_value@1@@Z 0000000180055ac4     libucrt:input.obj
 0004:00001ad0       $pdata$?divide@__crt_strtox@@YA_KAEAUbig_integer@1@AEBU21@@Z 0000000180055ad0     libucrt:input.obj
 0004:00001adc       $pdata$5$?divide@__crt_strtox@@YA_KAEAUbig_integer@1@AEBU21@@Z 0000000180055adc     libucrt:input.obj
 0004:00001ae8       $pdata$6$?divide@__crt_strtox@@YA_KAEAUbig_integer@1@AEBU21@@Z 0000000180055ae8     libucrt:input.obj
 0004:00001af4       $pdata$?process@?$input_processor@DV?$string_input_adapter@D@__crt_stdio_input@@@__crt_stdio_input@@QEAAHXZ 0000000180055af4     libucrt:input.obj
 0004:00001b00       $pdata$?process_conversion_specifier@?$input_processor@DV?$string_input_adapter@D@__crt_stdio_input@@@__crt_stdio_input@@AEAA_NXZ 0000000180055b00     libucrt:input.obj
 0004:00001b0c       $pdata$?process_floating_point_specifier@?$input_processor@DV?$string_input_adapter@D@__crt_stdio_input@@@__crt_stdio_input@@AEAA_NXZ 0000000180055b0c     libucrt:input.obj
 0004:00001b18       $pdata$?process_integer_specifier@?$input_processor@DV?$string_input_adapter@D@__crt_stdio_input@@@__crt_stdio_input@@AEAA_NI_N@Z 0000000180055b18     libucrt:input.obj
 0004:00001b24       $pdata$?process_literal_character_tchar@?$input_processor@DV?$string_input_adapter@D@__crt_stdio_input@@@__crt_stdio_input@@AEAA_ND@Z 0000000180055b24     libucrt:input.obj
 0004:00001b30       $pdata$?process_state@?$input_processor@DV?$string_input_adapter@D@__crt_stdio_input@@@__crt_stdio_input@@AEAA_NXZ 0000000180055b30     libucrt:input.obj
 0004:00001b3c       $pdata$?process_string_specifier@?$input_processor@DV?$string_input_adapter@D@__crt_stdio_input@@@__crt_stdio_input@@AEAA_NW4conversion_mode@2@@Z 0000000180055b3c     libucrt:input.obj
 0004:00001b48       $pdata$?scan_optional_field_width@?$format_string_parser@D@__crt_stdio_input@@AEAA_NXZ 0000000180055b48     libucrt:input.obj
 0004:00001b54       $pdata$?scan_scanset_range@?$format_string_parser@D@__crt_stdio_input@@AEAA_NXZ 0000000180055b54     libucrt:input.obj
 0004:00001b60       $pdata$?write_character@?$input_processor@DV?$string_input_adapter@D@__crt_stdio_input@@@__crt_stdio_input@@AEAA_NQEFA_W_KAEAPEFA_WAEA_KD@Z 0000000180055b60     libucrt:input.obj
 0004:00001b6c       $pdata$?write_integer@?$input_processor@DV?$string_input_adapter@D@__crt_stdio_input@@@__crt_stdio_input@@AEAA_N_K_N@Z 0000000180055b6c     libucrt:input.obj
 0004:00001b78       $pdata$__stdio_common_vsscanf 0000000180055b78     libucrt:input.obj
 0004:00001b84       $pdata$??$common_getenv@D@@YAPEADQEBD@Z 0000000180055b84     libucrt:getenv.obj
 0004:00001b90       $pdata$??$common_getenv_nolock@D@@YAPEADQEBD@Z 0000000180055b90     libucrt:getenv.obj
 0004:00001b9c       $pdata$??$common_timespec_get@U_timespec64@@@@YAHQEAU_timespec64@@H@Z 0000000180055b9c     libucrt:time.obj
 0004:00001ba8       $pdata$_time64             0000000180055ba8     libucrt:time.obj
 0004:00001bb4       $pdata$_stricmp            0000000180055bb4     libucrt:stricmp.obj
 0004:00001bc0       $pdata$_stricmp_l          0000000180055bc0     libucrt:stricmp.obj
 0004:00001bcc       $pdata$__acrt_initialize_locks 0000000180055bcc     libucrt:locks.obj
 0004:00001bd8       $pdata$__acrt_uninitialize_locks 0000000180055bd8     libucrt:locks.obj
 0004:00001be4       $pdata$call_wsetlocale     0000000180055be4     libucrt:setlocale.obj
 0004:00001bf0       $pdata$setlocale           0000000180055bf0     libucrt:setlocale.obj
 0004:00001bfc       $pdata$??$common_fsopen@D@@YAPEAU_iobuf@@QEBD0H@Z 0000000180055bfc     libucrt:fopen.obj
 0004:00001c08       $pdata$_calloc_base        0000000180055c08     libucrt:calloc_base.obj
 0004:00001c14       $pdata$__pctype_func       0000000180055c14     libucrt:ctype.obj
 0004:00001c20       $pdata$isdigit             0000000180055c20     libucrt:_ctype.obj
 0004:00001c2c       $pdata$islower             0000000180055c2c     libucrt:_ctype.obj
 0004:00001c38       $pdata$isspace             0000000180055c38     libucrt:_ctype.obj
 0004:00001c44       $pdata$isupper             0000000180055c44     libucrt:_ctype.obj
 0004:00001c50       $pdata$_wcsdup             0000000180055c50     libucrt:wcsdup.obj
 0004:00001c5c       $pdata$___lc_codepage_func 0000000180055c5c     libucrt:initctype.obj
 0004:00001c68       $pdata$___lc_locale_name_func 0000000180055c68     libucrt:initctype.obj
 0004:00001c74       $pdata$___mb_cur_max_func  0000000180055c74     libucrt:initctype.obj
 0004:00001c80       $pdata$__acrt_locale_initialize_ctype 0000000180055c80     libucrt:initctype.obj
 0004:00001c8c       $pdata$?x_ismbbtype_l@@YAHPEAU__crt_locale_pointers@@IHH@Z 0000000180055c8c     libucrt:ismbbyte.obj
 0004:00001c98       $pdata$_malloc_base        0000000180055c98     libucrt:malloc_base.obj
 0004:00001ca4       $pdata$_realloc_base       0000000180055ca4     libucrt:realloc_base.obj
 0004:00001cc8       $pdata$_free_base          0000000180055cc8     libucrt:free_base.obj
 0004:00001cd4       $pdata$?internal_isupper_l@@YA_NHQEAU__crt_locale_pointers@@@Z 0000000180055cd4     libucrt:tolower_toupper.obj
 0004:00001ce0       $pdata$_tolower_l          0000000180055ce0     libucrt:tolower_toupper.obj
 0004:00001cec       $pdata$tolower             0000000180055cec     libucrt:tolower_toupper.obj
 0004:00001cf8       $pdata$wcscpy_s            0000000180055cf8     libucrt:wcscpy_s.obj
 0004:00001d04       $pdata$strnlen             0000000180055d04     libucrt:strnlen.obj
 0004:00001d10       $pdata$wcsnlen             0000000180055d10     libucrt:strnlen.obj
 0004:00001d1c       $pdata$_callnewh           0000000180055d1c     libucrt:new_handler.obj
 0004:00001d28       $pdata$_query_new_handler  0000000180055d28     libucrt:new_handler.obj
 0004:00001d34       $pdata$_seh_filter_exe     0000000180055d34     libucrt:exception_filter.obj
 0004:00001d40       $pdata$??$parse_command_line@D@@YAXPEADPEAPEAD0PEA_K2@Z 0000000180055d40     libucrt:argv_parsing.obj
 0004:00001d4c       $pdata$__acrt_allocate_buffer_for_argv 0000000180055d4c     libucrt:argv_parsing.obj
 0004:00001d58       $pdata$_configure_narrow_argv 0000000180055d58     libucrt:argv_parsing.obj
 0004:00001d64       $pdata$??$common_get_or_create_environment_nolock@D@@YAPEAPEADXZ 0000000180055d64     libucrt:environment_initialization.obj
 0004:00001d70       $pdata$??$common_initialize_environment_nolock@D@@YAHXZ 0000000180055d70     libucrt:environment_initialization.obj
 0004:00001d7c       $pdata$??$create_environment@D@@YAQEAPEADQEAD@Z 0000000180055d7c     libucrt:environment_initialization.obj
 0004:00001d88       $pdata$??$free_environment@D@@YAXQEAPEAD@Z 0000000180055d88     libucrt:environment_initialization.obj
 0004:00001d88       $pdata$??$free_environment@_W@@YAXQEAPEA_W@Z 0000000180055d88     libucrt:environment_initialization.obj
 0004:00001d94       $pdata$??$initialize_environment_by_cloning_nolock@D@@YAHXZ 0000000180055d94     libucrt:environment_initialization.obj
 0004:00001da0       $pdata$??$uninitialize_environment_internal@D@@YAXAEAPEAPEAD@Z 0000000180055da0     libucrt:environment_initialization.obj
 0004:00001dac       $pdata$??$uninitialize_environment_internal@_W@@YAXAEAPEAPEA_W@Z 0000000180055dac     libucrt:environment_initialization.obj
 0004:00001db8       $pdata$__dcrt_uninitialize_environments_nolock 0000000180055db8     libucrt:environment_initialization.obj
 0004:00001dc4       $pdata$??$?RV<lambda_b8c45f8f788dd370798f47cfe8ac3a86>@@AEAV<lambda_4e60a939b0d047cfe11ddc22648dfba9>@@V<lambda_332c3edc96d0294ec56c57d38c1cdfd5>@@@?$__crt_seh_guarded_call@H@@QEAAH$$QEAV<lambda_b8c45f8f788dd370798f47cfe8ac3a86>@@AEAV<lambda_4e60a939b0d047cfe11ddc22648dfba9>@@$$QEAV<lambda_332c3edc96d0294ec56c57d38c1cdfd5>@@@Z 0000000180055dc4     libucrt:onexit.obj
 0004:00001dd0       $pdata$??$?RV<lambda_e24bbb7b643b32fcea6fa61b31d4c984>@@AEAV<lambda_275893d493268fdec8709772e3fcec0e>@@V<lambda_9d71df4d7cf3f480f8d633942495c3b0>@@@?$__crt_seh_guarded_call@H@@QEAAH$$QEAV<lambda_e24bbb7b643b32fcea6fa61b31d4c984>@@AEAV<lambda_275893d493268fdec8709772e3fcec0e>@@$$QEAV<lambda_9d71df4d7cf3f480f8d633942495c3b0>@@@Z 0000000180055dd0     libucrt:onexit.obj
 0004:00001ddc       $pdata$??R<lambda_4e60a939b0d047cfe11ddc22648dfba9>@@QEBAHXZ 0000000180055ddc     libucrt:onexit.obj
 0004:00001de8       $pdata$_execute_onexit_table 0000000180055de8     libucrt:onexit.obj
 0004:00001df4       $pdata$_register_onexit_function 0000000180055df4     libucrt:onexit.obj
 0004:00001e00       $pdata$initialize_c        0000000180055e00     libucrt:initialization.obj
 0004:00001e0c       $pdata$uninitialize_environment 0000000180055e0c     libucrt:initialization.obj
 0004:00001e18       $pdata$initialize_pointers 0000000180055e18     libucrt:initialization.obj
 0004:00001e24       $pdata$uninitialize_allocated_memory 0000000180055e24     libucrt:initialization.obj
 0004:00001e30       $pdata$__acrt_thread_attach 0000000180055e30     libucrt:initialization.obj
 0004:00001e3c       $pdata$__acrt_thread_detach 0000000180055e3c     libucrt:initialization.obj
 0004:00001e48       $pdata$__acrt_uninitialize_critical 0000000180055e48     libucrt:initialization.obj
 0004:00001e54       $pdata$_initterm           0000000180055e54     libucrt:initterm.obj
 0004:00001e60       $pdata$_initterm_e         0000000180055e60     libucrt:initterm.obj
 0004:00001e6c       $pdata$terminate           0000000180055e6c     libucrt:terminate.obj
 0004:00001e78       $pdata$strcpy_s            0000000180055e78     libucrt:strcpy_s.obj
 0004:00001e84       $pdata$??$parse_integer@KV?$c_string_character_source@D@__crt_strtox@@@__crt_strtox@@YAKQEAU__crt_locale_pointers@@V?$c_string_character_source@D@0@H_N@Z 0000000180055e84     libucrt:atox.obj
 0004:00001e90       $pdata$??$parse_integer@KV?$c_string_character_source@_W@__crt_strtox@@@__crt_strtox@@YAKQEAU__crt_locale_pointers@@V?$c_string_character_source@_W@0@H_N@Z 0000000180055e90     libucrt:atox.obj
 0004:00001e9c       $pdata$??$parse_integer@_KV?$c_string_character_source@D@__crt_strtox@@@__crt_strtox@@YA_KQEAU__crt_locale_pointers@@V?$c_string_character_source@D@0@H_N@Z 0000000180055e9c     libucrt:atox.obj
 0004:00001ea8       $pdata$_wtol               0000000180055ea8     libucrt:atox.obj
 0004:00001eb4       $pdata$_fileno             0000000180055eb4     libucrt:fileno.obj
 0004:00001ec0       $pdata$??$write_buffer_nolock@D@@YA_NDV__crt_stdio_stream@@@Z 0000000180055ec0     libucrt:_flsbuf.obj
 0004:00001ecc       $pdata$??$write_buffer_nolock@_W@@YA_N_WV__crt_stdio_stream@@@Z 0000000180055ecc     libucrt:_flsbuf.obj
 0004:00001ed8       $pdata$__acrt_stdio_flush_and_write_narrow_nolock 0000000180055ed8     libucrt:_flsbuf.obj
 0004:00001ee4       $pdata$__acrt_stdio_flush_and_write_wide_nolock 0000000180055ee4     libucrt:_flsbuf.obj
 0004:00001ef0       $pdata$?initialize_inherited_file_handles_nolock@@YAXXZ 0000000180055ef0     libucrt:ioinit.obj
 0004:00001efc       $pdata$?initialize_stdio_handles_nolock@@YAXXZ 0000000180055efc     libucrt:ioinit.obj
 0004:00001f08       $pdata$__acrt_initialize_lowio 0000000180055f08     libucrt:ioinit.obj
 0004:00001f14       $pdata$__acrt_uninitialize_lowio 0000000180055f14     libucrt:ioinit.obj
 0004:00001f20       $pdata$??$?RV<lambda_46352004c1216016012b18bd6f87e700>@@AEAV<lambda_3bd07e1a1191394380780325891bf33f>@@V<lambda_334532d3f185bcaa59b5be82d7d22bff>@@@?$__crt_seh_guarded_call@X@@QEAAX$$QEAV<lambda_46352004c1216016012b18bd6f87e700>@@AEAV<lambda_3bd07e1a1191394380780325891bf33f>@@$$QEAV<lambda_334532d3f185bcaa59b5be82d7d22bff>@@@Z 0000000180055f20     libucrt:per_thread_data.obj
 0004:00001f2c       $pdata$??$?RV<lambda_5e887d1dcbef67a5eb4283622ba103bf>@@AEAV<lambda_4466841279450cc726390878d4a41900>@@V<lambda_341c25c0346d94847f1f3c463c57e077>@@@?$__crt_seh_guarded_call@X@@QEAAX$$QEAV<lambda_5e887d1dcbef67a5eb4283622ba103bf>@@AEAV<lambda_4466841279450cc726390878d4a41900>@@$$QEAV<lambda_341c25c0346d94847f1f3c463c57e077>@@@Z 0000000180055f2c     libucrt:per_thread_data.obj
 0004:00001f38       $pdata$??$?RV<lambda_72d1df2b273a38828b1ce30cbf4cdab5>@@AEAV<lambda_876a65b173b8412d3a47c70a915b0cf4>@@V<lambda_41932305e351933ebe8f8be3ed8bb5dc>@@@?$__crt_seh_guarded_call@X@@QEAAX$$QEAV<lambda_72d1df2b273a38828b1ce30cbf4cdab5>@@AEAV<lambda_876a65b173b8412d3a47c70a915b0cf4>@@$$QEAV<lambda_41932305e351933ebe8f8be3ed8bb5dc>@@@Z 0000000180055f38     libucrt:per_thread_data.obj
 0004:00001f44       $pdata$??$?RV<lambda_fb3a7dec4e47f37f22dae91bb15c9095>@@AEAV<lambda_698284760c8add0bfb0756c19673e34b>@@V<lambda_dfb8eca1e75fef3034a8fb18dd509707>@@@?$__crt_seh_guarded_call@X@@QEAAX$$QEAV<lambda_fb3a7dec4e47f37f22dae91bb15c9095>@@AEAV<lambda_698284760c8add0bfb0756c19673e34b>@@$$QEAV<lambda_dfb8eca1e75fef3034a8fb18dd509707>@@@Z 0000000180055f44     libucrt:per_thread_data.obj
 0004:00001f50       $pdata$?construct_ptd_array@@YAXQEAU__acrt_ptd@@@Z 0000000180055f50     libucrt:per_thread_data.obj
 0004:00001f5c       $pdata$?destroy_fls@@YAXPEAX@Z 0000000180055f5c     libucrt:per_thread_data.obj
 0004:00001f68       $pdata$?destroy_ptd_array@@YAXQEAU__acrt_ptd@@@Z 0000000180055f68     libucrt:per_thread_data.obj
 0004:00001f74       $pdata$?replace_current_thread_locale_nolock@@YAXQEAU__acrt_ptd@@QEAU__crt_locale_data@@@Z 0000000180055f74     libucrt:per_thread_data.obj
 0004:00001f80       $pdata$__acrt_freeptd      0000000180055f80     libucrt:per_thread_data.obj
 0004:00001f8c       $pdata$__acrt_getptd       0000000180055f8c     libucrt:per_thread_data.obj
 0004:00001f98       $pdata$__acrt_getptd_noexit 0000000180055f98     libucrt:per_thread_data.obj
 0004:00001fa4       $pdata$__acrt_initialize_ptd 0000000180055fa4     libucrt:per_thread_data.obj
 0004:00001fb0       $pdata$__acrt_uninitialize_ptd 0000000180055fb0     libucrt:per_thread_data.obj
 0004:00001fbc       $pdata$??$?RV<lambda_b521505b218e5242e90febf6bfebc422>@@AEAV<lambda_6978c1fb23f02e42e1d9e99668cc68aa>@@V<lambda_314360699dd331753a4119843814e9a7>@@@?$__crt_seh_guarded_call@H@@QEAAH$$QEAV<lambda_b521505b218e5242e90febf6bfebc422>@@AEAV<lambda_6978c1fb23f02e42e1d9e99668cc68aa>@@$$QEAV<lambda_314360699dd331753a4119843814e9a7>@@@Z 0000000180055fbc     libucrt:commit.obj
 0004:00001fc8       $pdata$_commit             0000000180055fc8     libucrt:commit.obj
 0004:00001fd4       $pdata$?write_double_translated_ansi_nolock@@YA?AUwrite_result@?A0x9c548279@@HQEBDI@Z 0000000180055fd4     libucrt:write.obj
 0004:00001fe0       $pdata$?write_text_ansi_nolock@@YA?AUwrite_result@?A0x9c548279@@HQEBDI@Z 0000000180055fe0     libucrt:write.obj
 0004:00001fec       $pdata$?write_text_utf16le_nolock@@YA?AUwrite_result@?A0x9c548279@@HQEBDI@Z 0000000180055fec     libucrt:write.obj
 0004:00001ff8       $pdata$?write_text_utf8_nolock@@YA?AUwrite_result@?A0x9c548279@@HQEBDI@Z 0000000180055ff8     libucrt:write.obj
 0004:00002004       $pdata$_write              0000000180056004     libucrt:write.obj
 0004:00002010       $pdata$_write_nolock       0000000180056010     libucrt:write.obj
 0004:0000201c       $pdata$??$?RV<lambda_bfedae4ebbf01fab1bb6dcc6a9e276e0>@@AEAV<lambda_2fe9b910cf3cbf4a0ab98a02ba45b3ec>@@V<lambda_237c231691f317818eb88cc1d5d642d6>@@@?$__crt_seh_guarded_call@H@@QEAAH$$QEAV<lambda_bfedae4ebbf01fab1bb6dcc6a9e276e0>@@AEAV<lambda_2fe9b910cf3cbf4a0ab98a02ba45b3ec>@@$$QEAV<lambda_237c231691f317818eb88cc1d5d642d6>@@@Z 000000018005601c     libucrt:close.obj
 0004:00002028       $pdata$_close              0000000180056028     libucrt:close.obj
 0004:00002034       $pdata$_close_nolock       0000000180056034     libucrt:close.obj
 0004:00002040       $pdata$?__acrt_stdio_allocate_stream@@YA?AV__crt_stdio_stream@@XZ 0000000180056040     libucrt:stream.obj
 0004:0000204c       $pdata$?find_or_allocate_unused_stream_nolock@@YA?AV__crt_stdio_stream@@XZ 000000018005604c     libucrt:stream.obj
 0004:00002058       $pdata$__acrt_stdio_free_buffer_nolock 0000000180056058     libucrt:_freebuf.obj
 0004:00002064       $pdata$strtol              0000000180056064     libucrt:strtox.obj
 0004:00002070       $pdata$strtoull            0000000180056070     libucrt:strtox.obj
 0004:0000207c       $pdata$wcstol              000000018005607c     libucrt:strtox.obj
 0004:00002088       $pdata$_mbtowc_l           0000000180056088     libucrt:mbtowc.obj
 0004:00002094       $pdata$_wctomb_s_l         0000000180056094     libucrt:wctomb.obj
 0004:000020a0       $pdata$wctomb_s            00000001800560a0     libucrt:wctomb.obj
 0004:000020ac       $pdata$__acrt_update_locale_info 00000001800560ac     libucrt:locale_update.obj
 0004:000020b8       $pdata$__acrt_update_multibyte_info 00000001800560b8     libucrt:locale_update.obj
 0004:000020c4       $pdata$?fp_format_a@@YAHQEBNPEAD_KQEAD2H_NIQEAU__crt_locale_pointers@@@Z 00000001800560c4     libucrt:cvt.obj
 0004:000020d0       $pdata$?fp_format_e@@YAHQEBNQEAD_K12H_NIQEAU__crt_locale_pointers@@@Z 00000001800560d0     libucrt:cvt.obj
 0004:000020dc       $pdata$?fp_format_e_internal@@YAHQEAD_KH_NIQEAU_strflt@@2QEAU__crt_locale_pointers@@@Z 00000001800560dc     libucrt:cvt.obj
 0004:000020e8       $pdata$?fp_format_f_internal@@YAHQEAD_KHQEAU_strflt@@_NQEAU__crt_locale_pointers@@@Z 00000001800560e8     libucrt:cvt.obj
 0004:000020f4       $pdata$?fp_format_g@@YAHQEBNQEAD_K12H_NIQEAU__crt_locale_pointers@@@Z 00000001800560f4     libucrt:cvt.obj
 0004:00002100       $pdata$?fp_format_nan_or_infinity@@YAHW4__acrt_fp_class@@_NPEAD_K1@Z 0000000180056100     libucrt:cvt.obj
 0004:0000210c       $pdata$__acrt_fp_format    000000018005610c     libucrt:cvt.obj
 0004:00002118       $pdata$_fputwc_nolock      0000000180056118     libucrt:fputwc.obj
 0004:00002124       $pdata$__acrt_stdio_begin_temporary_buffering_nolock 0000000180056124     libucrt:_sftbuf.obj
 0004:00002130       $pdata$__acrt_stdio_end_temporary_buffering_nolock 0000000180056130     libucrt:_sftbuf.obj
 0004:0000213c       $pdata$??$?RV<lambda_5df02c53a8f32f81fd64e5bbb78039f1>@@AEAV<lambda_2af78c5f5901b1372d98f9ab3177dfa6>@@AEAV<lambda_f51fe5fd7c79a33db34fc9310f277369>@@@?$__crt_seh_guarded_call@X@@QEAAX$$QEAV<lambda_5df02c53a8f32f81fd64e5bbb78039f1>@@AEAV<lambda_2af78c5f5901b1372d98f9ab3177dfa6>@@AEAV<lambda_f51fe5fd7c79a33db34fc9310f277369>@@@Z 000000018005613c     libucrt:wsetlocale.obj
 0004:00002148       $pdata$??$?RV<lambda_d67e8342c384adda8f857579ab50b2ae>@@AEAV<lambda_30712929f77e709619002f448b6a9510>@@V<lambda_4525336fd7e478d965fb7ca7a337cad8>@@@?$__crt_seh_guarded_call@X@@QEAAX$$QEAV<lambda_d67e8342c384adda8f857579ab50b2ae>@@AEAV<lambda_30712929f77e709619002f448b6a9510>@@$$QEAV<lambda_4525336fd7e478d965fb7ca7a337cad8>@@@Z 0000000180056148     libucrt:wsetlocale.obj
 0004:00002154       $pdata$??R<lambda_2af78c5f5901b1372d98f9ab3177dfa6>@@QEBAXXZ 0000000180056154     libucrt:wsetlocale.obj
 0004:00002160       $pdata$__acrt_copy_locale_name 0000000180056160     libucrt:wsetlocale.obj
 0004:0000216c       $pdata$__acrt_uninitialize_locale 000000018005616c     libucrt:wsetlocale.obj
 0004:00002178       $pdata$__lc_lctowcs        0000000180056178     libucrt:wsetlocale.obj
 0004:00002184       $pdata$__lc_wcstolc        0000000180056184     libucrt:wsetlocale.obj
 0004:00002190       $pdata$_copytlocinfo_nolock 0000000180056190     libucrt:wsetlocale.obj
 0004:0000219c       $pdata$_expandlocale       000000018005619c     libucrt:wsetlocale.obj
 0004:000021a8       $pdata$_wcscats            00000001800561a8     libucrt:wsetlocale.obj
 0004:000021b4       $pdata$_wsetlocale         00000001800561b4     libucrt:wsetlocale.obj
 0004:000021c0       $pdata$_wsetlocale_get_all 00000001800561c0     libucrt:wsetlocale.obj
 0004:000021cc       $pdata$_wsetlocale_nolock  00000001800561cc     libucrt:wsetlocale.obj
 0004:000021d8       $pdata$_wsetlocale_set_cat 00000001800561d8     libucrt:wsetlocale.obj
 0004:000021e4       $pdata$??$common_refill_and_read_nolock@D@@YAHV__crt_stdio_stream@@@Z 00000001800561e4     libucrt:_filbuf.obj
 0004:000021f0       $pdata$?<helper_func_cdecl>@<lambda_e2bb8337c48846e80c921ea5ddadc92d>@@CAHPEA_W@Z 00000001800561f0     libucrt:winapi_thunks.obj
 0004:000021fc       $pdata$??$?RV<lambda_630b2aca97f6d20d5b5ea6529ea6b6af>@@AEAV<lambda_af91936f1d075d609f72d9d8cba980af>@@V<lambda_e82fa975f615b5c7c7b0e4d178fdae67>@@@?$__crt_seh_guarded_call@H@@QEAAH$$QEAV<lambda_630b2aca97f6d20d5b5ea6529ea6b6af>@@AEAV<lambda_af91936f1d075d609f72d9d8cba980af>@@$$QEAV<lambda_e82fa975f615b5c7c7b0e4d178fdae67>@@@Z 00000001800561fc     libucrt:winapi_thunks.obj
 0004:00002208       $pdata$?try_get_function@@YAPEAXW4function_id@?A0x63058377@@QEBDQEBW4module_id@2@2@Z 0000000180056208     libucrt:winapi_thunks.obj
 0004:00002214       $pdata$__acrt_AreFileApisANSI 0000000180056214     libucrt:winapi_thunks.obj
 0004:00002220       $pdata$__acrt_CompareStringEx 0000000180056220     libucrt:winapi_thunks.obj
 0004:0000222c       $pdata$__acrt_EnumSystemLocalesEx 000000018005622c     libucrt:winapi_thunks.obj
 0004:00002238       $pdata$__acrt_FlsAlloc     0000000180056238     libucrt:winapi_thunks.obj
 0004:00002244       $pdata$__acrt_FlsFree      0000000180056244     libucrt:winapi_thunks.obj
 0004:00002250       $pdata$__acrt_FlsGetValue  0000000180056250     libucrt:winapi_thunks.obj
 0004:0000225c       $pdata$__acrt_FlsSetValue  000000018005625c     libucrt:winapi_thunks.obj
 0004:00002268       $pdata$__acrt_GetLocaleInfoEx 0000000180056268     libucrt:winapi_thunks.obj
 0004:00002274       $pdata$__acrt_GetSystemTimePreciseAsFileTime 0000000180056274     libucrt:winapi_thunks.obj
 0004:00002280       $pdata$__acrt_GetUserDefaultLocaleName 0000000180056280     libucrt:winapi_thunks.obj
 0004:0000228c       $pdata$__acrt_InitializeCriticalSectionEx 000000018005628c     libucrt:winapi_thunks.obj
 0004:00002298       $pdata$__acrt_IsValidLocaleName 0000000180056298     libucrt:winapi_thunks.obj
 0004:000022a4       $pdata$__acrt_LCIDToLocaleName 00000001800562a4     libucrt:winapi_thunks.obj
 0004:000022b0       $pdata$__acrt_LCMapStringEx 00000001800562b0     libucrt:winapi_thunks.obj
 0004:000022bc       $pdata$__acrt_LocaleNameToLCID 00000001800562bc     libucrt:winapi_thunks.obj
 0004:000022c8       $pdata$__acrt_MessageBoxW  00000001800562c8     libucrt:winapi_thunks.obj
 0004:000022d4       $pdata$__acrt_can_show_message_box 00000001800562d4     libucrt:winapi_thunks.obj
 0004:000022e0       $pdata$__acrt_can_use_vista_locale_apis 00000001800562e0     libucrt:winapi_thunks.obj
 0004:000022ec       $pdata$__acrt_get_parent_window 00000001800562ec     libucrt:winapi_thunks.obj
 0004:000022f8       $pdata$__acrt_initialize_winapi_thunks 00000001800562f8     libucrt:winapi_thunks.obj
 0004:00002304       $pdata$__acrt_is_interactive 0000000180056304     libucrt:winapi_thunks.obj
 0004:00002310       $pdata$__acrt_is_packaged_app 0000000180056310     libucrt:winapi_thunks.obj
 0004:0000231c       $pdata$__acrt_uninitialize_winapi_thunks 000000018005631c     libucrt:winapi_thunks.obj
 0004:00002328       $pdata$_fcloseall          0000000180056328     libucrt:closeall.obj
 0004:00002334       $pdata$??$common_ftell@_J@@YA_JV__crt_stdio_stream@@@Z 0000000180056334     libucrt:ftell.obj
 0004:00002340       $pdata$??$common_ftell_nolock@_J@@YA_JV__crt_stdio_stream@@@Z 0000000180056340     libucrt:ftell.obj
 0004:0000234c       $pdata$?common_ftell_read_mode_nolock@@YA_JV__crt_stdio_stream@@_J1@Z 000000018005634c     libucrt:ftell.obj
 0004:00002358       $pdata$?common_ftell_translated_utf8_nolock@@YA_JV__crt_stdio_stream@@_J@Z 0000000180056358     libucrt:ftell.obj
 0004:00002364       $pdata$__acrt_stdio_allocate_buffer_nolock 0000000180056364     libucrt:_getbuf.obj
 0004:00002370       $pdata$_except1            0000000180056370     libucrt:fpexcept.obj
 0004:0000237c       $pdata$_handle_exc         000000018005637c     libucrt:fpexcept.obj
 0004:00002388       $pdata$_raise_exc          0000000180056388     libucrt:fpexcept.obj
 0004:00002394       $pdata$_raise_exc_ex       0000000180056394     libucrt:fpexcept.obj
 0004:000023a0       $pdata$_raise_excf         00000001800563a0     libucrt:fpexcept.obj
 0004:000023ac       $pdata$_set_errno_from_matherr 00000001800563ac     libucrt:fpexcept.obj
 0004:000023b8       $pdata$_umatherr           00000001800563b8     libucrt:fpexcept.obj
 0004:000023c4       $pdata$_clrfp              00000001800563c4     libucrt:fpctrl.obj
 0004:000023d0       $pdata$_ctrlfp             00000001800563d0     libucrt:fpctrl.obj
 0004:000023dc       $pdata$_set_statfp         00000001800563dc     libucrt:fpctrl.obj
 0004:000023e8       $pdata$_statfp             00000001800563e8     libucrt:fpctrl.obj
 0004:000023f4       $pdata$??$common_lseek@_J@@YA_JH_JH@Z 00000001800563f4     libucrt:lseek.obj
 0004:00002400       $pdata$??$common_lseek_nolock@_J@@YA_JH_JH@Z 0000000180056400     libucrt:lseek.obj
 0004:0000240c       $pdata$??$common_xtox@K_W@@YAHKQEA_W_KI_N@Z 000000018005640c     libucrt:xtoa.obj
 0004:00002418       $pdata$??$common_xtox_s@K_W@@YAHKQEA_W_KI_N@Z 0000000180056418     libucrt:xtoa.obj
 0004:00002424       $pdata$_itow_s             0000000180056424     libucrt:xtoa.obj
 0004:00002430       $pdata$_set_error_mode     0000000180056430     libucrt:set_error_mode.obj
 0004:0000243c       $pdata$wcscat_s            000000018005643c     libucrt:wcscat_s.obj
 0004:00002448       $pdata$wcsncat_s           0000000180056448     libucrt:wcsncat_s.obj
 0004:00002454       $pdata$??$message_box_wait_thread@_W@@YAKQEAX@Z 0000000180056454     libucrt:crtmbox.obj
 0004:00002460       $pdata$__acrt_show_wide_message_box 0000000180056460     libucrt:crtmbox.obj
 0004:0000246c       $pdata$iswctype            000000018005646c     libucrt:iswctype.obj
 0004:00002478       $pdata$_isctype_l          0000000180056478     libucrt:isctype.obj
 0004:00002484       $pdata$fegetround          0000000180056484     libucrt:fegetround.obj
 0004:00002490       $pdata$_strnicoll_l        0000000180056490     libucrt:strnicol.obj
 0004:0000249c       $pdata$?_mbstowcs_l_helper@@YA_KPEA_WPEBD_KPEAU__crt_locale_pointers@@@Z 000000018005649c     libucrt:mbstowcs.obj
 0004:000024a8       $pdata$_mbstowcs_s_l       00000001800564a8     libucrt:mbstowcs.obj
 0004:000024b4       $pdata$mbstowcs_s          00000001800564b4     libucrt:mbstowcs.obj
 0004:000024c0       $pdata$??$__acrt_stdio_parse_mode@D@@YA?AU__acrt_stdio_stream_mode@@QEBD@Z 00000001800564c0     libucrt:openfile.obj
 0004:000024cc       $pdata$_openfile           00000001800564cc     libucrt:openfile.obj
 0004:000024d8       $pdata$__acrt_initialize_heap 00000001800564d8     libucrt:heap_handle.obj
 0004:000024e4       $pdata$?InternalGetLocaleInfoA@@YAHQEAU__crt_locale_pointers@@QEB_WKQEADH@Z 00000001800564e4     libucrt:getlocaleinfoa.obj
 0004:000024f0       $pdata$__acrt_GetLocaleInfoA 00000001800564f0     libucrt:getlocaleinfoa.obj
 0004:000024fc       $pdata$__acrt_GetStringTypeA 00000001800564fc     libucrt:getstringtypea.obj
 0004:00002508       $pdata$?__acrt_LCMapStringA_stat@@YAHPEAU__crt_locale_pointers@@PEB_WKPEBDHPEADHHH@Z 0000000180056508     libucrt:lcmapstringa.obj
 0004:00002514       $pdata$__acrt_LCMapStringA 0000000180056514     libucrt:lcmapstringa.obj
 0004:00002520       $pdata$__acrt_initialize_fma3 0000000180056520     libucrt:fma3_available.obj
 0004:0000252c       $pdata$_pow_special        000000018005652c     libucrt:pow_special.obj
 0004:00002538       $pdata$_powf_special       0000000180056538     libucrt:pow_special.obj
 0004:00002544       $pdata$_wcsicmp            0000000180056544     libucrt:wcsicmp.obj
 0004:00002550       $pdata$_wcsicmp_l          0000000180056550     libucrt:wcsicmp.obj
 0004:0000255c       $pdata$_isleadbyte_l       000000018005655c     libucrt:_wctype.obj
 0004:00002568       $pdata$??$common_expand_argv_wildcards@D@@YAHQEAPEADQEAPEAPEAD@Z 0000000180056568     libucrt:argv_wildcards.obj
 0004:00002574       $pdata$??$copy_and_add_argument_to_buffer@D@@YAHQEBD0_KAEAV?$argument_list@D@?A0xca0879c4@@@Z 0000000180056574     libucrt:argv_wildcards.obj
 0004:00002580       $pdata$??$expand_argument_wildcards@D@@YAHQEAD0AEAV?$argument_list@D@?A0xca0879c4@@@Z 0000000180056580     libucrt:argv_wildcards.obj
 0004:0000258c       $pdata$?expand_if_necessary@?$argument_list@D@?A0xca0879c4@@AEAAHXZ 000000018005658c     libucrt:argv_wildcards.obj
 0004:00002598       $pdata$??$?RV<lambda_99476a1ad63dd22509b5d3e65b0ffc95>@@AEAV<lambda_ad1ced32f4ac17aa236e5ef05d6b3b7c>@@V<lambda_f7424dd8d45958661754dc4f2697e9c3>@@@?$__crt_seh_guarded_call@X@@QEAAX$$QEAV<lambda_99476a1ad63dd22509b5d3e65b0ffc95>@@AEAV<lambda_ad1ced32f4ac17aa236e5ef05d6b3b7c>@@$$QEAV<lambda_f7424dd8d45958661754dc4f2697e9c3>@@@Z 0000000180056598     libucrt:mbctype.obj
 0004:000025a4       $pdata$??R<lambda_ad1ced32f4ac17aa236e5ef05d6b3b7c>@@QEBAXXZ 00000001800565a4     libucrt:mbctype.obj
 0004:000025b0       $pdata$?getSystemCP@@YAHH@Z 00000001800565b0     libucrt:mbctype.obj
 0004:000025bc       $pdata$?setSBCS@@YAXPEAU__crt_multibyte_data@@@Z 00000001800565bc     libucrt:mbctype.obj
 0004:000025c8       $pdata$?setSBUpLow@@YAXPEAU__crt_multibyte_data@@@Z 00000001800565c8     libucrt:mbctype.obj
 0004:000025d4       $pdata$?setmbcp_internal@@YAHH_N@Z 00000001800565d4     libucrt:mbctype.obj
 0004:000025e0       $pdata$__acrt_initialize_multibyte 00000001800565e0     libucrt:mbctype.obj
 0004:000025ec       $pdata$__acrt_update_thread_multibyte_data 00000001800565ec     libucrt:mbctype.obj
 0004:000025f8       $pdata$_setmbcp_nolock     00000001800565f8     libucrt:mbctype.obj
 0004:00002604       $pdata$__acrt_initialize_command_line 0000000180056604     libucrt:argv_data.obj
 0004:00002610       $pdata$__dcrt_get_narrow_environment_from_os 0000000180056610     libucrt:get_environment_from_os.obj
 0004:0000261c       $pdata$??$common_set_variable_in_environment_nolock@D@@YAHQEADH@Z 000000018005661c     libucrt:setenv.obj
 0004:00002628       $pdata$??$copy_environment@D@@YAPEAPEADQEAPEAD@Z 0000000180056628     libucrt:setenv.obj
 0004:00002634       $pdata$_recalloc_base      0000000180056634     libucrt:recalloc.obj
 0004:00002640       $pdata$__acrt_execute_initializers 0000000180056640     libucrt:shared_initialization.obj
 0004:0000264c       $pdata$__acrt_execute_uninitializers 000000018005664c     libucrt:shared_initialization.obj
 0004:00002658       $pdata$__acrt_invoke_user_matherr 0000000180056658     libucrt:matherr.obj
 0004:00002664       $pdata$_isatty             0000000180056664     libucrt:isatty.obj
 0004:00002670       $pdata$__acrt_lowio_create_handle_array 0000000180056670     libucrt:osfinfo.obj
 0004:0000267c       $pdata$__acrt_lowio_destroy_handle_array 000000018005667c     libucrt:osfinfo.obj
 0004:00002688       $pdata$__acrt_lowio_ensure_fh_exists 0000000180056688     libucrt:osfinfo.obj
 0004:00002694       $pdata$__acrt_lowio_set_os_handle 0000000180056694     libucrt:osfinfo.obj
 0004:000026a0       $pdata$_alloc_osfhnd       00000001800566a0     libucrt:osfinfo.obj
 0004:000026ac       $pdata$_free_osfhnd        00000001800566ac     libucrt:osfinfo.obj
 0004:000026b8       $pdata$_get_osfhandle      00000001800566b8     libucrt:osfinfo.obj
 0004:000026c4       $pdata$__acrt_free_locale  00000001800566c4     libucrt:locale_refcounting.obj
 0004:000026d0       $pdata$__acrt_locale_free_lc_time_if_unreferenced 00000001800566d0     libucrt:locale_refcounting.obj
 0004:000026dc       $pdata$__acrt_release_locale_ref 00000001800566dc     libucrt:locale_refcounting.obj
 0004:000026e8       $pdata$__acrt_update_thread_locale_data 00000001800566e8     libucrt:locale_refcounting.obj
 0004:000026f4       $pdata$_updatetlocinfoEx_nolock 00000001800566f4     libucrt:locale_refcounting.obj
 0004:00002700       $pdata$_putwch_nolock      0000000180056700     libucrt:putwch.obj
 0004:0000270c       $pdata$__acrt_fp_strflt_to_string 000000018005670c     libucrt:_fptostr.obj
 0004:00002718       $pdata$__acrt_fltout       0000000180056718     libucrt:cfout.obj
 0004:00002724       $pdata$memcpy_s            0000000180056724     libucrt:cfout.obj
 0004:00002724       $pdata$memcpy_s            0000000180056724     libucrt:input.obj
 0004:00002730       $pdata$__acrt_locale_free_monetary 0000000180056730     libucrt:initmon.obj
 0004:0000273c       $pdata$__acrt_locale_initialize_monetary 000000018005673c     libucrt:initmon.obj
 0004:00002748       $pdata$__acrt_locale_free_numeric 0000000180056748     libucrt:initnum.obj
 0004:00002754       $pdata$__acrt_locale_initialize_numeric 0000000180056754     libucrt:initnum.obj
 0004:00002760       $pdata$?free_crt_array_internal@@YAXQEAPEBX_K@Z 0000000180056760     libucrt:inittime.obj
 0004:0000276c       $pdata$?initialize_lc_time@@YA_NQEAU__crt_lc_time_data@@QEAU__crt_locale_data@@@Z 000000018005676c     libucrt:inittime.obj
 0004:00002778       $pdata$__acrt_locale_free_time 0000000180056778     libucrt:inittime.obj
 0004:00002784       $pdata$__acrt_locale_initialize_time 0000000180056784     libucrt:inittime.obj
 0004:00002790       $pdata$wcsncpy_s           0000000180056790     libucrt:wcsncpy_s.obj
 0004:0000279c       $pdata$GetLocaleNameFromDefault 000000018005679c     libucrt:get_qualified_locale.obj
 0004:000027a8       $pdata$GetLocaleNameFromLangCountry 00000001800567a8     libucrt:get_qualified_locale.obj
 0004:000027b4       $pdata$GetLocaleNameFromLanguage 00000001800567b4     libucrt:get_qualified_locale.obj
 0004:000027c0       $pdata$LangCountryEnumProcEx 00000001800567c0     libucrt:get_qualified_locale.obj
 0004:000027cc       $pdata$LanguageEnumProcEx  00000001800567cc     libucrt:get_qualified_locale.obj
 0004:000027d8       $pdata$ProcessCodePage     00000001800567d8     libucrt:get_qualified_locale.obj
 0004:000027e4       $pdata$TestDefaultCountry  00000001800567e4     libucrt:get_qualified_locale.obj
 0004:000027f0       $pdata$TranslateName       00000001800567f0     libucrt:get_qualified_locale.obj
 0004:000027fc       $pdata$__acrt_get_qualified_locale 00000001800567fc     libucrt:get_qualified_locale.obj
 0004:00002808       $pdata$CountryEnumProc     0000000180056808     libucrt:getqloc_downlevel.obj
 0004:00002814       $pdata$GetLcidFromLangCountry 0000000180056814     libucrt:getqloc_downlevel.obj
 0004:00002820       $pdata$GetLcidFromLanguage 0000000180056820     libucrt:getqloc_downlevel.obj
 0004:0000282c       $pdata$LangCountryEnumProc 000000018005682c     libucrt:getqloc_downlevel.obj
 0004:00002838       $pdata$LanguageEnumProc    0000000180056838     libucrt:getqloc_downlevel.obj
 0004:00002844       $pdata$ProcessCodePage     0000000180056844     libucrt:getqloc_downlevel.obj
 0004:00002850       $pdata$TestDefaultLanguage 0000000180056850     libucrt:getqloc_downlevel.obj
 0004:0000285c       $pdata$TranslateName       000000018005685c     libucrt:getqloc_downlevel.obj
 0004:00002868       $pdata$__acrt_get_qualified_locale_downlevel 0000000180056868     libucrt:getqloc_downlevel.obj
 0004:00002874       $pdata$??$translate_text_mode_nolock@_W@@YAHHQEA_W_K@Z 0000000180056874     libucrt:read.obj
 0004:00002880       $pdata$?translate_ansi_or_utf8_nolock@@YAHHQEAD_KQEA_W1@Z 0000000180056880     libucrt:read.obj
 0004:0000288c       $pdata$_read               000000018005688c     libucrt:read.obj
 0004:00002898       $pdata$_read_nolock        0000000180056898     libucrt:read.obj
 0004:000028a4       $pdata$?GetTableIndexFromLocaleName@@YAHPEB_W@Z 00000001800568a4     libucrt:lcidtoname_downlevel.obj
 0004:000028b0       $pdata$__acrt_DownlevelLCIDToLocaleName 00000001800568b0     libucrt:lcidtoname_downlevel.obj
 0004:000028bc       $pdata$__acrt_DownlevelLocaleNameToLCID 00000001800568bc     libucrt:lcidtoname_downlevel.obj
 0004:000028d4       $pdata$_getfpcontrolword   00000001800568d4     libucrt:_fenvutils.obj
 0004:000028e0       $pdata$_getfpstatusword    00000001800568e0     libucrt:_fenvutils.obj
 0004:000028ec       $pdata$_setfpstatusword    00000001800568ec     libucrt:_fenvutils.obj
 0004:000028f8       $pdata$_strnicmp           00000001800568f8     libucrt:strnicmp.obj
 0004:00002904       $pdata$_strnicmp_l         0000000180056904     libucrt:strnicmp.obj
 0004:00002910       $pdata$?InternalCompareStringA@@YAHPEAU__crt_locale_pointers@@PEB_WKPEBDH2HH@Z 0000000180056910     libucrt:comparestringa.obj
 0004:0000291c       $pdata$__acrt_CompareStringA 000000018005691c     libucrt:comparestringa.obj
 0004:00002928       $pdata$_wcsnicmp           0000000180056928     libucrt:wcsnicmp.obj
 0004:00002934       $pdata$_wcsnicmp_l         0000000180056934     libucrt:wcsnicmp.obj
 0004:00002940       $pdata$??$common_sopen_dispatch@D@@YAHQEBDHHHQEAHH@Z 0000000180056940     libucrt:open.obj
 0004:0000294c       $pdata$?configure_text_mode@@YAHHUfile_options@?A0x656cf9f4@@HAEAW4__crt_lowio_text_mode@@@Z 000000018005694c     libucrt:open.obj
 0004:00002958       $pdata$?decode_options@@YA?AUfile_options@?A0x656cf9f4@@HHH@Z 0000000180056958     libucrt:open.obj
 0004:00002964       $pdata$?truncate_ctrl_z_if_present@@YAHH@Z 0000000180056964     libucrt:open.obj
 0004:00002970       $pdata$_sopen_nolock       0000000180056970     libucrt:open.obj
 0004:0000297c       $pdata$_sopen_s            000000018005697c     libucrt:open.obj
 0004:00002988       $pdata$_wsopen_nolock      0000000180056988     libucrt:open.obj
 0004:00002994       $pdata$strncpy_s           0000000180056994     libucrt:strncpy_s.obj
 0004:000029a0       $pdata$_call_matherr       00000001800569a0     libucrt:libm_error.obj
 0004:000029ac       $pdata$_exception_enabled  00000001800569ac     libucrt:libm_error.obj
 0004:000029b8       $pdata$_handle_error       00000001800569b8     libucrt:libm_error.obj
 0004:000029c4       $pdata$_handle_errorf      00000001800569c4     libucrt:libm_error.obj
 0004:000029d0       $pdata$_towlower_l         00000001800569d0     libucrt:towlower.obj
 0004:000029dc       $pdata$?shortsort@@YAXPEAD0_KP6AHPEBX2@Z@Z 00000001800569dc     libucrt:qsort.obj
 0004:000029e8       $pdata$2$?shortsort@@YAXPEAD0_KP6AHPEBX2@Z@Z 00000001800569e8     libucrt:qsort.obj
 0004:000029f4       $pdata$3$?shortsort@@YAXPEAD0_KP6AHPEBX2@Z@Z 00000001800569f4     libucrt:qsort.obj
 0004:00002a00       $pdata$qsort               0000000180056a00     libucrt:qsort.obj
 0004:00002a0c       $pdata$4$qsort             0000000180056a0c     libucrt:qsort.obj
 0004:00002a18       $pdata$5$qsort             0000000180056a18     libucrt:qsort.obj
 0004:00002a24       $pdata$strpbrk             0000000180056a24     libucrt:strpbrk.obj
 0004:00002a30       $pdata$_mbsdec_l           0000000180056a30     libucrt:mbsdec.obj
 0004:00002a3c       $pdata$?initialize_multibyte@@YAHXZ 0000000180056a3c     libucrt:multibyte_initializer.obj
 0004:00002a48       $pdata$_msize              0000000180056a48     libucrt:msize.obj
 0004:00002a54       $pdata$__dcrt_lowio_initialize_console_output 0000000180056a54     libucrt:initcon.obj
 0004:00002a60       $pdata$__dcrt_terminate_console_output 0000000180056a60     libucrt:initcon.obj
 0004:00002a6c       $pdata$fegetenv            0000000180056a6c     libucrt:fegetenv.obj
 0004:00002a78       $pdata$fesetenv            0000000180056a78     libucrt:fesetenv.obj
 0004:00002a84       $pdata$feholdexcept        0000000180056a84     libucrt:feholdexcept.obj
 0004:00002a9c       $pdata$_clearfp            0000000180056a9c     libucrt:ieee.obj
 0004:00002aa8       $pdata$common_control87    0000000180056aa8     libucrt:ieee.obj
 0004:00002ab4       $pdata$_get_fmode          0000000180056ab4     libucrt:setmode.obj
 0004:00002ac0       $pdata$_setmode_nolock     0000000180056ac0     libucrt:setmode.obj
 0004:00002acc       $pdata$__acrt_copy_path_to_wide_string 0000000180056acc     libucrt:string_utilities.obj
 0004:00002ad8       $pdata$_chsize_nolock      0000000180056ad8     libucrt:chsize.obj
 0004:00002ae4       $pdata$__acrt_LCMapStringW 0000000180056ae4     libucrt:lcmapstringw.obj
 0004:00002af0       $pdata$_log10_special      0000000180056af0     libucrt:log_special.obj
 0004:00002afc       $pdata$_log_special_common 0000000180056afc     libucrt:log_special.obj
 0004:00002b08       $pdata$?DloadAcquireSectionWriteAccess@@YAXXZ 0000000180056b08     DelayImp:delayhlp.obj
 0004:00002b14       $pdata$?DloadGetSRWLockFunctionPointers@@YAEXZ 0000000180056b14     DelayImp:delayhlp.obj
 0004:00002b20       $pdata$?DloadMakePermanentImageCommit@@YAXPEAX_K@Z 0000000180056b20     DelayImp:delayhlp.obj
 0004:00002b2c       $pdata$?DloadObtainSection@@YAPEAXPEAK0@Z 0000000180056b2c     DelayImp:delayhlp.obj
 0004:00002b38       $pdata$?DloadProtectSection@@YAXKPEAK@Z 0000000180056b38     DelayImp:delayhlp.obj
 0004:00002b44       $pdata$?DloadReleaseSectionWriteAccess@@YAXXZ 0000000180056b44     DelayImp:delayhlp.obj
 0004:00002b50       $pdata$__delayLoadHelper2  0000000180056b50     DelayImp:delayhlp.obj
 0004:00002b5c       $pdata$_IsNonwritableInCurrentImage 0000000180056b5c     LIBCMT:pesect.obj
 0004:00002b68       $pdata$strrchr             0000000180056b68     libvcruntime:strrchr.obj
 0004:00002b74       $pdata$strchr              0000000180056b74     libvcruntime:strchr.obj
 0004:00002b80       $pdata$wcschr              0000000180056b80     libvcruntime:wcschr.obj
 0004:00002b98       $pdata$__scrt_is_nonwritable_in_current_image$filt$0 0000000180056b98     LIBCMT:utility.obj
 0004:00002ba4       $pdata$?fin$0@?0??dllmain_crt_process_attach@@YAHQEAUHINSTANCE__@@QEAX@Z@4HA 0000000180056ba4     LIBCMT:dll_dllmain.obj
 0004:00002bb0       $pdata$?fin$0@?0??dllmain_crt_process_detach@@YAH_N@Z@4HA 0000000180056bb0     LIBCMT:dll_dllmain.obj
 0004:00002bbc       $pdata$?filt$0@?0??dllmain_dispatch@@YAHQEAUHINSTANCE__@@KQEAX@Z@4HA 0000000180056bbc     LIBCMT:dll_dllmain.obj
 0004:00002bc8       $pdata$__CxxCallCatchBlock$filt$0 0000000180056bc8     libvcruntime:frame.obj
 0004:00002bd4       $pdata$__CxxCallCatchBlock$fin$1 0000000180056bd4     libvcruntime:frame.obj
 0004:00002be0       $pdata$__DestructExceptionObject$filt$0 0000000180056be0     libvcruntime:frame.obj
 0004:00002bec       $pdata$__FrameUnwindToState$filt$0 0000000180056bec     libvcruntime:frame.obj
 0004:00002bf8       $pdata$__FrameUnwindToState$fin$1 0000000180056bf8     libvcruntime:frame.obj
 0004:00002c04       $pdata$_CallSETranslator$filt$0 0000000180056c04     libvcruntime:trnsctrl.obj
 0004:00002c10       $pdata$fputc$fin$0         0000000180056c10     libucrt:fputc.obj
 0004:00002c1c       $pdata$common_flush_all$fin$0 0000000180056c1c     libucrt:fflush.obj
 0004:00002c28       $pdata$common_flush_all$fin$1 0000000180056c28     libucrt:fflush.obj
 0004:00002c34       $pdata$fflush$fin$0        0000000180056c34     libucrt:fflush.obj
 0004:00002c34       $pdata$fclose$fin$0        0000000180056c34     libucrt:fclose.obj
 0004:00002c40       $pdata$?fin$0@?0???$?RV<lambda_7b91131dde12e1c3dfc74ff76b3f2eac>@@AEAV<lambda_dd75445284c072d0bd3768540cc698fa>@@V<lambda_16bc4ecb55b4718497c16bceaea2ceaf>@@@?$__crt_seh_guarded_call@H@@QEAAH$$QEAV<lambda_7b91131dde12e1c3dfc74ff76b3f2eac>@@AEAV<lambda_dd75445284c072d0bd3768540cc698fa>@@$$QEAV<lambda_16bc4ecb55b4718497c16bceaea2ceaf>@@@Z@4HA 0000000180056c40     libucrt:output.obj
 0004:00002c40       $pdata$?fin$0@?0???$?RV<lambda_7a5ef57ff966f610505f1d28a3d40618>@@AEAV<lambda_b721fa326cdb32351d23dfa67958c160>@@V<lambda_5e0fb27672408a07956fe59e48ccb2aa>@@@?$__crt_seh_guarded_call@H@@QEAAH$$QEAV<lambda_7a5ef57ff966f610505f1d28a3d40618>@@AEAV<lambda_b721fa326cdb32351d23dfa67958c160>@@$$QEAV<lambda_5e0fb27672408a07956fe59e48ccb2aa>@@@Z@4HA 0000000180056c40     libucrt:setvbuf.obj
 0004:00002c40       $pdata$?fin$0@?0???$?RV<lambda_aa279a7bcb127014629d5b1d62c7325d>@@AEAV<lambda_0a64b6a4deda75c01876f29c44fc5eb3>@@V<lambda_3323e69fbefe9d1a11713e670d47cdfa>@@@?$__crt_seh_guarded_call@H@@QEAAH$$QEAV<lambda_aa279a7bcb127014629d5b1d62c7325d>@@AEAV<lambda_0a64b6a4deda75c01876f29c44fc5eb3>@@$$QEAV<lambda_3323e69fbefe9d1a11713e670d47cdfa>@@@Z@4HA 0000000180056c40     libucrt:output.obj
 0004:00002c40       $pdata$?fin$0@?0???$?RV<lambda_5d4c3fee44080f75d5d9762853974fe0>@@AEAV<lambda_532e024f4337e6fc7ad266c2bef9f4ed>@@V<lambda_c87bdc10097eb2402edb8ba9bdf0697b>@@@?$__crt_seh_guarded_call@_K@@QEAA_K$$QEAV<lambda_5d4c3fee44080f75d5d9762853974fe0>@@AEAV<lambda_532e024f4337e6fc7ad266c2bef9f4ed>@@$$QEAV<lambda_c87bdc10097eb2402edb8ba9bdf0697b>@@@Z@4HA 0000000180056c40     libucrt:fwrite.obj
 0004:00002c4c       $pdata$fgetc$fin$0         0000000180056c4c     libucrt:fgetc.obj
 0004:00002c58       $pdata$ungetc$fin$0        0000000180056c58     libucrt:ungetc.obj
 0004:00002c64       $pdata$?filt$0@?0??common_exit@@YAXHW4_crt_exit_cleanup_mode@@W4_crt_exit_return_mode@@@Z@4HA 0000000180056c64     libucrt:exit.obj
 0004:00002c70       $pdata$?fin$1@?0??common_exit@@YAXHW4_crt_exit_cleanup_mode@@W4_crt_exit_return_mode@@@Z@4HA 0000000180056c70     libucrt:exit.obj
 0004:00002c7c       $pdata$raise$fin$0         0000000180056c7c     libucrt:signal.obj
 0004:00002c88       $pdata$?fin$0@?0???$common_getenv@D@@YAPEADQEBD@Z@4HA 0000000180056c88     libucrt:getenv.obj
 0004:00002c94       $pdata$setlocale$fin$0     0000000180056c94     libucrt:setlocale.obj
 0004:00002ca0       $pdata$?fin$0@?0???$common_fsopen@D@@YAPEAU_iobuf@@QEBD0H@Z@4HA 0000000180056ca0     libucrt:fopen.obj
 0004:00002cac       $pdata$_query_new_handler$fin$0 0000000180056cac     libucrt:new_handler.obj
 0004:00002cb8       $pdata$?fin$0@?0???$?RV<lambda_e24bbb7b643b32fcea6fa61b31d4c984>@@AEAV<lambda_275893d493268fdec8709772e3fcec0e>@@V<lambda_9d71df4d7cf3f480f8d633942495c3b0>@@@?$__crt_seh_guarded_call@H@@QEAAH$$QEAV<lambda_e24bbb7b643b32fcea6fa61b31d4c984>@@AEAV<lambda_275893d493268fdec8709772e3fcec0e>@@$$QEAV<lambda_9d71df4d7cf3f480f8d633942495c3b0>@@@Z@4HA 0000000180056cb8     libucrt:onexit.obj
 0004:00002cc4       $pdata$_alloc_osfhnd$fin$0 0000000180056cc4     libucrt:osfinfo.obj
 0004:00002cc4       $pdata$__acrt_lowio_ensure_fh_exists$fin$0 0000000180056cc4     libucrt:osfinfo.obj
 0004:00002cc4       $pdata$__acrt_initialize_lowio$fin$0 0000000180056cc4     libucrt:ioinit.obj
 0004:00002cd0       $pdata$?fin$0@?0???$?RV<lambda_c36588078e9f5dfd39652860aa6b3aaf>@@AEAV<lambda_ec61778202f4f5fc7e7711acc23c3bca>@@V<lambda_dc9d2797ccde5d239b4a0efae8ebd7db>@@@?$__crt_seh_guarded_call@P6AXH@Z@@QEAAP6AXH@Z$$QEAV<lambda_c36588078e9f5dfd39652860aa6b3aaf>@@AEAV<lambda_ec61778202f4f5fc7e7711acc23c3bca>@@$$QEAV<lambda_dc9d2797ccde5d239b4a0efae8ebd7db>@@@Z@4HA 0000000180056cd0     libucrt:signal.obj
 0004:00002cd0       $pdata$?fin$0@?0???$?RV<lambda_fb3a7dec4e47f37f22dae91bb15c9095>@@AEAV<lambda_698284760c8add0bfb0756c19673e34b>@@V<lambda_dfb8eca1e75fef3034a8fb18dd509707>@@@?$__crt_seh_guarded_call@X@@QEAAX$$QEAV<lambda_fb3a7dec4e47f37f22dae91bb15c9095>@@AEAV<lambda_698284760c8add0bfb0756c19673e34b>@@$$QEAV<lambda_dfb8eca1e75fef3034a8fb18dd509707>@@@Z@4HA 0000000180056cd0     libucrt:per_thread_data.obj
 0004:00002cd0       $pdata$?fin$0@?0???$?RV<lambda_b8c45f8f788dd370798f47cfe8ac3a86>@@AEAV<lambda_4e60a939b0d047cfe11ddc22648dfba9>@@V<lambda_332c3edc96d0294ec56c57d38c1cdfd5>@@@?$__crt_seh_guarded_call@H@@QEAAH$$QEAV<lambda_b8c45f8f788dd370798f47cfe8ac3a86>@@AEAV<lambda_4e60a939b0d047cfe11ddc22648dfba9>@@$$QEAV<lambda_332c3edc96d0294ec56c57d38c1cdfd5>@@@Z@4HA 0000000180056cd0     libucrt:onexit.obj
 0004:00002cd0       $pdata$?fin$0@?0???$?RV<lambda_5e887d1dcbef67a5eb4283622ba103bf>@@AEAV<lambda_4466841279450cc726390878d4a41900>@@V<lambda_341c25c0346d94847f1f3c463c57e077>@@@?$__crt_seh_guarded_call@X@@QEAAX$$QEAV<lambda_5e887d1dcbef67a5eb4283622ba103bf>@@AEAV<lambda_4466841279450cc726390878d4a41900>@@$$QEAV<lambda_341c25c0346d94847f1f3c463c57e077>@@@Z@4HA 0000000180056cd0     libucrt:per_thread_data.obj
 0004:00002cd0       $pdata$?fin$0@?0???$?RV<lambda_72d1df2b273a38828b1ce30cbf4cdab5>@@AEAV<lambda_876a65b173b8412d3a47c70a915b0cf4>@@V<lambda_41932305e351933ebe8f8be3ed8bb5dc>@@@?$__crt_seh_guarded_call@X@@QEAAX$$QEAV<lambda_72d1df2b273a38828b1ce30cbf4cdab5>@@AEAV<lambda_876a65b173b8412d3a47c70a915b0cf4>@@$$QEAV<lambda_41932305e351933ebe8f8be3ed8bb5dc>@@@Z@4HA 0000000180056cd0     libucrt:per_thread_data.obj
 0004:00002cd0       $pdata$?fin$0@?0???$?RV<lambda_99476a1ad63dd22509b5d3e65b0ffc95>@@AEAV<lambda_ad1ced32f4ac17aa236e5ef05d6b3b7c>@@V<lambda_f7424dd8d45958661754dc4f2697e9c3>@@@?$__crt_seh_guarded_call@X@@QEAAX$$QEAV<lambda_99476a1ad63dd22509b5d3e65b0ffc95>@@AEAV<lambda_ad1ced32f4ac17aa236e5ef05d6b3b7c>@@$$QEAV<lambda_f7424dd8d45958661754dc4f2697e9c3>@@@Z@4HA 0000000180056cd0     libucrt:mbctype.obj
 0004:00002cd0       $pdata$?fin$0@?0???$?RV<lambda_46352004c1216016012b18bd6f87e700>@@AEAV<lambda_3bd07e1a1191394380780325891bf33f>@@V<lambda_334532d3f185bcaa59b5be82d7d22bff>@@@?$__crt_seh_guarded_call@X@@QEAAX$$QEAV<lambda_46352004c1216016012b18bd6f87e700>@@AEAV<lambda_3bd07e1a1191394380780325891bf33f>@@$$QEAV<lambda_334532d3f185bcaa59b5be82d7d22bff>@@@Z@4HA 0000000180056cd0     libucrt:per_thread_data.obj
 0004:00002cd0       $pdata$?fin$0@?0???$?RV<lambda_630b2aca97f6d20d5b5ea6529ea6b6af>@@AEAV<lambda_af91936f1d075d609f72d9d8cba980af>@@V<lambda_e82fa975f615b5c7c7b0e4d178fdae67>@@@?$__crt_seh_guarded_call@H@@QEAAH$$QEAV<lambda_630b2aca97f6d20d5b5ea6529ea6b6af>@@AEAV<lambda_af91936f1d075d609f72d9d8cba980af>@@$$QEAV<lambda_e82fa975f615b5c7c7b0e4d178fdae67>@@@Z@4HA 0000000180056cd0     libucrt:winapi_thunks.obj
 0004:00002cd0       $pdata$?fin$0@?0???$?RV<lambda_d67e8342c384adda8f857579ab50b2ae>@@AEAV<lambda_30712929f77e709619002f448b6a9510>@@V<lambda_4525336fd7e478d965fb7ca7a337cad8>@@@?$__crt_seh_guarded_call@X@@QEAAX$$QEAV<lambda_d67e8342c384adda8f857579ab50b2ae>@@AEAV<lambda_30712929f77e709619002f448b6a9510>@@$$QEAV<lambda_4525336fd7e478d965fb7ca7a337cad8>@@@Z@4HA 0000000180056cd0     libucrt:wsetlocale.obj
 0004:00002cdc       $pdata$?fin$0@?0???$?RV<lambda_bfedae4ebbf01fab1bb6dcc6a9e276e0>@@AEAV<lambda_2fe9b910cf3cbf4a0ab98a02ba45b3ec>@@V<lambda_237c231691f317818eb88cc1d5d642d6>@@@?$__crt_seh_guarded_call@H@@QEAAH$$QEAV<lambda_bfedae4ebbf01fab1bb6dcc6a9e276e0>@@AEAV<lambda_2fe9b910cf3cbf4a0ab98a02ba45b3ec>@@$$QEAV<lambda_237c231691f317818eb88cc1d5d642d6>@@@Z@4HA 0000000180056cdc     libucrt:close.obj
 0004:00002cdc       $pdata$?fin$0@?0???$?RV<lambda_b521505b218e5242e90febf6bfebc422>@@AEAV<lambda_6978c1fb23f02e42e1d9e99668cc68aa>@@V<lambda_314360699dd331753a4119843814e9a7>@@@?$__crt_seh_guarded_call@H@@QEAAH$$QEAV<lambda_b521505b218e5242e90febf6bfebc422>@@AEAV<lambda_6978c1fb23f02e42e1d9e99668cc68aa>@@$$QEAV<lambda_314360699dd331753a4119843814e9a7>@@@Z@4HA 0000000180056cdc     libucrt:commit.obj
 0004:00002ce8       $pdata$?fin$0@?0???$common_lseek@_J@@YA_JH_JH@Z@4HA 0000000180056ce8     libucrt:lseek.obj
 0004:00002ce8       $pdata$_read$fin$0         0000000180056ce8     libucrt:read.obj
 0004:00002ce8       $pdata$_write$fin$0        0000000180056ce8     libucrt:write.obj
 0004:00002cf4       $pdata$?fin$0@?0???$?RV<lambda_5df02c53a8f32f81fd64e5bbb78039f1>@@AEAV<lambda_2af78c5f5901b1372d98f9ab3177dfa6>@@AEAV<lambda_f51fe5fd7c79a33db34fc9310f277369>@@@?$__crt_seh_guarded_call@X@@QEAAX$$QEAV<lambda_5df02c53a8f32f81fd64e5bbb78039f1>@@AEAV<lambda_2af78c5f5901b1372d98f9ab3177dfa6>@@AEAV<lambda_f51fe5fd7c79a33db34fc9310f277369>@@@Z@4HA 0000000180056cf4     libucrt:wsetlocale.obj
 0004:00002d00       $pdata$_fcloseall$fin$0    0000000180056d00     libucrt:closeall.obj
 0004:00002d00       $pdata$?fin$0@?0??__acrt_stdio_allocate_stream@@YA?AV__crt_stdio_stream@@XZ@4HA 0000000180056d00     libucrt:stream.obj
 0004:00002d0c       $pdata$?fin$0@?0??common_fseek@@YAHV__crt_stdio_stream@@_JH@Z@4HA 0000000180056d0c     libucrt:fseek.obj
 0004:00002d0c       $pdata$?fin$0@?0???$common_ftell@_J@@YA_JV__crt_stdio_stream@@@Z@4HA 0000000180056d0c     libucrt:ftell.obj
 0004:00002d18       $pdata$__acrt_update_thread_multibyte_data$fin$0 0000000180056d18     libucrt:mbctype.obj
 0004:00002d24       $pdata$__acrt_uninitialize_locale$fin$0 0000000180056d24     libucrt:wsetlocale.obj
 0004:00002d24       $pdata$__acrt_update_thread_locale_data$fin$0 0000000180056d24     libucrt:locale_refcounting.obj
 0004:00002d30       $pdata$?fin$0@?0???$common_sopen_dispatch@D@@YAHQEBDHHHQEAHH@Z@4HA 0000000180056d30     libucrt:open.obj
 0004:00002d3c       $pdata$common_control87$filt$0 0000000180056d3c     libucrt:ieee.obj
 0004:00002d3c       $pdata$_ctrlfp$filt$0      0000000180056d3c     libucrt:fpctrl.obj
 0004:00002d48       $pdata$_IsNonwritableInCurrentImage$filt$0 0000000180056d48     LIBCMT:pesect.obj
 0004:00002d54       $pdata$??__Fversion_string@nodereport@@YAXXZ 0000000180056d54     node_report.obj
 0004:00002d60       $pdata$??__Fcommandline_string@nodereport@@YAXXZ 0000000180056d60     node_report.obj
 0004:00002d6c       $pdata$??__Fcout@std@@YAXXZ 0000000180056d6c     libcpmt:cout.obj
 0004:00002d78       $pdata$??__F_Fac_tidy_reg@std@@YAXXZ 0000000180056d78     libcpmt:locale0.obj
 0004:00002d84       $pdata$??__Fclassic_locale@std@@YAXXZ 0000000180056d84     libcpmt:locale0.obj
 0004:00002d90       $pdata$??__Fcerr@std@@YAXXZ 0000000180056d90     libcpmt:cerr.obj
 0004:00002d9c       $pdata$??__Finit_atexit@@YAXXZ 0000000180056d9c     libcpmt:iosptrs.obj
 0005:00000000       __guard_fids__             0000000180057000     libucrt:initialization.obj
 0005:00000060       __guard_fids___acrt_initialize_ptd 0000000180057060     libucrt:per_thread_data.obj
 0005:00000064       __guard_fids__             0000000180057064     libucrt:wsetlocale.obj
 0005:0000007c       __guard_fids__             000000018005707c     libucrt:stdio_initializer.obj
 0005:00000080       __guard_fids__             0000000180057080     libucrt:stdio_initializer.obj
 0005:00000084       __guard_fids_??$?RV<lambda_630b2aca97f6d20d5b5ea6529ea6b6af>@@AEAV<lambda_af91936f1d075d609f72d9d8cba980af>@@V<lambda_e82fa975f615b5c7c7b0e4d178fdae67>@@@?$__crt_seh_guarded_call@H@@QEAAH$$QEAV<lambda_630b2aca97f6d20d5b5ea6529ea6b6af>@@AEAV<lambda_af91936f1d075d609f72d9d8cba980af>@@$$QEAV<lambda_e82fa975f615b5c7c7b0e4d178fdae67>@@@Z 0000000180057084     libucrt:winapi_thunks.obj
 0005:00000088       __guard_fids___acrt_show_wide_message_box 0000000180057088     libucrt:crtmbox.obj
 0005:0000008c       __guard_fids_??$expand_argument_wildcards@D@@YAHQEAD0AEAV?$argument_list@D@?A0xca0879c4@@@Z 000000018005708c     libucrt:argv_wildcards.obj
 0005:00000090       __guard_fids__             0000000180057090     libucrt:locale_initializer.obj
 0005:00000094       __guard_fids_GetLocaleNameFromLangCountry 0000000180057094     libucrt:get_qualified_locale.obj
 0005:00000098       __guard_fids_GetLocaleNameFromLanguage 0000000180057098     libucrt:get_qualified_locale.obj
 0005:0000009c       __guard_fids___acrt_get_qualified_locale_downlevel 000000018005709c     libucrt:getqloc_downlevel.obj
 0005:000000a0       __guard_fids_GetLcidFromLangCountry 00000001800570a0     libucrt:getqloc_downlevel.obj
 0005:000000a4       __guard_fids_GetLcidFromLanguage 00000001800570a4     libucrt:getqloc_downlevel.obj
 0005:000000a8       __guard_fids__             00000001800570a8     libucrt:fma3_initializer.obj
 0005:000000ac       __guard_fids__             00000001800570ac     libucrt:timeset_initializer.obj
 0005:000000b0       __guard_fids__             00000001800570b0     libucrt:multibyte_initializer.obj
 0005:000000b4       __guard_fids__             00000001800570b4     libucrt:console_output_initializer.obj
 0005:000000b8       __guard_fids_??__Einitlocks@std@@YAXXZ 00000001800570b8     libcpmt:xlock.obj
 0005:000000bc       __guard_fids__             00000001800570bc     libcpmt:xlock.obj
 0005:000000c0       __guard_fids_??__Einitlocks@@YAXXZ 00000001800570c0     libcpmt:cout.obj
 0005:000000c4       __guard_fids_??__Efout@std@@YAXXZ 00000001800570c4     libcpmt:cout.obj
 0005:000000c8       __guard_fids_??__Ecout@std@@YAXXZ 00000001800570c8     libcpmt:cout.obj
 0005:000000cc       __guard_fids__             00000001800570cc     libcpmt:cout.obj
 0005:000000d4       __guard_fids__             00000001800570d4     libcpmt:cout.obj
 0005:000000dc       __guard_fids__             00000001800570dc     libcpmt:cout.obj
 0005:000000e8       __guard_fids__             00000001800570e8     libcpmt:cout.obj
 0005:00000114       __guard_fids__             0000000180057114     libcpmt:cout.obj
 0005:0000012c       __guard_fids__             000000018005712c     libcpmt:cout.obj
 0005:00000134       __guard_fids__             0000000180057134     libcpmt:cout.obj
 0005:0000014c       __guard_fids__             000000018005714c     libcpmt:cout.obj
 0005:00000154       __guard_fids__             0000000180057154     libcpmt:cout.obj
 0005:00000158       __guard_fids__             0000000180057158     libcpmt:cout.obj
 0005:00000194       __guard_fids__             0000000180057194     libcpmt:cout.obj
 0005:000001d0       __guard_fids__             00000001800571d0     libcpmt:cout.obj
 0005:000001d4       __guard_fids__             00000001800571d4     libcpmt:cout.obj
 0005:000001d8       __guard_fids__             00000001800571d8     libcpmt:cout.obj
 0005:00000200       __guard_fids__             0000000180057200     libcpmt:cout.obj
 0005:00000204       __guard_fids__             0000000180057204     libcpmt:cout.obj
 0005:00000208       __guard_fids__             0000000180057208     libcpmt:cout.obj
 0005:0000020c       __guard_fids__             000000018005720c     libcpmt:cout.obj
 0005:00000210       __guard_fids_??__E_Fac_tidy_reg@std@@YAXXZ 0000000180057210     libcpmt:locale0.obj
 0005:00000214       __guard_fids_?_Setgloballocale@locale@std@@CAXPEAX@Z 0000000180057214     libcpmt:locale0.obj
 0005:00000218       __guard_fids_??__Eclassic_locale@std@@YAXXZ 0000000180057218     libcpmt:locale0.obj
 0005:0000021c       __guard_fids__             000000018005721c     libcpmt:locale0.obj
 0005:00000228       __guard_fids__             0000000180057228     libcpmt:locale0.obj
 0005:0000022c       __guard_fids__             000000018005722c     libcpmt:locale0.obj
 0005:00000230       __guard_fids__             0000000180057230     libcpmt:xthrow.obj
 0005:00000238       __guard_fids__             0000000180057238     libcpmt:xthrow.obj
 0005:00000240       __guard_fids__             0000000180057240     libcpmt:xthrow.obj
 0005:00000248       __guard_fids__             0000000180057248     libcpmt:xthrow.obj
 0005:00000250       __guard_fids_??__Einitlocks@@YAXXZ 0000000180057250     libcpmt:cerr.obj
 0005:00000254       __guard_fids_??__Eferr@std@@YAXXZ 0000000180057254     libcpmt:cerr.obj
 0005:00000258       __guard_fids_??__Ecerr@std@@YAXXZ 0000000180057258     libcpmt:cerr.obj
 0005:0000025c       __guard_fids__             000000018005725c     libcpmt:cerr.obj
 0005:00000260       __guard_fids__             0000000180057260     libcpmt:cerr.obj
 0005:00000264       __guard_fids__             0000000180057264     libcpmt:cerr.obj
 0005:00000268       __guard_fids__             0000000180057268     libcpmt:cerr.obj
 0005:0000026c       __guard_fids_?setw@std@@YA?AU?$_Smanip@_J@1@_J@Z 000000018005726c     libcpmt:iomanip.obj
 0005:00000270       __guard_fids_??__Einitlocks@std@@YAXXZ 0000000180057270     libcpmt:iosptrs.obj
 0005:00000274       __guard_fids_??__Einit_atexit@@YAXXZ 0000000180057274     libcpmt:iosptrs.obj
 0005:00000278       __guard_fids__             0000000180057278     libcpmt:iosptrs.obj
 0005:0000027c       __guard_fids__             000000018005727c     libcpmt:iosptrs.obj
 0005:00000280       __guard_fids__             0000000180057280     libcpmt:locale.obj
 0005:000002ac       __guard_fids__             00000001800572ac     libcpmt:locale.obj
 0005:000002cc       __guard_fids__             00000001800572cc     libcpmt:winapisupp.obj
 0005:000002d0       __guard_fids__             00000001800572d0     LIBCMT:thread_safe_statics.obj
 0005:000002d4       __guard_fids_?__scrt_initialize_thread_safe_statics@@YAHXZ 00000001800572d4     LIBCMT:thread_safe_statics.obj
 0005:000002d8       __guard_fids_?dllmain_crt_process_attach@@YAHQEAUHINSTANCE__@@QEAX@Z 00000001800572d8     LIBCMT:dll_dllmain.obj
 0005:000002e0       __guard_fids_?dllmain_dispatch@@YAHQEAUHINSTANCE__@@KQEAX@Z 00000001800572e0     LIBCMT:dll_dllmain.obj
 0005:000002e4       __guard_fids__             00000001800572e4     LIBCMT:std_type_info_static.obj
 0005:000002e8       __guard_fids__             00000001800572e8     LIBCMT:throw_bad_alloc.obj
 0005:000002f0       __guard_fids__             00000001800572f0     LIBCMT:guard_support.obj
 0005:000002f4       __guard_fids__             00000001800572f4     libvcruntime:frame.obj
 0005:000002f8       __guard_fids__             00000001800572f8     libvcruntime:frame.obj
 0005:00000300       __guard_fids__UnwindNestedFrames 0000000180057300     libvcruntime:trnsctrl.obj
 0005:00000304       __guard_fids___vcrt_initialize_ptd 0000000180057304     libvcruntime:per_thread_data.obj
 0007:00000060       $R000000                   0000000180059060     * linker generated manifest res *

 Exports

  ordinal    name

        1    _register_nodereport_
